(dp1
I0
S'fashion'
p2
sI2
S'us'
p3
sI3
S'us'
p4
sI4
S'sports'
p5
sI5
S'fashion'
p6
sI6
S'health'
p7
sI7
S'health'
p8
sI8
S'us'
p9
sI9
S'sports'
p10
sI10
S'magazine'
p11
sI11
S'us'
p12
sI12
S'world'
p13
sI13
S'business'
p14
sI14
S'magazine'
p15
sI15
S'arts'
p16
sI16
S'sports'
p17
sI17
S'fashion'
p18
sI18
S'magazine'
p19
sI19
S'world'
p20
sI20
S'us'
p21
sI21
S'business'
p22
sI22
S'health'
p23
sI23
S'us'
p24
sI24
S'sports'
p25
sI25
S'us'
p26
sI26
S'arts'
p27
sI27
S'arts'
p28
sI28
S'world'
p29
sI29
S'nyregion'
p30
sI30
S'magazine'
p31
sI31
S'nyregion'
p32
sI32
S'fashion'
p33
sI33
S'world'
p34
sI34
S'books'
p35
sI35
S'world'
p36
sI36
S'us'
p37
sI37
S'us'
p38
sI38
S'world'
p39
sI39
S'fashion'
p40
sI40
S'arts'
p41
sI41
S'business'
p42
sI42
S'technology'
p43
sI43
S'fashion'
p44
sI44
S'science'
p45
sI45
S'health'
p46
sI46
S'technology'
p47
sI47
S'science'
p48
sI48
S'world'
p49
sI49
S'nyregion'
p50
sI50
S'fashion'
p51
sI51
S'magazine'
p52
sI52
S'science'
p53
sI53
S'nyregion'
p54
sI54
S'sports'
p55
sI55
S'sports'
p56
sI56
S'business'
p57
sI57
S'us'
p58
sI58
S'technology'
p59
sI59
S'books'
p60
sI60
S'us'
p61
sI61
S'science'
p62
sI62
S'health'
p63
sI63
S'sports'
p64
sI64
S'magazine'
p65
sI65
S'world'
p66
sI66
S'nyregion'
p67
sI67
S'science'
p68
sI68
S'sports'
p69
sI69
S'magazine'
p70
sI70
S'world'
p71
sI71
S'us'
p72
sI72
S'fashion'
p73
sI73
S'magazine'
p74
sI74
S'magazine'
p75
sI75
S'arts'
p76
sI76
S'us'
p77
sI77
S'arts'
p78
sI78
S'us'
p79
sI79
S'fashion'
p80
sI80
S'arts'
p81
sI81
S'us'
p82
sI82
S'fashion'
p83
sI83
S'technology'
p84
sI84
S'us'
p85
sI85
S'business'
p86
sI86
S'sports'
p87
sI87
S'fashion'
p88
sI88
S'science'
p89
sI89
S'world'
p90
sI90
S'world'
p91
sI91
S'business'
p92
sI92
S'health'
p93
sI93
S'world'
p94
sI94
S'sports'
p95
sI95
S'world'
p96
sI97
S'magazine'
p97
sI98
S'us'
p98
sI99
S'world'
p99
sI100
S'magazine'
p100
sI101
S'magazine'
p101
sI102
S'us'
p102
sI103
S'business'
p103
sI104
S'us'
p104
sI105
S'sports'
p105
sI106
S'world'
p106
sI107
S'business'
p107
sI108
S'sports'
p108
sI109
S'us'
p109
sI110
S'business'
p110
sI111
S'business'
p111
sI113
S'business'
p112
sI114
S'fashion'
p113
sI115
S'science'
p114
sI116
S'us'
p115
sI117
S'technology'
p116
sI118
S'arts'
p117
sI119
S'world'
p118
sI120
S'arts'
p119
sI121
S'world'
p120
sI122
S'world'
p121
sI123
S'fashion'
p122
sI124
S'world'
p123
sI125
S'arts'
p124
sI126
S'magazine'
p125
sI127
S'sports'
p126
sI128
S'us'
p127
sI129
S'world'
p128
sI130
S'business'
p129
sI131
S'us'
p130
sI132
S'science'
p131
sI133
S'world'
p132
sI134
S'sports'
p133
sI135
S'fashion'
p134
sI136
S'us'
p135
sI137
S'world'
p136
sI138
S'world'
p137
sI139
S'magazine'
p138
sI140
S'nyregion'
p139
sI141
S'us'
p140
sI142
S'health'
p141
sI143
S'us'
p142
sI144
S'fashion'
p143
sI145
S'magazine'
p144
sI146
S'world'
p145
sI147
S'arts'
p146
sI148
S'technology'
p147
sI149
S'fashion'
p148
sI150
S'us'
p149
sI151
S'magazine'
p150
sI152
S'arts'
p151
sI153
S'us'
p152
sI154
S'nyregion'
p153
sI156
S'health'
p154
sI157
S'world'
p155
sI158
S'business'
p156
sI159
S'world'
p157
sI160
S'world'
p158
sI161
S'us'
p159
sI162
S'world'
p160
sI163
S'nyregion'
p161
sI164
S'us'
p162
sI165
S'nyregion'
p163
sI166
S'nyregion'
p164
sI167
S'arts'
p165
sI168
S'us'
p166
sI169
S'us'
p167
sI170
S'business'
p168
sI171
S'us'
p169
sI172
S'us'
p170
sI173
S'world'
p171
sI174
S'world'
p172
sI175
S'science'
p173
sI176
S'world'
p174
sI177
S'us'
p175
sI178
S'fashion'
p176
sI179
S'world'
p177
sI180
S'nyregion'
p178
sI181
S'nyregion'
p179
sI182
S'nyregion'
p180
sI183
S'technology'
p181
sI184
S'fashion'
p182
sI185
S'magazine'
p183
sI186
S'magazine'
p184
sI187
S'science'
p185
sI188
S'us'
p186
sI189
S'nyregion'
p187
sI190
S'technology'
p188
sI191
S'us'
p189
sI192
S'sports'
p190
sI193
S'us'
p191
sI194
S'magazine'
p192
sI195
S'nyregion'
p193
sI196
S'world'
p194
sI197
S'sports'
p195
sI198
S'sports'
p196
sI199
S'world'
p197
sI200
S'sports'
p198
sI201
S'world'
p199
sI202
S'us'
p200
sI203
S'us'
p201
sI204
S'us'
p202
sI205
S'science'
p203
sI206
S'magazine'
p204
sI207
S'sports'
p205
sI208
S'business'
p206
sI209
S'sports'
p207
sI210
S'sports'
p208
sI211
S'sports'
p209
sI212
S'nyregion'
p210
sI213
S'science'
p211
sI214
S'us'
p212
sI215
S'arts'
p213
sI216
S'world'
p214
sI217
S'sports'
p215
sI218
S'us'
p216
sI219
S'us'
p217
sI220
S'technology'
p218
sI221
S'world'
p219
sI222
S'magazine'
p220
sI223
S'magazine'
p221
sI224
S'world'
p222
sI225
S'business'
p223
sI226
S'fashion'
p224
sI227
S'sports'
p225
sI228
S'us'
p226
sI229
S'fashion'
p227
sI230
S'arts'
p228
sI231
S'technology'
p229
sI232
S'technology'
p230
sI233
S'arts'
p231
sI234
S'fashion'
p232
sI235
S'world'
p233
sI236
S'sports'
p234
sI237
S'fashion'
p235
sI238
S'us'
p236
sI239
S'magazine'
p237
sI240
S'us'
p238
sI241
S'us'
p239
sI242
S'arts'
p240
sI243
S'us'
p241
sI244
S'science'
p242
sI245
S'books'
p243
sI246
S'arts'
p244
sI247
S'business'
p245
sI248
S'fashion'
p246
sI249
S'science'
p247
sI250
S'world'
p248
sI251
S'world'
p249
sI252
S'world'
p250
sI253
S'fashion'
p251
sI254
S'business'
p252
sI255
S'world'
p253
sI256
S'business'
p254
sI257
S'world'
p255
sI258
S'us'
p256
sI259
S'business'
p257
sI260
S'health'
p258
sI261
S'science'
p259
sI262
S'business'
p260
sI263
S'world'
p261
sI264
S'business'
p262
sI265
S'us'
p263
sI266
S'business'
p264
sI267
S'magazine'
p265
sI268
S'world'
p266
sI269
S'sports'
p267
sI270
S'sports'
p268
sI271
S'sports'
p269
sI272
S'magazine'
p270
sI273
S'us'
p271
sI274
S'world'
p272
sI275
S'world'
p273
sI277
S'arts'
p274
sI278
S'world'
p275
sI279
S'science'
p276
sI280
S'us'
p277
sI281
S'us'
p278
sI282
S'us'
p279
sI283
S'science'
p280
sI284
S'us'
p281
sI285
S'nyregion'
p282
sI286
S'us'
p283
sI287
S'world'
p284
sI288
S'us'
p285
sI289
S'magazine'
p286
sI290
S'world'
p287
sI291
S'health'
p288
sI292
S'magazine'
p289
sI293
S'arts'
p290
sI294
S'arts'
p291
sI295
S'arts'
p292
sI296
S'arts'
p293
sI297
S'arts'
p294
sI298
S'arts'
p295
sI299
S'arts'
p296
sI300
S'nyregion'
p297
sI301
S'us'
p298
sI302
S'world'
p299
sI303
S'health'
p300
sI304
S'world'
p301
sI305
S'technology'
p302
sI306
S'us'
p303
sI307
S'nyregion'
p304
sI308
S'world'
p305
sI309
S'world'
p306
sI310
S'technology'
p307
sI311
S'sports'
p308
sI312
S'us'
p309
sI313
S'nyregion'
p310
sI314
S'technology'
p311
sI315
S'us'
p312
sI316
S'world'
p313
sI317
S'arts'
p314
sI318
S'business'
p315
sI319
S'fashion'
p316
sI320
S'world'
p317
sI321
S'magazine'
p318
sI322
S'world'
p319
sI323
S'magazine'
p320
sI324
S'world'
p321
sI325
S'world'
p322
sI326
S'sports'
p323
sI327
S'us'
p324
sI328
S'magazine'
p325
sI329
S'nyregion'
p326
sI330
S'world'
p327
sI331
S'sports'
p328
sI332
S'us'
p329
sI333
S'world'
p330
sI334
S'us'
p331
sI335
S'fashion'
p332
sI336
S'health'
p333
sI337
S'sports'
p334
sI338
S'world'
p335
sI339
S'science'
p336
sI340
S'world'
p337
sI341
S'fashion'
p338
sI342
S'sports'
p339
sI343
S'world'
p340
sI344
S'business'
p341
sI345
S'us'
p342
sI347
S'us'
p343
sI348
S'world'
p344
sI349
S'nyregion'
p345
sI350
S'technology'
p346
sI351
S'nyregion'
p347
sI352
S'us'
p348
sI353
S'world'
p349
sI354
S'arts'
p350
sI355
S'health'
p351
sI356
S'world'
p352
sI357
S'business'
p353
sI358
S'world'
p354
sI359
S'us'
p355
sI361
S'us'
p356
sI362
S'world'
p357
sI363
S'nyregion'
p358
sI364
S'us'
p359
sI365
S'us'
p360
sI366
S'nyregion'
p361
sI367
S'us'
p362
sI369
S'magazine'
p363
sI370
S'health'
p364
sI371
S'us'
p365
sI372
S'world'
p366
sI373
S'world'
p367
sI374
S'fashion'
p368
sI375
S'sports'
p369
sI376
S'us'
p370
sI377
S'world'
p371
sI378
S'us'
p372
sI379
S'sports'
p373
sI380
S'us'
p374
sI381
S'health'
p375
sI382
S'technology'
p376
sI383
S'arts'
p377
sI384
S'world'
p378
sI385
S'world'
p379
sI386
S'us'
p380
sI387
S'arts'
p381
sI388
S'us'
p382
sI389
S'us'
p383
sI390
S'magazine'
p384
sI391
S'business'
p385
sI392
S'magazine'
p386
sI393
S'world'
p387
sI394
S'us'
p388
sI395
S'us'
p389
sI396
S'us'
p390
sI397
S'fashion'
p391
sI398
S'arts'
p392
sI399
S'business'
p393
sI400
S'technology'
p394
sI401
S'science'
p395
sI402
S'world'
p396
sI403
S'technology'
p397
sI404
S'technology'
p398
sI405
S'business'
p399
sI406
S'us'
p400
sI407
S'science'
p401
sI408
S'us'
p402
sI409
S'us'
p403
sI410
S'science'
p404
sI411
S'us'
p405
sI413
S'world'
p406
sI414
S'business'
p407
sI415
S'sports'
p408
sI416
S'us'
p409
sI417
S'world'
p410
sI418
S'science'
p411
sI419
S'technology'
p412
sI420
S'us'
p413
sI421
S'magazine'
p414
sI422
S'world'
p415
sI423
S'science'
p416
sI424
S'arts'
p417
sI425
S'us'
p418
sI426
S'sports'
p419
sI427
S'us'
p420
sI428
S'business'
p421
sI429
S'fashion'
p422
sI430
S'sports'
p423
sI431
S'us'
p424
sI432
S'magazine'
p425
sI433
S'books'
p426
sI434
S'magazine'
p427
sI435
S'magazine'
p428
sI436
S'magazine'
p429
sI437
S'sports'
p430
sI438
S'sports'
p431
sI439
S'fashion'
p432
sI440
S'us'
p433
sI441
S'sports'
p434
sI442
S'us'
p435
sI443
S'magazine'
p436
sI444
S'world'
p437
sI445
S'business'
p438
sI446
S'books'
p439
sI447
S'sports'
p440
sI449
S'arts'
p441
sI450
S'nyregion'
p442
sI451
S'world'
p443
sI452
S'us'
p444
sI453
S'business'
p445
sI454
S'us'
p446
sI455
S'books'
p447
sI456
S'us'
p448
sI457
S'nyregion'
p449
sI458
S'arts'
p450
sI459
S'books'
p451
sI460
S'books'
p452
sI461
S'fashion'
p453
sI463
S'business'
p454
sI464
S'arts'
p455
sI465
S'nyregion'
p456
sI466
S'world'
p457
sI467
S'us'
p458
sI468
S'world'
p459
sI469
S'us'
p460
sI470
S'us'
p461
sI471
S'technology'
p462
sI472
S'world'
p463
sI473
S'us'
p464
sI474
S'business'
p465
sI475
S'world'
p466
sI476
S'arts'
p467
sI477
S'magazine'
p468
sI478
S'business'
p469
sI479
S'fashion'
p470
sI480
S'us'
p471
sI481
S'fashion'
p472
sI482
S'us'
p473
sI483
S'fashion'
p474
sI484
S'world'
p475
sI485
S'sports'
p476
sI486
S'books'
p477
sI487
S'us'
p478
sI488
S'business'
p479
sI489
S'science'
p480
sI490
S'fashion'
p481
sI491
S'sports'
p482
sI492
S'us'
p483
sI493
S'us'
p484
sI494
S'world'
p485
sI495
S'us'
p486
sI496
S'nyregion'
p487
sI497
S'nyregion'
p488
sI498
S'nyregion'
p489
sI499
S'technology'
p490
sI500
S'business'
p491
sI501
S'nyregion'
p492
sI503
S'world'
p493
sI504
S'sports'
p494
sI505
S'business'
p495
sI506
S'nyregion'
p496
sI507
S'sports'
p497
sI508
S'sports'
p498
sI509
S'world'
p499
sI510
S'nyregion'
p500
sI511
S'sports'
p501
sI512
S'world'
p502
sI513
S'sports'
p503
sI514
S'nyregion'
p504
sI515
S'fashion'
p505
sI516
S'sports'
p506
sI517
S'arts'
p507
sI518
S'world'
p508
sI519
S'us'
p509
sI520
S'sports'
p510
sI521
S'sports'
p511
sI522
S'us'
p512
sI523
S'world'
p513
sI524
S'business'
p514
sI525
S'us'
p515
sI526
S'business'
p516
sI527
S'world'
p517
sI528
S'fashion'
p518
sI529
S'world'
p519
sI530
S'nyregion'
p520
sI531
S'fashion'
p521
sI532
S'technology'
p522
sI533
S'fashion'
p523
sI534
S'world'
p524
sI535
S'world'
p525
sI536
S'nyregion'
p526
sI537
S'sports'
p527
sI538
S'us'
p528
sI539
S'arts'
p529
sI540
S'science'
p530
sI541
S'world'
p531
sI542
S'fashion'
p532
sI543
S'arts'
p533
sI544
S'health'
p534
sI545
S'magazine'
p535
sI546
S'world'
p536
sI547
S'world'
p537
sI548
S'science'
p538
sI549
S'world'
p539
sI550
S'world'
p540
sI551
S'us'
p541
sI552
S'nyregion'
p542
sI553
S'us'
p543
sI554
S'science'
p544
sI555
S'us'
p545
sI556
S'science'
p546
sI557
S'world'
p547
sI558
S'nyregion'
p548
sI559
S'science'
p549
sI560
S'world'
p550
sI561
S'us'
p551
sI562
S'health'
p552
sI563
S'nyregion'
p553
sI564
S'world'
p554
sI565
S'us'
p555
sI566
S'business'
p556
sI567
S'world'
p557
sI568
S'health'
p558
sI570
S'nyregion'
p559
sI571
S'nyregion'
p560
sI572
S'world'
p561
sI574
S'nyregion'
p562
sI575
S'business'
p563
sI576
S'nyregion'
p564
sI577
S'arts'
p565
sI578
S'arts'
p566
sI579
S'science'
p567
sI580
S'us'
p568
sI582
S'us'
p569
sI583
S'nyregion'
p570
sI584
S'magazine'
p571
sI585
S'world'
p572
sI586
S'arts'
p573
sI587
S'business'
p574
sI588
S'us'
p575
sI589
S'business'
p576
sI590
S'technology'
p577
sI591
S'sports'
p578
sI592
S'us'
p579
sI593
S'us'
p580
sI594
S'arts'
p581
sI595
S'world'
p582
sI596
S'nyregion'
p583
sI597
S'fashion'
p584
sI598
S'technology'
p585
sI599
S'world'
p586
sI600
S'us'
p587
sI601
S'science'
p588
sI602
S'world'
p589
sI603
S'world'
p590
sI604
S'us'
p591
sI605
S'world'
p592
sI606
S'arts'
p593
sI608
S'books'
p594
sI609
S'technology'
p595
sI610
S'us'
p596
sI611
S'us'
p597
sI612
S'nyregion'
p598
sI613
S'world'
p599
sI614
S'fashion'
p600
sI615
S'sports'
p601
sI616
S'us'
p602
sI617
S'business'
p603
sI619
S'us'
p604
sI620
S'sports'
p605
sI621
S'us'
p606
sI622
S'world'
p607
sI623
S'health'
p608
sI624
S'us'
p609
sI625
S'us'
p610
sI626
S'fashion'
p611
sI627
S'technology'
p612
sI628
S'technology'
p613
sI629
S'business'
p614
sI630
S'books'
p615
sI631
S'fashion'
p616
sI632
S'nyregion'
p617
sI633
S'magazine'
p618
sI634
S'technology'
p619
sI635
S'business'
p620
sI636
S'sports'
p621
sI637
S'us'
p622
sI638
S'nyregion'
p623
sI639
S'science'
p624
sI640
S'health'
p625
sI641
S'nyregion'
p626
sI642
S'world'
p627
sI643
S'world'
p628
sI644
S'world'
p629
sI645
S'arts'
p630
sI646
S'us'
p631
sI647
S'business'
p632
sI648
S'science'
p633
sI649
S'us'
p634
sI650
S'arts'
p635
sI651
S'science'
p636
sI652
S'health'
p637
sI653
S'us'
p638
sI654
S'world'
p639
sI655
S'world'
p640
sI656
S'us'
p641
sI657
S'fashion'
p642
sI658
S'sports'
p643
sI659
S'world'
p644
sI660
S'arts'
p645
sI661
S'books'
p646
sI662
S'technology'
p647
sI664
S'us'
p648
sI665
S'world'
p649
sI666
S'fashion'
p650
sI667
S'us'
p651
sI668
S'fashion'
p652
sI669
S'world'
p653
sI670
S'sports'
p654
sI671
S'health'
p655
sI672
S'business'
p656
sI673
S'arts'
p657
sI674
S'us'
p658
sI675
S'us'
p659
sI676
S'us'
p660
sI677
S'sports'
p661
sI678
S'world'
p662
sI679
S'nyregion'
p663
sI680
S'sports'
p664
sI681
S'us'
p665
sI682
S'us'
p666
sI683
S'world'
p667
sI684
S'us'
p668
sI685
S'nyregion'
p669
sI686
S'world'
p670
sI687
S'sports'
p671
sI688
S'fashion'
p672
sI689
S'business'
p673
sI690
S'sports'
p674
sI691
S'world'
p675
sI692
S'us'
p676
sI693
S'us'
p677
sI694
S'business'
p678
sI695
S'sports'
p679
sI696
S'sports'
p680
sI697
S'business'
p681
sI698
S'books'
p682
sI699
S'sports'
p683
sI700
S'arts'
p684
sI701
S'nyregion'
p685
sI702
S'business'
p686
sI703
S'world'
p687
sI704
S'us'
p688
sI705
S'business'
p689
sI706
S'world'
p690
sI707
S'us'
p691
sI708
S'nyregion'
p692
sI709
S'nyregion'
p693
sI710
S'us'
p694
sI711
S'nyregion'
p695
sI712
S'us'
p696
sI713
S'world'
p697
sI714
S'world'
p698
sI715
S'nyregion'
p699
sI716
S'world'
p700
sI717
S'books'
p701
sI718
S'nyregion'
p702
sI719
S'business'
p703
sI720
S'arts'
p704
sI721
S'magazine'
p705
sI722
S'nyregion'
p706
sI723
S'sports'
p707
sI724
S'sports'
p708
sI725
S'sports'
p709
sI726
S'sports'
p710
sI727
S'world'
p711
sI728
S'business'
p712
sI729
S'us'
p713
sI730
S'fashion'
p714
sI731
S'world'
p715
sI732
S'books'
p716
sI733
S'us'
p717
sI734
S'health'
p718
sI735
S'magazine'
p719
sI736
S'us'
p720
sI737
S'magazine'
p721
sI738
S'business'
p722
sI739
S'sports'
p723
sI740
S'nyregion'
p724
sI741
S'nyregion'
p725
sI742
S'business'
p726
sI743
S'world'
p727
sI744
S'business'
p728
sI745
S'nyregion'
p729
sI746
S'sports'
p730
sI747
S'world'
p731
sI748
S'fashion'
p732
sI749
S'us'
p733
sI750
S'sports'
p734
sI751
S'us'
p735
sI752
S'sports'
p736
sI753
S'nyregion'
p737
sI754
S'sports'
p738
sI755
S'arts'
p739
sI756
S'world'
p740
sI757
S'sports'
p741
sI758
S'world'
p742
sI759
S'world'
p743
sI760
S'sports'
p744
sI761
S'sports'
p745
sI763
S'technology'
p746
sI764
S'arts'
p747
sI765
S'world'
p748
sI766
S'sports'
p749
sI767
S'world'
p750
sI768
S'world'
p751
sI769
S'science'
p752
sI770
S'business'
p753
sI771
S'sports'
p754
sI772
S'world'
p755
sI773
S'sports'
p756
sI774
S'world'
p757
sI775
S'sports'
p758
sI776
S'magazine'
p759
sI777
S'arts'
p760
sI778
S'world'
p761
sI779
S'business'
p762
sI780
S'science'
p763
sI781
S'sports'
p764
sI782
S'world'
p765
sI783
S'sports'
p766
sI784
S'us'
p767
sI785
S'fashion'
p768
sI786
S'arts'
p769
sI787
S'world'
p770
sI788
S'arts'
p771
sI789
S'world'
p772
sI790
S'books'
p773
sI791
S'us'
p774
sI792
S'health'
p775
sI793
S'arts'
p776
sI794
S'us'
p777
sI795
S'us'
p778
sI796
S'us'
p779
sI797
S'us'
p780
sI798
S'world'
p781
sI799
S'world'
p782
sI800
S'world'
p783
sI801
S'us'
p784
sI802
S'us'
p785
sI803
S'world'
p786
sI804
S'us'
p787
sI805
S'us'
p788
sI806
S'nyregion'
p789
sI807
S'business'
p790
sI808
S'sports'
p791
sI809
S'science'
p792
sI810
S'us'
p793
sI811
S'us'
p794
sI812
S'sports'
p795
sI813
S'sports'
p796
sI814
S'sports'
p797
sI815
S'science'
p798
sI816
S'world'
p799
sI817
S'us'
p800
sI818
S'business'
p801
sI819
S'us'
p802
sI820
S'us'
p803
sI821
S'world'
p804
sI822
S'sports'
p805
sI823
S'sports'
p806
sI824
S'science'
p807
sI825
S'fashion'
p808
sI826
S'books'
p809
sI827
S'sports'
p810
sI828
S'arts'
p811
sI829
S'sports'
p812
sI830
S'business'
p813
sI831
S'sports'
p814
sI832
S'sports'
p815
sI833
S'us'
p816
sI834
S'us'
p817
sI835
S'world'
p818
sI836
S'magazine'
p819
sI837
S'sports'
p820
sI838
S'nyregion'
p821
sI839
S'world'
p822
sI840
S'us'
p823
sI841
S'books'
p824
sI842
S'us'
p825
sI843
S'science'
p826
sI844
S'us'
p827
sI845
S'magazine'
p828
sI847
S'business'
p829
sI848
S'us'
p830
sI849
S'world'
p831
sI850
S'science'
p832
sI851
S'sports'
p833
sI852
S'fashion'
p834
sI853
S'science'
p835
sI854
S'us'
p836
sI855
S'books'
p837
sI856
S'world'
p838
sI857
S'world'
p839
sI858
S'world'
p840
sI859
S'business'
p841
sI860
S'nyregion'
p842
sI861
S'us'
p843
sI862
S'health'
p844
sI863
S'magazine'
p845
sI864
S'world'
p846
sI865
S'fashion'
p847
sI866
S'us'
p848
sI867
S'arts'
p849
sI868
S'fashion'
p850
sI869
S'world'
p851
sI870
S'us'
p852
sI871
S'nyregion'
p853
sI872
S'world'
p854
sI873
S'nyregion'
p855
sI874
S'world'
p856
sI875
S'magazine'
p857
sI876
S'us'
p858
sI877
S'arts'
p859
sI878
S'us'
p860
sI880
S'magazine'
p861
sI881
S'us'
p862
sI882
S'magazine'
p863
sI883
S'magazine'
p864
sI884
S'health'
p865
sI885
S'nyregion'
p866
sI886
S'sports'
p867
sI887
S'us'
p868
sI888
S'business'
p869
sI889
S'business'
p870
sI890
S'us'
p871
sI891
S'nyregion'
p872
sI892
S'world'
p873
sI893
S'science'
p874
sI894
S'world'
p875
sI895
S'technology'
p876
sI896
S'science'
p877
sI897
S'us'
p878
sI898
S'sports'
p879
sI899
S'science'
p880
sI900
S'business'
p881
sI902
S'business'
p882
sI903
S'us'
p883
sI904
S'world'
p884
sI905
S'us'
p885
sI906
S'world'
p886
sI907
S'magazine'
p887
sI908
S'us'
p888
sI909
S'world'
p889
sI910
S'world'
p890
sI911
S'world'
p891
sI912
S'world'
p892
sI913
S'us'
p893
sI914
S'us'
p894
sI915
S'us'
p895
sI917
S'us'
p896
sI918
S'science'
p897
sI919
S'science'
p898
sI920
S'us'
p899
sI921
S'books'
p900
sI922
S'nyregion'
p901
sI923
S'us'
p902
sI925
S'world'
p903
sI926
S'business'
p904
sI927
S'world'
p905
sI928
S'world'
p906
sI929
S'sports'
p907
sI930
S'books'
p908
sI931
S'technology'
p909
sI932
S'sports'
p910
sI933
S'world'
p911
sI934
S'world'
p912
sI935
S'us'
p913
sI936
S'world'
p914
sI937
S'sports'
p915
sI938
S'us'
p916
sI939
S'sports'
p917
sI940
S'sports'
p918
sI941
S'sports'
p919
sI942
S'sports'
p920
sI943
S'sports'
p921
sI944
S'sports'
p922
sI945
S'sports'
p923
sI946
S'us'
p924
sI947
S'business'
p925
sI948
S'technology'
p926
sI949
S'us'
p927
sI950
S'science'
p928
sI951
S'business'
p929
sI952
S'business'
p930
sI953
S'business'
p931
sI954
S'business'
p932
sI955
S'business'
p933
sI956
S'business'
p934
sI957
S'magazine'
p935
sI958
S'us'
p936
sI959
S'business'
p937
sI960
S'business'
p938
sI961
S'business'
p939
sI962
S'business'
p940
sI963
S'business'
p941
sI964
S'business'
p942
sI965
S'business'
p943
sI966
S'business'
p944
sI967
S'business'
p945
sI968
S'us'
p946
sI969
S'us'
p947
sI970
S'world'
p948
sI971
S'world'
p949
sI972
S'sports'
p950
sI973
S'sports'
p951
sI974
S'arts'
p952
sI975
S'arts'
p953
sI976
S'arts'
p954
sI977
S'world'
p955
sI978
S'sports'
p956
sI979
S'us'
p957
sI980
S'us'
p958
sI981
S'world'
p959
sI982
S'world'
p960
sI983
S'business'
p961
sI984
S'nyregion'
p962
sI985
S'arts'
p963
sI986
S'business'
p964
sI987
S'us'
p965
sI988
S'world'
p966
sI990
S'world'
p967
sI991
S'health'
p968
sI992
S'sports'
p969
sI993
S'business'
p970
sI994
S'us'
p971
sI995
S'business'
p972
sI996
S'us'
p973
sI997
S'world'
p974
sI998
S'fashion'
p975
sI999
S'us'
p976
sI1000
S'business'
p977
sI1001
S'us'
p978
sI1002
S'business'
p979
sI1003
S'us'
p980
sI1004
S'science'
p981
sI1005
S'arts'
p982
sI1006
S'fashion'
p983
sI1007
S'sports'
p984
sI1008
S'us'
p985
sI1009
S'us'
p986
sI1010
S'world'
p987
sI1011
S'us'
p988
sI1012
S'technology'
p989
sI1013
S'world'
p990
sI1014
S'business'
p991
sI1015
S'arts'
p992
sI1016
S'world'
p993
sI1017
S'sports'
p994
sI1018
S'world'
p995
sI1019
S'business'
p996
sI1020
S'sports'
p997
sI1021
S'technology'
p998
sI1022
S'sports'
p999
sI1023
S'fashion'
p1000
sI1024
S'us'
p1001
sI1025
S'business'
p1002
sI1026
S'sports'
p1003
sI1027
S'us'
p1004
sI1028
S'sports'
p1005
sI1029
S'us'
p1006
sI1030
S'business'
p1007
sI1031
S'sports'
p1008
sI1032
S'magazine'
p1009
sI1033
S'world'
p1010
sI1034
S'sports'
p1011
sI1035
S'sports'
p1012
sI1036
S'us'
p1013
sI1037
S'technology'
p1014
sI1038
S'world'
p1015
sI1039
S'sports'
p1016
sI1040
S'world'
p1017
sI1041
S'business'
p1018
sI1042
S'arts'
p1019
sI1043
S'us'
p1020
sI1044
S'nyregion'
p1021
sI1045
S'nyregion'
p1022
sI1046
S'nyregion'
p1023
sI1047
S'business'
p1024
sI1048
S'nyregion'
p1025
sI1049
S'magazine'
p1026
sI1050
S'sports'
p1027
sI1051
S'us'
p1028
sI1052
S'world'
p1029
sI1053
S'us'
p1030
sI1055
S'us'
p1031
sI1056
S'us'
p1032
sI1057
S'technology'
p1033
sI1058
S'world'
p1034
sI1060
S'us'
p1035
sI1061
S'magazine'
p1036
sI1062
S'us'
p1037
sI1063
S'fashion'
p1038
sI1064
S'us'
p1039
sI1065
S'us'
p1040
sI1066
S'us'
p1041
sI1067
S'us'
p1042
sI1068
S'us'
p1043
sI1069
S'world'
p1044
sI1070
S'us'
p1045
sI1071
S'business'
p1046
sI1072
S'world'
p1047
sI1073
S'world'
p1048
sI1074
S'magazine'
p1049
sI1075
S'nyregion'
p1050
sI1076
S'world'
p1051
sI1077
S'us'
p1052
sI1078
S'nyregion'
p1053
sI1079
S'magazine'
p1054
sI1080
S'health'
p1055
sI1081
S'sports'
p1056
sI1082
S'sports'
p1057
sI1083
S'sports'
p1058
sI1084
S'sports'
p1059
sI1085
S'fashion'
p1060
sI1086
S'us'
p1061
sI1087
S'world'
p1062
sI1088
S'nyregion'
p1063
sI1089
S'world'
p1064
sI1090
S'business'
p1065
sI1091
S'magazine'
p1066
sI1092
S'sports'
p1067
sI1093
S'nyregion'
p1068
sI1094
S'world'
p1069
sI1095
S'nyregion'
p1070
sI1096
S'business'
p1071
sI1097
S'world'
p1072
sI1098
S'health'
p1073
sI1099
S'arts'
p1074
sI1100
S'business'
p1075
sI1101
S'nyregion'
p1076
sI1102
S'business'
p1077
sI1103
S'sports'
p1078
sI1104
S'sports'
p1079
sI1105
S'world'
p1080
sI1106
S'world'
p1081
sI1107
S'business'
p1082
sI1108
S'business'
p1083
sI1109
S'world'
p1084
sI1110
S'nyregion'
p1085
sI1111
S'nyregion'
p1086
sI1112
S'us'
p1087
sI1113
S'health'
p1088
sI1114
S'sports'
p1089
sI1115
S'business'
p1090
sI1116
S'books'
p1091
sI1117
S'sports'
p1092
sI1118
S'magazine'
p1093
sI1120
S'science'
p1094
sI1121
S'us'
p1095
sI1122
S'nyregion'
p1096
sI1123
S'nyregion'
p1097
sI1124
S'nyregion'
p1098
sI1125
S'world'
p1099
sI1126
S'us'
p1100
sI1127
S'business'
p1101
sI1128
S'health'
p1102
sI1130
S'fashion'
p1103
sI1131
S'business'
p1104
sI1132
S'world'
p1105
sI1133
S'health'
p1106
sI1134
S'science'
p1107
sI1135
S'sports'
p1108
sI1136
S'business'
p1109
sI1137
S'world'
p1110
sI1138
S'sports'
p1111
sI1139
S'nyregion'
p1112
sI1140
S'technology'
p1113
sI1141
S'technology'
p1114
sI1142
S'us'
p1115
sI1143
S'sports'
p1116
sI1144
S'sports'
p1117
sI1145
S'us'
p1118
sI1146
S'magazine'
p1119
sI1147
S'business'
p1120
sI1148
S'health'
p1121
sI1149
S'sports'
p1122
sI1150
S'magazine'
p1123
sI1151
S'world'
p1124
sI1152
S'nyregion'
p1125
sI1153
S'nyregion'
p1126
sI1154
S'sports'
p1127
sI1155
S'world'
p1128
sI1156
S'science'
p1129
sI1157
S'nyregion'
p1130
sI1158
S'us'
p1131
sI1159
S'sports'
p1132
sI1160
S'world'
p1133
sI1161
S'sports'
p1134
sI1162
S'sports'
p1135
sI1163
S'world'
p1136
sI1164
S'world'
p1137
sI1165
S'world'
p1138
sI1166
S'nyregion'
p1139
sI1167
S'us'
p1140
sI1168
S'fashion'
p1141
sI1169
S'arts'
p1142
sI1170
S'business'
p1143
sI1171
S'technology'
p1144
sI1172
S'world'
p1145
sI1173
S'sports'
p1146
sI1174
S'nyregion'
p1147
sI1175
S'business'
p1148
sI1176
S'technology'
p1149
sI1177
S'books'
p1150
sI1178
S'nyregion'
p1151
sI1179
S'sports'
p1152
sI1180
S'science'
p1153
sI1181
S'arts'
p1154
sI1183
S'fashion'
p1155
sI1184
S'us'
p1156
sI1185
S'world'
p1157
sI1186
S'world'
p1158
sI1187
S'sports'
p1159
sI1188
S'fashion'
p1160
sI1189
S'us'
p1161
sI1190
S'us'
p1162
sI1191
S'world'
p1163
sI1192
S'us'
p1164
sI1193
S'world'
p1165
sI1194
S'us'
p1166
sI1195
S'business'
p1167
sI1196
S'magazine'
p1168
sI1197
S'sports'
p1169
sI1198
S'fashion'
p1170
sI1199
S'fashion'
p1171
sI1200
S'us'
p1172
sI1201
S'us'
p1173
sI1202
S'world'
p1174
sI1203
S'world'
p1175
sI1204
S'sports'
p1176
sI1205
S'world'
p1177
sI1206
S'business'
p1178
sI1207
S'business'
p1179
sI1208
S'us'
p1180
sI1210
S'business'
p1181
sI1211
S'us'
p1182
sI1212
S'business'
p1183
sI1214
S'us'
p1184
sI1215
S'us'
p1185
sI1216
S'science'
p1186
sI1217
S'world'
p1187
sI1218
S'business'
p1188
sI1219
S'business'
p1189
sI1220
S'world'
p1190
sI1221
S'world'
p1191
sI1222
S'world'
p1192
sI1223
S'world'
p1193
sI1224
S'world'
p1194
sI1225
S'world'
p1195
sI1226
S'world'
p1196
sI1227
S'us'
p1197
sI1228
S'health'
p1198
sI1229
S'nyregion'
p1199
sI1230
S'nyregion'
p1200
sI1231
S'nyregion'
p1201
sI1232
S'arts'
p1202
sI1233
S'health'
p1203
sI1234
S'arts'
p1204
sI1235
S'fashion'
p1205
sI1236
S'sports'
p1206
sI1237
S'books'
p1207
sI1238
S'fashion'
p1208
sI1239
S'sports'
p1209
sI1240
S'world'
p1210
sI1241
S'technology'
p1211
sI1242
S'sports'
p1212
sI1244
S'sports'
p1213
sI1245
S'sports'
p1214
sI1246
S'sports'
p1215
sI1247
S'health'
p1216
sI1248
S'sports'
p1217
sI1249
S'magazine'
p1218
sI1250
S'business'
p1219
sI1251
S'nyregion'
p1220
sI1252
S'business'
p1221
sI1253
S'nyregion'
p1222
sI1254
S'sports'
p1223
sI1255
S'us'
p1224
sI1256
S'nyregion'
p1225
sI1257
S'world'
p1226
sI1258
S'business'
p1227
sI1259
S'books'
p1228
sI1260
S'business'
p1229
sI1261
S'sports'
p1230
sI1262
S'fashion'
p1231
sI1263
S'us'
p1232
sI1264
S'nyregion'
p1233
sI1265
S'fashion'
p1234
sI1266
S'books'
p1235
sI1267
S'technology'
p1236
sI1268
S'arts'
p1237
sI1269
S'business'
p1238
sI1270
S'us'
p1239
sI1271
S'us'
p1240
sI1272
S'world'
p1241
sI1273
S'business'
p1242
sI1275
S'nyregion'
p1243
sI1276
S'world'
p1244
sI1277
S'us'
p1245
sI1278
S'business'
p1246
sI1279
S'nyregion'
p1247
sI1280
S'science'
p1248
sI1281
S'sports'
p1249
sI1282
S'us'
p1250
sI1283
S'world'
p1251
sI1284
S'technology'
p1252
sI1285
S'technology'
p1253
sI1286
S'business'
p1254
sI1287
S'sports'
p1255
sI1288
S'nyregion'
p1256
sI1289
S'nyregion'
p1257
sI1290
S'us'
p1258
sI1291
S'us'
p1259
sI1292
S'business'
p1260
sI1293
S'us'
p1261
sI1294
S'fashion'
p1262
sI1295
S'business'
p1263
sI1296
S'business'
p1264
sI1297
S'business'
p1265
sI1298
S'business'
p1266
sI1299
S'us'
p1267
sI1300
S'us'
p1268
sI1301
S'business'
p1269
sI1302
S'nyregion'
p1270
sI1303
S'world'
p1271
sI1304
S'us'
p1272
sI1306
S'fashion'
p1273
sI1307
S'nyregion'
p1274
sI1308
S'fashion'
p1275
sI1309
S'sports'
p1276
sI1310
S'health'
p1277
sI1311
S'health'
p1278
sI1312
S'health'
p1279
sI1313
S'business'
p1280
sI1315
S'nyregion'
p1281
sI1316
S'health'
p1282
sI1317
S'fashion'
p1283
sI1318
S'business'
p1284
sI1319
S'world'
p1285
sI1320
S'world'
p1286
sI1321
S'technology'
p1287
sI1322
S'arts'
p1288
sI1323
S'sports'
p1289
sI1324
S'health'
p1290
sI1325
S'nyregion'
p1291
sI1326
S'us'
p1292
sI1327
S'world'
p1293
sI1328
S'science'
p1294
sI1329
S'health'
p1295
sI1330
S'science'
p1296
sI1331
S'sports'
p1297
sI1332
S'health'
p1298
sI1333
S'us'
p1299
sI1334
S'us'
p1300
sI1335
S'business'
p1301
sI1337
S'health'
p1302
sI1338
S'nyregion'
p1303
sI1339
S'nyregion'
p1304
sI1340
S'business'
p1305
sI1341
S'sports'
p1306
sI1342
S'nyregion'
p1307
sI1343
S'magazine'
p1308
sI1344
S'business'
p1309
sI1345
S'us'
p1310
sI1346
S'sports'
p1311
sI1347
S'sports'
p1312
sI1348
S'magazine'
p1313
sI1349
S'sports'
p1314
sI1350
S'sports'
p1315
sI1351
S'science'
p1316
sI1352
S'world'
p1317
sI1353
S'sports'
p1318
sI1354
S'technology'
p1319
sI1355
S'books'
p1320
sI1356
S'arts'
p1321
sI1357
S'business'
p1322
sI1358
S'sports'
p1323
sI1359
S'books'
p1324
sI1360
S'world'
p1325
sI1361
S'nyregion'
p1326
sI1362
S'nyregion'
p1327
sI1363
S'technology'
p1328
sI1364
S'arts'
p1329
sI1365
S'arts'
p1330
sI1366
S'health'
p1331
sI1368
S'us'
p1332
sI1369
S'magazine'
p1333
sI1370
S'world'
p1334
sI1371
S'health'
p1335
sI1372
S'business'
p1336
sI1373
S'us'
p1337
sI1374
S'us'
p1338
sI1375
S'sports'
p1339
sI1376
S'business'
p1340
sI1377
S'us'
p1341
sI1378
S'sports'
p1342
sI1379
S'world'
p1343
sI1380
S'us'
p1344
sI1381
S'us'
p1345
sI1382
S'business'
p1346
sI1383
S'technology'
p1347
sI1384
S'magazine'
p1348
sI1385
S'fashion'
p1349
sI1386
S'fashion'
p1350
sI1387
S'world'
p1351
sI1388
S'arts'
p1352
sI1389
S'fashion'
p1353
sI1390
S'us'
p1354
sI1391
S'books'
p1355
sI1392
S'us'
p1356
sI1393
S'us'
p1357
sI1394
S'business'
p1358
sI1395
S'us'
p1359
sI1396
S'magazine'
p1360
sI1397
S'health'
p1361
sI1398
S'us'
p1362
sI1399
S'arts'
p1363
sI1400
S'science'
p1364
sI1401
S'nyregion'
p1365
sI1402
S'science'
p1366
sI1403
S'us'
p1367
sI1404
S'sports'
p1368
sI1405
S'business'
p1369
sI1406
S'world'
p1370
sI1407
S'magazine'
p1371
sI1408
S'technology'
p1372
sI1410
S'fashion'
p1373
sI1411
S'us'
p1374
sI1412
S'arts'
p1375
sI1413
S'fashion'
p1376
sI1414
S'arts'
p1377
sI1415
S'us'
p1378
sI1416
S'business'
p1379
sI1417
S'nyregion'
p1380
sI1418
S'sports'
p1381
sI1419
S'magazine'
p1382
sI1420
S'technology'
p1383
sI1421
S'business'
p1384
sI1422
S'us'
p1385
sI1423
S'arts'
p1386
sI1424
S'sports'
p1387
sI1425
S'us'
p1388
sI1426
S'us'
p1389
sI1427
S'us'
p1390
sI1428
S'business'
p1391
sI1429
S'nyregion'
p1392
sI1430
S'sports'
p1393
sI1431
S'business'
p1394
sI1432
S'sports'
p1395
sI1433
S'sports'
p1396
sI1434
S'us'
p1397
sI1435
S'sports'
p1398
sI1436
S'sports'
p1399
sI1437
S'world'
p1400
sI1438
S'us'
p1401
sI1439
S'world'
p1402
sI1440
S'us'
p1403
sI1441
S'world'
p1404
sI1442
S'world'
p1405
sI1443
S'world'
p1406
sI1444
S'world'
p1407
sI1445
S'world'
p1408
sI1446
S'business'
p1409
sI1447
S'books'
p1410
sI1448
S'world'
p1411
sI1449
S'arts'
p1412
sI1450
S'books'
p1413
sI1451
S'world'
p1414
sI1452
S'business'
p1415
sI1453
S'books'
p1416
sI1454
S'business'
p1417
sI1455
S'world'
p1418
sI1456
S'us'
p1419
sI1457
S'world'
p1420
sI1458
S'nyregion'
p1421
sI1459
S'nyregion'
p1422
sI1460
S'world'
p1423
sI1461
S'sports'
p1424
sI1462
S'sports'
p1425
sI1463
S'sports'
p1426
sI1464
S'health'
p1427
sI1465
S'sports'
p1428
sI1466
S'us'
p1429
sI1467
S'technology'
p1430
sI1468
S'sports'
p1431
sI1469
S'science'
p1432
sI1470
S'us'
p1433
sI1471
S'world'
p1434
sI1472
S'world'
p1435
sI1473
S'world'
p1436
sI1474
S'technology'
p1437
sI1475
S'health'
p1438
sI1476
S'magazine'
p1439
sI1477
S'fashion'
p1440
sI1478
S'nyregion'
p1441
sI1479
S'sports'
p1442
sI1480
S'sports'
p1443
sI1481
S'nyregion'
p1444
sI1482
S'world'
p1445
sI1483
S'nyregion'
p1446
sI1484
S'world'
p1447
sI1485
S'us'
p1448
sI1486
S'us'
p1449
sI1487
S'magazine'
p1450
sI1488
S'us'
p1451
sI1489
S'world'
p1452
sI1490
S'us'
p1453
sI1491
S'business'
p1454
sI1492
S'world'
p1455
sI1493
S'world'
p1456
sI1494
S'nyregion'
p1457
sI1495
S'sports'
p1458
sI1496
S'nyregion'
p1459
sI1497
S'world'
p1460
sI1498
S'us'
p1461
sI1499
S'world'
p1462
sI1500
S'sports'
p1463
sI1501
S'us'
p1464
sI1502
S'world'
p1465
sI1503
S'sports'
p1466
sI1504
S'us'
p1467
sI1505
S'business'
p1468
sI1506
S'us'
p1469
sI1507
S'business'
p1470
sI1508
S'nyregion'
p1471
sI1509
S'sports'
p1472
sI1510
S'us'
p1473
sI1511
S'health'
p1474
sI1512
S'business'
p1475
sI1513
S'sports'
p1476
sI1514
S'us'
p1477
sI1515
S'world'
p1478
sI1516
S'us'
p1479
sI1517
S'us'
p1480
sI1518
S'science'
p1481
sI1519
S'books'
p1482
sI1520
S'science'
p1483
sI1521
S'business'
p1484
sI1522
S'nyregion'
p1485
sI1523
S'nyregion'
p1486
sI1524
S'books'
p1487
sI1525
S'science'
p1488
sI1526
S'books'
p1489
sI1527
S'nyregion'
p1490
sI1528
S'world'
p1491
sI1529
S'business'
p1492
sI1530
S'health'
p1493
sI1531
S'arts'
p1494
sI1533
S'sports'
p1495
sI1534
S'nyregion'
p1496
sI1535
S'nyregion'
p1497
sI1536
S'magazine'
p1498
sI1537
S'nyregion'
p1499
sI1538
S'business'
p1500
sI1539
S'fashion'
p1501
sI1540
S'technology'
p1502
sI1541
S'arts'
p1503
sI1542
S'business'
p1504
sI1543
S'nyregion'
p1505
sI1544
S'business'
p1506
sI1545
S'world'
p1507
sI1546
S'business'
p1508
sI1547
S'nyregion'
p1509
sI1548
S'fashion'
p1510
sI1549
S'world'
p1511
sI1550
S'fashion'
p1512
sI1551
S'nyregion'
p1513
sI1552
S'us'
p1514
sI1553
S'world'
p1515
sI1554
S'us'
p1516
sI1555
S'world'
p1517
sI1556
S'world'
p1518
sI1557
S'us'
p1519
sI1558
S'us'
p1520
sI1559
S'science'
p1521
sI1561
S'fashion'
p1522
sI1562
S'magazine'
p1523
sI1563
S'books'
p1524
sI1564
S'nyregion'
p1525
sI1565
S'arts'
p1526
sI1566
S'sports'
p1527
sI1567
S'arts'
p1528
sI1568
S'arts'
p1529
sI1569
S'nyregion'
p1530
sI1570
S'us'
p1531
sI1571
S'us'
p1532
sI1572
S'business'
p1533
sI1573
S'health'
p1534
sI1574
S'books'
p1535
sI1575
S'sports'
p1536
sI1576
S'business'
p1537
sI1577
S'world'
p1538
sI1578
S'fashion'
p1539
sI1579
S'us'
p1540
sI1580
S'fashion'
p1541
sI1581
S'business'
p1542
sI1582
S'business'
p1543
sI1583
S'us'
p1544
sI1585
S'us'
p1545
sI1586
S'business'
p1546
sI1587
S'arts'
p1547
sI1588
S'world'
p1548
sI1589
S'world'
p1549
sI1590
S'us'
p1550
sI1591
S'world'
p1551
sI1592
S'world'
p1552
sI1593
S'books'
p1553
sI1594
S'world'
p1554
sI1595
S'world'
p1555
sI1596
S'business'
p1556
sI1597
S'magazine'
p1557
sI1598
S'nyregion'
p1558
sI1599
S'books'
p1559
sI1600
S'magazine'
p1560
sI1602
S'us'
p1561
sI1603
S'business'
p1562
sI1604
S'us'
p1563
sI1605
S'world'
p1564
sI1606
S'health'
p1565
sI1607
S'us'
p1566
sI1608
S'world'
p1567
sI1609
S'sports'
p1568
sI1610
S'sports'
p1569
sI1611
S'world'
p1570
sI1612
S'nyregion'
p1571
sI1613
S'nyregion'
p1572
sI1614
S'nyregion'
p1573
sI1615
S'nyregion'
p1574
sI1616
S'nyregion'
p1575
sI1617
S'magazine'
p1576
sI1618
S'world'
p1577
sI1619
S'world'
p1578
sI1620
S'books'
p1579
sI1621
S'world'
p1580
sI1622
S'us'
p1581
sI1623
S'fashion'
p1582
sI1624
S'technology'
p1583
sI1625
S'nyregion'
p1584
sI1626
S'sports'
p1585
sI1627
S'books'
p1586
sI1628
S'sports'
p1587
sI1629
S'sports'
p1588
sI1630
S'world'
p1589
sI1631
S'books'
p1590
sI1632
S'world'
p1591
sI1633
S'us'
p1592
sI1634
S'business'
p1593
sI1635
S'arts'
p1594
sI1636
S'science'
p1595
sI1637
S'arts'
p1596
sI1638
S'science'
p1597
sI1639
S'business'
p1598
sI1640
S'arts'
p1599
sI1641
S'science'
p1600
sI1642
S'science'
p1601
sI1643
S'world'
p1602
sI1644
S'arts'
p1603
sI1645
S'business'
p1604
sI1646
S'us'
p1605
sI1647
S'science'
p1606
sI1648
S'science'
p1607
sI1649
S'us'
p1608
sI1650
S'us'
p1609
sI1651
S'magazine'
p1610
sI1652
S'health'
p1611
sI1653
S'science'
p1612
sI1654
S'world'
p1613
sI1655
S'us'
p1614
sI1656
S'magazine'
p1615
sI1657
S'arts'
p1616
sI1658
S'science'
p1617
sI1659
S'world'
p1618
sI1660
S'us'
p1619
sI1661
S'us'
p1620
sI1662
S'sports'
p1621
sI1663
S'science'
p1622
sI1664
S'science'
p1623
sI1665
S'business'
p1624
sI1666
S'science'
p1625
sI1667
S'magazine'
p1626
sI1668
S'us'
p1627
sI1669
S'us'
p1628
sI1671
S'world'
p1629
sI1672
S'science'
p1630
sI1673
S'arts'
p1631
sI1674
S'science'
p1632
sI1675
S'technology'
p1633
sI1676
S'us'
p1634
sI1677
S'science'
p1635
sI1678
S'sports'
p1636
sI1679
S'us'
p1637
sI1680
S'technology'
p1638
sI1681
S'world'
p1639
sI1682
S'books'
p1640
sI1683
S'nyregion'
p1641
sI1684
S'fashion'
p1642
sI1685
S'us'
p1643
sI1686
S'fashion'
p1644
sI1687
S'us'
p1645
sI1688
S'arts'
p1646
sI1689
S'arts'
p1647
sI1690
S'arts'
p1648
sI1691
S'arts'
p1649
sI1692
S'fashion'
p1650
sI1693
S'arts'
p1651
sI1694
S'nyregion'
p1652
sI1695
S'fashion'
p1653
sI1696
S'world'
p1654
sI1697
S'business'
p1655
sI1698
S'us'
p1656
sI1699
S'arts'
p1657
sI1700
S'science'
p1658
sI1701
S'world'
p1659
sI1702
S'business'
p1660
sI1703
S'us'
p1661
sI1704
S'nyregion'
p1662
sI1705
S'nyregion'
p1663
sI1706
S'us'
p1664
sI1707
S'business'
p1665
sI1708
S'sports'
p1666
sI1709
S'us'
p1667
sI1710
S'world'
p1668
sI1711
S'us'
p1669
sI1712
S'us'
p1670
sI1713
S'sports'
p1671
sI1714
S'us'
p1672
sI1715
S'magazine'
p1673
sI1716
S'us'
p1674
sI1717
S'world'
p1675
sI1718
S'nyregion'
p1676
sI1719
S'sports'
p1677
sI1720
S'world'
p1678
sI1721
S'us'
p1679
sI1722
S'us'
p1680
sI1723
S'sports'
p1681
sI1724
S'sports'
p1682
sI1725
S'fashion'
p1683
sI1726
S'fashion'
p1684
sI1727
S'science'
p1685
sI1728
S'world'
p1686
sI1729
S'sports'
p1687
sI1730
S'sports'
p1688
sI1731
S'world'
p1689
sI1732
S'books'
p1690
sI1734
S'world'
p1691
sI1735
S'world'
p1692
sI1736
S'sports'
p1693
sI1737
S'science'
p1694
sI1738
S'world'
p1695
sI1739
S'us'
p1696
sI1740
S'arts'
p1697
sI1741
S'arts'
p1698
sI1742
S'business'
p1699
sI1743
S'business'
p1700
sI1744
S'magazine'
p1701
sI1745
S'us'
p1702
sI1746
S'us'
p1703
sI1748
S'world'
p1704
sI1749
S'business'
p1705
sI1750
S'magazine'
p1706
sI1751
S'us'
p1707
sI1752
S'us'
p1708
sI1753
S'world'
p1709
sI1754
S'fashion'
p1710
sI1755
S'science'
p1711
sI1756
S'sports'
p1712
sI1757
S'fashion'
p1713
sI1758
S'world'
p1714
sI1759
S'sports'
p1715
sI1760
S'sports'
p1716
sI1761
S'fashion'
p1717
sI1762
S'science'
p1718
sI1763
S'us'
p1719
sI1764
S'health'
p1720
sI1765
S'world'
p1721
sI1766
S'sports'
p1722
sI1767
S'world'
p1723
sI1768
S'business'
p1724
sI1769
S'business'
p1725
sI1770
S'business'
p1726
sI1771
S'sports'
p1727
sI1772
S'world'
p1728
sI1773
S'us'
p1729
sI1774
S'world'
p1730
sI1775
S'nyregion'
p1731
sI1776
S'technology'
p1732
sI1777
S'world'
p1733
sI1778
S'us'
p1734
sI1779
S'fashion'
p1735
sI1780
S'business'
p1736
sI1781
S'business'
p1737
sI1782
S'nyregion'
p1738
sI1783
S'magazine'
p1739
sI1784
S'magazine'
p1740
sI1785
S'business'
p1741
sI1786
S'world'
p1742
sI1787
S'sports'
p1743
sI1788
S'us'
p1744
sI1789
S'magazine'
p1745
sI1790
S'arts'
p1746
sI1791
S'arts'
p1747
sI1792
S'world'
p1748
sI1793
S'world'
p1749
sI1794
S'world'
p1750
sI1795
S'sports'
p1751
sI1796
S'sports'
p1752
sI1797
S'sports'
p1753
sI1798
S'sports'
p1754
sI1799
S'sports'
p1755
sI1800
S'sports'
p1756
sI1801
S'sports'
p1757
sI1802
S'sports'
p1758
sI1803
S'sports'
p1759
sI1804
S'us'
p1760
sI1805
S'arts'
p1761
sI1806
S'us'
p1762
sI1807
S'books'
p1763
sI1808
S'science'
p1764
sI1809
S'world'
p1765
sI1810
S'business'
p1766
sI1811
S'science'
p1767
sI1812
S'science'
p1768
sI1813
S'us'
p1769
sI1814
S'books'
p1770
sI1815
S'technology'
p1771
sI1816
S'nyregion'
p1772
sI1817
S'magazine'
p1773
sI1818
S'us'
p1774
sI1819
S'nyregion'
p1775
sI1820
S'nyregion'
p1776
sI1821
S'science'
p1777
sI1822
S'nyregion'
p1778
sI1823
S'world'
p1779
sI1824
S'science'
p1780
sI1825
S'us'
p1781
sI1826
S'magazine'
p1782
sI1827
S'nyregion'
p1783
sI1828
S'science'
p1784
sI1829
S'science'
p1785
sI1830
S'business'
p1786
sI1831
S'health'
p1787
sI1832
S'world'
p1788
sI1833
S'health'
p1789
sI1834
S'us'
p1790
sI1835
S'world'
p1791
sI1836
S'world'
p1792
sI1837
S'us'
p1793
sI1838
S'arts'
p1794
sI1839
S'fashion'
p1795
sI1840
S'sports'
p1796
sI1841
S'us'
p1797
sI1842
S'sports'
p1798
sI1843
S'sports'
p1799
sI1844
S'us'
p1800
sI1845
S'world'
p1801
sI1846
S'magazine'
p1802
sI1847
S'sports'
p1803
sI1848
S'us'
p1804
sI1849
S'world'
p1805
sI1850
S'nyregion'
p1806
sI1851
S'world'
p1807
sI1852
S'nyregion'
p1808
sI1853
S'nyregion'
p1809
sI1854
S'world'
p1810
sI1855
S'business'
p1811
sI1856
S'technology'
p1812
sI1857
S'us'
p1813
sI1858
S'us'
p1814
sI1859
S'business'
p1815
sI1860
S'business'
p1816
sI1861
S'business'
p1817
sI1862
S'sports'
p1818
sI1863
S'nyregion'
p1819
sI1864
S'us'
p1820
sI1865
S'us'
p1821
sI1866
S'health'
p1822
sI1867
S'business'
p1823
sI1868
S'us'
p1824
sI1869
S'us'
p1825
sI1870
S'arts'
p1826
sI1871
S'us'
p1827
sI1872
S'sports'
p1828
sI1873
S'books'
p1829
sI1874
S'world'
p1830
sI1875
S'nyregion'
p1831
sI1876
S'business'
p1832
sI1877
S'us'
p1833
sI1878
S'world'
p1834
sI1879
S'world'
p1835
sI1880
S'magazine'
p1836
sI1881
S'sports'
p1837
sI1882
S'us'
p1838
sI1883
S'world'
p1839
sI1885
S'world'
p1840
sI1886
S'us'
p1841
sI1887
S'nyregion'
p1842
sI1888
S'sports'
p1843
sI1889
S'us'
p1844
sI1890
S'sports'
p1845
sI1891
S'us'
p1846
sI1892
S'us'
p1847
sI1894
S'magazine'
p1848
sI1895
S'nyregion'
p1849
sI1896
S'books'
p1850
sI1897
S'fashion'
p1851
sI1898
S'business'
p1852
sI1899
S'magazine'
p1853
sI1900
S'arts'
p1854
sI1901
S'science'
p1855
sI1902
S'world'
p1856
sI1903
S'nyregion'
p1857
sI1904
S'us'
p1858
sI1905
S'world'
p1859
sI1906
S'us'
p1860
sI1907
S'arts'
p1861
sI1908
S'sports'
p1862
sI1909
S'us'
p1863
sI1910
S'business'
p1864
sI1911
S'arts'
p1865
sI1912
S'world'
p1866
sI1913
S'business'
p1867
sI1914
S'sports'
p1868
sI1915
S'world'
p1869
sI1916
S'us'
p1870
sI1917
S'business'
p1871
sI1918
S'business'
p1872
sI1919
S'technology'
p1873
sI1920
S'magazine'
p1874
sI1921
S'fashion'
p1875
sI1922
S'technology'
p1876
sI1923
S'nyregion'
p1877
sI1924
S'business'
p1878
sI1925
S'business'
p1879
sI1926
S'world'
p1880
sI1927
S'world'
p1881
sI1928
S'nyregion'
p1882
sI1929
S'business'
p1883
sI1930
S'us'
p1884
sI1931
S'us'
p1885
sI1932
S'business'
p1886
sI1933
S'world'
p1887
sI1934
S'world'
p1888
sI1935
S'us'
p1889
sI1936
S'us'
p1890
sI1937
S'us'
p1891
sI1938
S'us'
p1892
sI1939
S'world'
p1893
sI1940
S'fashion'
p1894
sI1941
S'us'
p1895
sI1942
S'arts'
p1896
sI1943
S'world'
p1897
sI1945
S'us'
p1898
sI1946
S'world'
p1899
sI1947
S'us'
p1900
sI1948
S'world'
p1901
sI1949
S'world'
p1902
sI1950
S'world'
p1903
sI1951
S'nyregion'
p1904
sI1952
S'world'
p1905
sI1953
S'business'
p1906
sI1954
S'us'
p1907
sI1955
S'us'
p1908
sI1956
S'business'
p1909
sI1957
S'science'
p1910
sI1958
S'arts'
p1911
sI1959
S'world'
p1912
sI1960
S'business'
p1913
sI1962
S'business'
p1914
sI1963
S'books'
p1915
sI1964
S'us'
p1916
sI1965
S'science'
p1917
sI1966
S'us'
p1918
sI1967
S'technology'
p1919
sI1968
S'us'
p1920
sI1969
S'us'
p1921
sI1970
S'us'
p1922
sI1971
S'world'
p1923
sI1972
S'arts'
p1924
sI1973
S'us'
p1925
sI1974
S'nyregion'
p1926
sI1975
S'business'
p1927
sI1976
S'business'
p1928
sI1977
S'world'
p1929
sI1978
S'health'
p1930
sI1979
S'sports'
p1931
sI1980
S'us'
p1932
sI1981
S'us'
p1933
sI1982
S'sports'
p1934
sI1983
S'business'
p1935
sI1984
S'us'
p1936
sI1985
S'us'
p1937
sI1986
S'sports'
p1938
sI1987
S'world'
p1939
sI1988
S'health'
p1940
sI1989
S'world'
p1941
sI1990
S'science'
p1942
sI1991
S'arts'
p1943
sI1993
S'books'
p1944
sI1994
S'arts'
p1945
sI1995
S'business'
p1946
sI1996
S'nyregion'
p1947
sI1997
S'science'
p1948
sI1998
S'nyregion'
p1949
sI1999
S'science'
p1950
sI2000
S'world'
p1951
sI2001
S'health'
p1952
sI2002
S'fashion'
p1953
sI2003
S'us'
p1954
sI2004
S'world'
p1955
sI2005
S'business'
p1956
sI2006
S'business'
p1957
sI2007
S'arts'
p1958
sI2008
S'sports'
p1959
sI2009
S'magazine'
p1960
sI2010
S'us'
p1961
sI2011
S'us'
p1962
sI2012
S'world'
p1963
sI2013
S'world'
p1964
sI2014
S'world'
p1965
sI2016
S'science'
p1966
sI2017
S'business'
p1967
sI2018
S'world'
p1968
sI2019
S'science'
p1969
sI2020
S'sports'
p1970
sI2021
S'health'
p1971
sI2022
S'sports'
p1972
sI2023
S'world'
p1973
sI2024
S'us'
p1974
sI2025
S'us'
p1975
sI2026
S'us'
p1976
sI2027
S'us'
p1977
sI2028
S'us'
p1978
sI2029
S'business'
p1979
sI2030
S'us'
p1980
sI2031
S'us'
p1981
sI2032
S'technology'
p1982
sI2033
S'nyregion'
p1983
sI2034
S'us'
p1984
sI2035
S'technology'
p1985
sI2036
S'books'
p1986
sI2037
S'technology'
p1987
sI2038
S'us'
p1988
sI2039
S'business'
p1989
sI2040
S'us'
p1990
sI2041
S'business'
p1991
sI2042
S'business'
p1992
sI2043
S'arts'
p1993
sI2044
S'arts'
p1994
sI2045
S'business'
p1995
sI2046
S'arts'
p1996
sI2047
S'business'
p1997
sI2048
S'arts'
p1998
sI2049
S'technology'
p1999
sI2050
S'us'
p2000
sI2051
S'us'
p2001
sI2052
S'us'
p2002
sI2053
S'health'
p2003
sI2054
S'us'
p2004
sI2055
S'nyregion'
p2005
sI2056
S'world'
p2006
sI2057
S'world'
p2007
sI2058
S'health'
p2008
sI2059
S'magazine'
p2009
sI2060
S'nyregion'
p2010
sI2061
S'us'
p2011
sI2062
S'arts'
p2012
sI2063
S'fashion'
p2013
sI2064
S'fashion'
p2014
sI2065
S'us'
p2015
sI2066
S'us'
p2016
sI2067
S'us'
p2017
sI2068
S'fashion'
p2018
sI2069
S'us'
p2019
sI2070
S'fashion'
p2020
sI2071
S'health'
p2021
sI2072
S'arts'
p2022
sI2073
S'world'
p2023
sI2074
S'us'
p2024
sI2075
S'fashion'
p2025
sI2076
S'technology'
p2026
sI2077
S'us'
p2027
sI2078
S'technology'
p2028
sI2079
S'us'
p2029
sI2080
S'business'
p2030
sI2081
S'arts'
p2031
sI2082
S'arts'
p2032
sI2083
S'business'
p2033
sI2084
S'nyregion'
p2034
sI2085
S'health'
p2035
sI2086
S'books'
p2036
sI2087
S'business'
p2037
sI2088
S'sports'
p2038
sI2089
S'us'
p2039
sI2090
S'arts'
p2040
sI2091
S'arts'
p2041
sI2092
S'magazine'
p2042
sI2093
S'us'
p2043
sI2094
S'fashion'
p2044
sI2095
S'sports'
p2045
sI2096
S'magazine'
p2046
sI2097
S'magazine'
p2047
sI2098
S'science'
p2048
sI2099
S'arts'
p2049
sI2100
S'world'
p2050
sI2101
S'sports'
p2051
sI2102
S'sports'
p2052
sI2103
S'us'
p2053
sI2104
S'nyregion'
p2054
sI2106
S'world'
p2055
sI2107
S'health'
p2056
sI2108
S'magazine'
p2057
sI2109
S'sports'
p2058
sI2110
S'nyregion'
p2059
sI2111
S'arts'
p2060
sI2112
S'us'
p2061
sI2113
S'world'
p2062
sI2114
S'nyregion'
p2063
sI2115
S'us'
p2064
sI2116
S'sports'
p2065
sI2117
S'nyregion'
p2066
sI2118
S'world'
p2067
sI2119
S'nyregion'
p2068
sI2120
S'technology'
p2069
sI2121
S'business'
p2070
sI2122
S'books'
p2071
sI2123
S'nyregion'
p2072
sI2124
S'us'
p2073
sI2125
S'sports'
p2074
sI2126
S'science'
p2075
sI2127
S'us'
p2076
sI2128
S'us'
p2077
sI2129
S'business'
p2078
sI2130
S'world'
p2079
sI2131
S'fashion'
p2080
sI2132
S'world'
p2081
sI2133
S'magazine'
p2082
sI2134
S'arts'
p2083
sI2135
S'us'
p2084
sI2136
S'magazine'
p2085
sI2137
S'us'
p2086
sI2138
S'world'
p2087
sI2139
S'technology'
p2088
sI2140
S'science'
p2089
sI2141
S'nyregion'
p2090
sI2142
S'world'
p2091
sI2143
S'business'
p2092
sI2144
S'fashion'
p2093
sI2145
S'arts'
p2094
sI2146
S'us'
p2095
sI2147
S'us'
p2096
sI2148
S'magazine'
p2097
sI2149
S'us'
p2098
sI2150
S'us'
p2099
sI2151
S'business'
p2100
sI2152
S'world'
p2101
sI2153
S'fashion'
p2102
sI2154
S'business'
p2103
sI2155
S'sports'
p2104
sI2156
S'us'
p2105
sI2157
S'business'
p2106
sI2158
S'us'
p2107
sI2159
S'magazine'
p2108
sI2160
S'business'
p2109
sI2161
S'sports'
p2110
sI2162
S'fashion'
p2111
sI2163
S'books'
p2112
sI2164
S'business'
p2113
sI2165
S'us'
p2114
sI2166
S'sports'
p2115
sI2167
S'us'
p2116
sI2168
S'us'
p2117
sI2169
S'sports'
p2118
sI2170
S'nyregion'
p2119
sI2171
S'books'
p2120
sI2172
S'us'
p2121
sI2173
S'nyregion'
p2122
sI2174
S'us'
p2123
sI2175
S'us'
p2124
sI2176
S'us'
p2125
sI2177
S'nyregion'
p2126
sI2178
S'business'
p2127
sI2179
S'nyregion'
p2128
sI2180
S'us'
p2129
sI2181
S'nyregion'
p2130
sI2182
S'business'
p2131
sI2183
S'fashion'
p2132
sI2184
S'us'
p2133
sI2185
S'sports'
p2134
sI2186
S'nyregion'
p2135
sI2187
S'nyregion'
p2136
sI2188
S'nyregion'
p2137
sI2189
S'world'
p2138
sI2190
S'business'
p2139
sI2191
S'arts'
p2140
sI2192
S'sports'
p2141
sI2193
S'nyregion'
p2142
sI2194
S'us'
p2143
sI2195
S'nyregion'
p2144
sI2197
S'world'
p2145
sI2198
S'business'
p2146
sI2199
S'us'
p2147
sI2200
S'books'
p2148
sI2201
S'nyregion'
p2149
sI2202
S'nyregion'
p2150
sI2203
S'business'
p2151
sI2204
S'nyregion'
p2152
sI2205
S'sports'
p2153
sI2206
S'sports'
p2154
sI2207
S'fashion'
p2155
sI2208
S'us'
p2156
sI2209
S'us'
p2157
sI2210
S'world'
p2158
sI2211
S'sports'
p2159
sI2213
S'nyregion'
p2160
sI2214
S'us'
p2161
sI2215
S'sports'
p2162
sI2216
S'nyregion'
p2163
sI2217
S'us'
p2164
sI2218
S'nyregion'
p2165
sI2219
S'us'
p2166
sI2220
S'us'
p2167
sI2221
S'nyregion'
p2168
sI2222
S'sports'
p2169
sI2223
S'world'
p2170
sI2224
S'nyregion'
p2171
sI2225
S'nyregion'
p2172
sI2226
S'arts'
p2173
sI2227
S'us'
p2174
sI2228
S'sports'
p2175
sI2229
S'books'
p2176
sI2230
S'nyregion'
p2177
sI2231
S'world'
p2178
sI2232
S'nyregion'
p2179
sI2233
S'nyregion'
p2180
sI2234
S'books'
p2181
sI2235
S'books'
p2182
sI2236
S'sports'
p2183
sI2237
S'business'
p2184
sI2238
S'us'
p2185
sI2239
S'fashion'
p2186
sI2240
S'us'
p2187
sI2241
S'nyregion'
p2188
sI2242
S'nyregion'
p2189
sI2243
S'fashion'
p2190
sI2244
S'us'
p2191
sI2245
S'sports'
p2192
sI2246
S'sports'
p2193
sI2247
S'sports'
p2194
sI2248
S'us'
p2195
sI2249
S'science'
p2196
sI2250
S'science'
p2197
sI2251
S'sports'
p2198
sI2252
S'business'
p2199
sI2253
S'magazine'
p2200
sI2254
S'world'
p2201
sI2255
S'business'
p2202
sI2256
S'business'
p2203
sI2257
S'world'
p2204
sI2258
S'world'
p2205
sI2259
S'world'
p2206
sI2260
S'world'
p2207
sI2261
S'sports'
p2208
sI2262
S'nyregion'
p2209
sI2263
S'world'
p2210
sI2264
S'nyregion'
p2211
sI2266
S'world'
p2212
sI2267
S'world'
p2213
sI2268
S'world'
p2214
sI2269
S'world'
p2215
sI2270
S'world'
p2216
sI2271
S'business'
p2217
sI2272
S'world'
p2218
sI2273
S'world'
p2219
sI2274
S'world'
p2220
sI2275
S'world'
p2221
sI2276
S'world'
p2222
sI2277
S'world'
p2223
sI2278
S'world'
p2224
sI2279
S'nyregion'
p2225
sI2280
S'sports'
p2226
sI2281
S'world'
p2227
sI2282
S'business'
p2228
sI2283
S'us'
p2229
sI2284
S'world'
p2230
sI2285
S'us'
p2231
sI2286
S'sports'
p2232
sI2287
S'us'
p2233
sI2288
S'world'
p2234
sI2289
S'world'
p2235
sI2290
S'business'
p2236
sI2291
S'sports'
p2237
sI2292
S'us'
p2238
sI2293
S'us'
p2239
sI2294
S'world'
p2240
sI2295
S'arts'
p2241
sI2296
S'business'
p2242
sI2297
S'world'
p2243
sI2298
S'science'
p2244
sI2299
S'world'
p2245
sI2300
S'world'
p2246
sI2301
S'us'
p2247
sI2302
S'us'
p2248
sI2303
S'nyregion'
p2249
sI2304
S'sports'
p2250
sI2305
S'science'
p2251
sI2306
S'world'
p2252
sI2307
S'magazine'
p2253
sI2308
S'sports'
p2254
sI2309
S'health'
p2255
sI2310
S'nyregion'
p2256
sI2311
S'sports'
p2257
sI2312
S'sports'
p2258
sI2313
S'us'
p2259
sI2314
S'fashion'
p2260
sI2315
S'business'
p2261
sI2316
S'magazine'
p2262
sI2317
S'books'
p2263
sI2318
S'sports'
p2264
sI2319
S'world'
p2265
sI2320
S'world'
p2266
sI2321
S'sports'
p2267
sI2322
S'magazine'
p2268
sI2323
S'us'
p2269
sI2324
S'us'
p2270
sI2325
S'world'
p2271
sI2326
S'us'
p2272
sI2327
S'business'
p2273
sI2328
S'world'
p2274
sI2329
S'business'
p2275
sI2330
S'us'
p2276
sI2331
S'nyregion'
p2277
sI2336
S'technology'
p2278
sI2337
S'arts'
p2279
sI2338
S'arts'
p2280
sI2339
S'fashion'
p2281
sI2340
S'us'
p2282
sI2342
S'us'
p2283
sI2343
S'sports'
p2284
sI2344
S'magazine'
p2285
sI2345
S'technology'
p2286
sI2346
S'sports'
p2287
sI2347
S'world'
p2288
sI2348
S'arts'
p2289
sI2349
S'us'
p2290
sI2350
S'sports'
p2291
sI2351
S'business'
p2292
sI2352
S'business'
p2293
sI2353
S'us'
p2294
sI2354
S'health'
p2295
sI2355
S'nyregion'
p2296
sI2356
S'us'
p2297
sI2357
S'sports'
p2298
sI2358
S'sports'
p2299
sI2359
S'us'
p2300
sI2360
S'us'
p2301
sI2361
S'us'
p2302
sI2362
S'us'
p2303
sI2363
S'fashion'
p2304
sI2364
S'arts'
p2305
sI2366
S'world'
p2306
sI2367
S'sports'
p2307
sI2368
S'arts'
p2308
sI2369
S'books'
p2309
sI2370
S'arts'
p2310
sI2371
S'business'
p2311
sI2372
S'nyregion'
p2312
sI2373
S'sports'
p2313
sI2374
S'us'
p2314
sI2375
S'business'
p2315
sI2376
S'business'
p2316
sI2377
S'books'
p2317
sI2378
S'sports'
p2318
sI2379
S'magazine'
p2319
sI2380
S'health'
p2320
sI2381
S'science'
p2321
sI2382
S'technology'
p2322
sI2383
S'magazine'
p2323
sI2384
S'world'
p2324
sI2385
S'fashion'
p2325
sI2387
S'sports'
p2326
sI2388
S'world'
p2327
sI2389
S'us'
p2328
sI2390
S'world'
p2329
sI2391
S'nyregion'
p2330
sI2392
S'business'
p2331
sI2393
S'us'
p2332
sI2394
S'us'
p2333
sI2395
S'sports'
p2334
sI2396
S'business'
p2335
sI2397
S'us'
p2336
sI2398
S'us'
p2337
sI2399
S'world'
p2338
sI2400
S'business'
p2339
sI2401
S'us'
p2340
sI2402
S'world'
p2341
sI2403
S'world'
p2342
sI2404
S'world'
p2343
sI2405
S'us'
p2344
sI2406
S'nyregion'
p2345
sI2408
S'us'
p2346
sI2409
S'world'
p2347
sI2410
S'nyregion'
p2348
sI2411
S'health'
p2349
sI2412
S'nyregion'
p2350
sI2413
S'science'
p2351
sI2414
S'business'
p2352
sI2415
S'sports'
p2353
sI2416
S'nyregion'
p2354
sI2417
S'us'
p2355
sI2418
S'business'
p2356
sI2419
S'business'
p2357
sI2420
S'world'
p2358
sI2421
S'world'
p2359
sI2422
S'nyregion'
p2360
sI2423
S'world'
p2361
sI2424
S'health'
p2362
sI2425
S'world'
p2363
sI2426
S'health'
p2364
sI2427
S'fashion'
p2365
sI2428
S'world'
p2366
sI2430
S'nyregion'
p2367
sI2431
S'books'
p2368
sI2432
S'science'
p2369
sI2433
S'us'
p2370
sI2434
S'business'
p2371
sI2435
S'sports'
p2372
sI2436
S'technology'
p2373
sI2437
S'world'
p2374
sI2438
S'arts'
p2375
sI2439
S'us'
p2376
sI2440
S'fashion'
p2377
sI2441
S'science'
p2378
sI2442
S'us'
p2379
sI2443
S'us'
p2380
sI2444
S'us'
p2381
sI2445
S'us'
p2382
sI2446
S'us'
p2383
sI2447
S'us'
p2384
sI2448
S'world'
p2385
sI2449
S'us'
p2386
sI2450
S'nyregion'
p2387
sI2452
S'sports'
p2388
sI2454
S'business'
p2389
sI2455
S'business'
p2390
sI2456
S'nyregion'
p2391
sI2457
S'technology'
p2392
sI2458
S'world'
p2393
sI2459
S'magazine'
p2394
sI2460
S'arts'
p2395
sI2461
S'fashion'
p2396
sI2462
S'technology'
p2397
sI2463
S'arts'
p2398
sI2464
S'arts'
p2399
sI2465
S'books'
p2400
sI2466
S'us'
p2401
sI2467
S'nyregion'
p2402
sI2468
S'world'
p2403
sI2469
S'us'
p2404
sI2470
S'world'
p2405
sI2471
S'world'
p2406
sI2472
S'magazine'
p2407
sI2473
S'world'
p2408
sI2474
S'world'
p2409
sI2475
S'world'
p2410
sI2476
S'fashion'
p2411
sI2477
S'world'
p2412
sI2478
S'world'
p2413
sI2479
S'world'
p2414
sI2480
S'world'
p2415
sI2481
S'nyregion'
p2416
sI2482
S'world'
p2417
sI2483
S'world'
p2418
sI2484
S'world'
p2419
sI2485
S'world'
p2420
sI2486
S'books'
p2421
sI2487
S'sports'
p2422
sI2488
S'us'
p2423
sI2490
S'us'
p2424
sI2491
S'us'
p2425
sI2492
S'world'
p2426
sI2493
S'us'
p2427
sI2494
S'us'
p2428
sI2495
S'business'
p2429
sI2496
S'business'
p2430
sI2497
S'us'
p2431
sI2498
S'business'
p2432
sI2499
S'world'
p2433
sI2500
S'world'
p2434
sI2502
S'world'
p2435
sI2503
S'world'
p2436
sI2504
S'arts'
p2437
sI2505
S'us'
p2438
sI2506
S'world'
p2439
sI2507
S'us'
p2440
sI2508
S'us'
p2441
sI2509
S'fashion'
p2442
sI2510
S'sports'
p2443
sI2511
S'fashion'
p2444
sI2512
S'us'
p2445
sI2513
S'technology'
p2446
sI2514
S'us'
p2447
sI2515
S'business'
p2448
sI2516
S'world'
p2449
sI2517
S'world'
p2450
sI2518
S'us'
p2451
sI2519
S'fashion'
p2452
sI2520
S'magazine'
p2453
sI2522
S'health'
p2454
sI2523
S'us'
p2455
sI2524
S'world'
p2456
sI2525
S'world'
p2457
sI2526
S'world'
p2458
sI2527
S'business'
p2459
sI2528
S'arts'
p2460
sI2529
S'us'
p2461
sI2530
S'business'
p2462
sI2531
S'fashion'
p2463
sI2532
S'magazine'
p2464
sI2533
S'world'
p2465
sI2534
S'world'
p2466
sI2535
S'world'
p2467
sI2536
S'world'
p2468
sI2537
S'us'
p2469
sI2538
S'arts'
p2470
sI2539
S'world'
p2471
sI2540
S'world'
p2472
sI2541
S'arts'
p2473
sI2542
S'world'
p2474
sI2543
S'us'
p2475
sI2544
S'world'
p2476
sI2545
S'arts'
p2477
sI2546
S'magazine'
p2478
sI2547
S'us'
p2479
sI2548
S'world'
p2480
sI2549
S'business'
p2481
sI2550
S'world'
p2482
sI2551
S'us'
p2483
sI2552
S'nyregion'
p2484
sI2553
S'nyregion'
p2485
sI2554
S'sports'
p2486
sI2555
S'world'
p2487
sI2556
S'world'
p2488
sI2557
S'us'
p2489
sI2558
S'us'
p2490
sI2559
S'world'
p2491
sI2560
S'world'
p2492
sI2561
S'us'
p2493
sI2562
S'sports'
p2494
sI2563
S'world'
p2495
sI2564
S'magazine'
p2496
sI2565
S'science'
p2497
sI2566
S'science'
p2498
sI2568
S'magazine'
p2499
sI2569
S'magazine'
p2500
sI2570
S'world'
p2501
sI2571
S'arts'
p2502
sI2572
S'sports'
p2503
sI2573
S'magazine'
p2504
sI2574
S'sports'
p2505
sI2575
S'us'
p2506
sI2576
S'us'
p2507
sI2577
S'business'
p2508
sI2578
S'us'
p2509
sI2579
S'fashion'
p2510
sI2580
S'business'
p2511
sI2581
S'world'
p2512
sI2582
S'us'
p2513
sI2583
S'nyregion'
p2514
sI2584
S'arts'
p2515
sI2585
S'business'
p2516
sI2586
S'science'
p2517
sI2587
S'nyregion'
p2518
sI2588
S'sports'
p2519
sI2589
S'world'
p2520
sI2590
S'nyregion'
p2521
sI2591
S'world'
p2522
sI2592
S'us'
p2523
sI2594
S'business'
p2524
sI2595
S'us'
p2525
sI2596
S'magazine'
p2526
sI2597
S'business'
p2527
sI2598
S'world'
p2528
sI2599
S'business'
p2529
sI2600
S'business'
p2530
sI2601
S'science'
p2531
sI2602
S'books'
p2532
sI2603
S'us'
p2533
sI2604
S'world'
p2534
sI2605
S'business'
p2535
sI2606
S'business'
p2536
sI2607
S'world'
p2537
sI2608
S'business'
p2538
sI2609
S'nyregion'
p2539
sI2610
S'world'
p2540
sI2611
S'world'
p2541
sI2612
S'nyregion'
p2542
sI2613
S'world'
p2543
sI2614
S'world'
p2544
sI2616
S'nyregion'
p2545
sI2617
S'magazine'
p2546
sI2618
S'world'
p2547
sI2619
S'world'
p2548
sI2621
S'nyregion'
p2549
sI2622
S'world'
p2550
sI2623
S'us'
p2551
sI2624
S'fashion'
p2552
sI2625
S'world'
p2553
sI2626
S'business'
p2554
sI2627
S'fashion'
p2555
sI2628
S'business'
p2556
sI2629
S'world'
p2557
sI2630
S'nyregion'
p2558
sI2632
S'us'
p2559
sI2633
S'fashion'
p2560
sI2634
S'nyregion'
p2561
sI2635
S'fashion'
p2562
sI2636
S'us'
p2563
sI2637
S'science'
p2564
sI2638
S'science'
p2565
sI2639
S'world'
p2566
sI2640
S'business'
p2567
sI2641
S'us'
p2568
sI2642
S'magazine'
p2569
sI2643
S'sports'
p2570
sI2644
S'world'
p2571
sI2645
S'arts'
p2572
sI2646
S'technology'
p2573
sI2647
S'business'
p2574
sI2648
S'magazine'
p2575
sI2649
S'nyregion'
p2576
sI2650
S'technology'
p2577
sI2651
S'technology'
p2578
sI2652
S'books'
p2579
sI2653
S'technology'
p2580
sI2654
S'technology'
p2581
sI2655
S'technology'
p2582
sI2656
S'us'
p2583
sI2657
S'sports'
p2584
sI2658
S'us'
p2585
sI2659
S'world'
p2586
sI2660
S'sports'
p2587
sI2661
S'books'
p2588
sI2662
S'sports'
p2589
sI2663
S'business'
p2590
sI2664
S'sports'
p2591
sI2665
S'nyregion'
p2592
sI2666
S'world'
p2593
sI2667
S'technology'
p2594
sI2668
S'us'
p2595
sI2669
S'fashion'
p2596
sI2670
S'world'
p2597
sI2671
S'business'
p2598
sI2672
S'business'
p2599
sI2673
S'business'
p2600
sI2674
S'business'
p2601
sI2675
S'us'
p2602
sI2676
S'us'
p2603
sI2677
S'business'
p2604
sI2678
S'world'
p2605
sI2679
S'arts'
p2606
sI2680
S'science'
p2607
sI2681
S'us'
p2608
sI2682
S'us'
p2609
sI2683
S'fashion'
p2610
sI2684
S'arts'
p2611
sI2685
S'magazine'
p2612
sI2686
S'magazine'
p2613
sI2687
S'us'
p2614
sI2688
S'nyregion'
p2615
sI2689
S'nyregion'
p2616
sI2690
S'nyregion'
p2617
sI2692
S'world'
p2618
sI2693
S'world'
p2619
sI2694
S'world'
p2620
sI2695
S'world'
p2621
sI2696
S'science'
p2622
sI2697
S'business'
p2623
sI2698
S'arts'
p2624
sI2699
S'world'
p2625
sI2700
S'world'
p2626
sI2701
S'science'
p2627
sI2702
S'science'
p2628
sI2703
S'technology'
p2629
sI2704
S'world'
p2630
sI2705
S'books'
p2631
sI2707
S'us'
p2632
sI2708
S'us'
p2633
sI2709
S'business'
p2634
sI2710
S'sports'
p2635
sI2711
S'world'
p2636
sI2712
S'business'
p2637
sI2713
S'business'
p2638
sI2714
S'sports'
p2639
sI2715
S'nyregion'
p2640
sI2716
S'business'
p2641
sI2717
S'business'
p2642
sI2718
S'business'
p2643
sI2719
S'business'
p2644
sI2720
S'us'
p2645
sI2722
S'us'
p2646
sI2723
S'nyregion'
p2647
sI2724
S'us'
p2648
sI2725
S'science'
p2649
sI2726
S'business'
p2650
sI2727
S'business'
p2651
sI2729
S'sports'
p2652
sI2730
S'us'
p2653
sI2731
S'us'
p2654
sI2733
S'sports'
p2655
sI2734
S'sports'
p2656
sI2735
S'us'
p2657
sI2737
S'business'
p2658
sI2738
S'sports'
p2659
sI2739
S'sports'
p2660
sI2740
S'world'
p2661
sI2741
S'us'
p2662
sI2742
S'world'
p2663
sI2743
S'sports'
p2664
sI2744
S'nyregion'
p2665
sI2745
S'business'
p2666
sI2746
S'us'
p2667
sI2747
S'magazine'
p2668
sI2748
S'world'
p2669
sI2749
S'business'
p2670
sI2750
S'us'
p2671
sI2751
S'world'
p2672
sI2752
S'business'
p2673
sI2753
S'world'
p2674
sI2754
S'us'
p2675
sI2755
S'nyregion'
p2676
sI2756
S'us'
p2677
sI2758
S'nyregion'
p2678
sI2759
S'us'
p2679
sI2760
S'business'
p2680
sI2761
S'us'
p2681
sI2762
S'world'
p2682
sI2763
S'us'
p2683
sI2764
S'nyregion'
p2684
sI2765
S'world'
p2685
sI2766
S'world'
p2686
sI2767
S'business'
p2687
sI2768
S'magazine'
p2688
sI2769
S'nyregion'
p2689
sI2770
S'science'
p2690
sI2771
S'us'
p2691
sI2772
S'world'
p2692
sI2773
S'books'
p2693
sI2774
S'world'
p2694
sI2776
S'us'
p2695
sI2777
S'world'
p2696
sI2778
S'books'
p2697
sI2779
S'business'
p2698
sI2780
S'world'
p2699
sI2781
S'us'
p2700
sI2782
S'arts'
p2701
sI2783
S'business'
p2702
sI2784
S'health'
p2703
sI2785
S'fashion'
p2704
sI2786
S'us'
p2705
sI2787
S'technology'
p2706
sI2788
S'science'
p2707
sI2789
S'magazine'
p2708
sI2790
S'world'
p2709
sI2791
S'world'
p2710
sI2792
S'world'
p2711
sI2793
S'business'
p2712
sI2794
S'business'
p2713
sI2795
S'health'
p2714
sI2796
S'sports'
p2715
sI2797
S'us'
p2716
sI2798
S'nyregion'
p2717
sI2799
S'nyregion'
p2718
sI2800
S'nyregion'
p2719
sI2801
S'nyregion'
p2720
sI2802
S'arts'
p2721
sI2803
S'world'
p2722
sI2804
S'us'
p2723
sI2805
S'business'
p2724
sI2806
S'science'
p2725
sI2807
S'us'
p2726
sI2808
S'sports'
p2727
sI2809
S'sports'
p2728
sI2810
S'sports'
p2729
sI2811
S'fashion'
p2730
sI2812
S'world'
p2731
sI2813
S'arts'
p2732
sI2814
S'world'
p2733
sI2815
S'world'
p2734
sI2816
S'world'
p2735
sI2817
S'sports'
p2736
sI2818
S'world'
p2737
sI2819
S'business'
p2738
sI2820
S'sports'
p2739
sI2821
S'books'
p2740
sI2822
S'us'
p2741
sI2823
S'us'
p2742
sI2824
S'world'
p2743
sI2825
S'us'
p2744
sI2826
S'nyregion'
p2745
sI2827
S'nyregion'
p2746
sI2828
S'world'
p2747
sI2829
S'world'
p2748
sI2830
S'sports'
p2749
sI2831
S'health'
p2750
sI2832
S'books'
p2751
sI2833
S'health'
p2752
sI2834
S'us'
p2753
sI2835
S'arts'
p2754
sI2836
S'fashion'
p2755
sI2837
S'arts'
p2756
sI2838
S'us'
p2757
sI2839
S'fashion'
p2758
sI2840
S'magazine'
p2759
sI2841
S'us'
p2760
sI2842
S'fashion'
p2761
sI2843
S'nyregion'
p2762
sI2844
S'books'
p2763
sI2845
S'health'
p2764
sI2846
S'arts'
p2765
sI2847
S'technology'
p2766
sI2848
S'nyregion'
p2767
sI2849
S'sports'
p2768
sI2850
S'us'
p2769
sI2851
S'us'
p2770
sI2852
S'science'
p2771
sI2853
S'nyregion'
p2772
sI2854
S'us'
p2773
sI2855
S'us'
p2774
sI2856
S'health'
p2775
sI2857
S'world'
p2776
sI2858
S'us'
p2777
sI2859
S'us'
p2778
sI2860
S'us'
p2779
sI2861
S'nyregion'
p2780
sI2862
S'world'
p2781
sI2863
S'sports'
p2782
sI2864
S'us'
p2783
sI2865
S'science'
p2784
sI2866
S'business'
p2785
sI2867
S'world'
p2786
sI2868
S'world'
p2787
sI2869
S'us'
p2788
sI2870
S'world'
p2789
sI2871
S'technology'
p2790
sI2872
S'world'
p2791
sI2873
S'us'
p2792
sI2874
S'world'
p2793
sI2875
S'books'
p2794
sI2876
S'business'
p2795
sI2877
S'world'
p2796
sI2878
S'books'
p2797
sI2879
S'science'
p2798
sI2880
S'us'
p2799
sI2881
S'technology'
p2800
sI2882
S'nyregion'
p2801
sI2883
S'technology'
p2802
sI2884
S'technology'
p2803
sI2885
S'sports'
p2804
sI2886
S'nyregion'
p2805
sI2888
S'arts'
p2806
sI2889
S'us'
p2807
sI2890
S'nyregion'
p2808
sI2891
S'magazine'
p2809
sI2892
S'world'
p2810
sI2893
S'business'
p2811
sI2894
S'fashion'
p2812
sI2895
S'us'
p2813
sI2896
S'books'
p2814
sI2897
S'world'
p2815
sI2898
S'sports'
p2816
sI2899
S'books'
p2817
sI2900
S'us'
p2818
sI2901
S'us'
p2819
sI2902
S'arts'
p2820
sI2903
S'business'
p2821
sI2904
S'business'
p2822
sI2905
S'us'
p2823
sI2906
S'business'
p2824
sI2907
S'magazine'
p2825
sI2908
S'us'
p2826
sI2909
S'arts'
p2827
sI2910
S'sports'
p2828
sI2911
S'business'
p2829
sI2912
S'us'
p2830
sI2913
S'us'
p2831
sI2914
S'world'
p2832
sI2915
S'us'
p2833
sI2917
S'us'
p2834
sI2918
S'world'
p2835
sI2919
S'us'
p2836
sI2920
S'us'
p2837
sI2921
S'sports'
p2838
sI2922
S'sports'
p2839
sI2923
S'us'
p2840
sI2924
S'magazine'
p2841
sI2925
S'business'
p2842
sI2926
S'us'
p2843
sI2927
S'us'
p2844
sI2928
S'sports'
p2845
sI2929
S'business'
p2846
sI2930
S'us'
p2847
sI2931
S'world'
p2848
sI2932
S'us'
p2849
sI2933
S'world'
p2850
sI2934
S'us'
p2851
sI2935
S'us'
p2852
sI2936
S'world'
p2853
sI2937
S'health'
p2854
sI2938
S'sports'
p2855
sI2939
S'us'
p2856
sI2940
S'nyregion'
p2857
sI2941
S'us'
p2858
sI2943
S'us'
p2859
sI2944
S'health'
p2860
sI2945
S'nyregion'
p2861
sI2946
S'us'
p2862
sI2947
S'us'
p2863
sI2948
S'technology'
p2864
sI2949
S'nyregion'
p2865
sI2950
S'world'
p2866
sI2951
S'world'
p2867
sI2952
S'us'
p2868
sI2953
S'fashion'
p2869
sI2954
S'fashion'
p2870
sI2955
S'us'
p2871
sI2956
S'world'
p2872
sI2957
S'us'
p2873
sI2958
S'us'
p2874
sI2959
S'sports'
p2875
sI2960
S'world'
p2876
sI2961
S'nyregion'
p2877
sI2962
S'us'
p2878
sI2964
S'arts'
p2879
sI2965
S'books'
p2880
sI2966
S'books'
p2881
sI2967
S'world'
p2882
sI2968
S'sports'
p2883
sI2969
S'business'
p2884
sI2970
S'world'
p2885
sI2971
S'arts'
p2886
sI2972
S'science'
p2887
sI2973
S'sports'
p2888
sI2974
S'sports'
p2889
sI2975
S'sports'
p2890
sI2977
S'us'
p2891
sI2979
S'nyregion'
p2892
sI2980
S'us'
p2893
sI2981
S'business'
p2894
sI2982
S'us'
p2895
sI2983
S'magazine'
p2896
sI2984
S'us'
p2897
sI2985
S'business'
p2898
sI2986
S'us'
p2899
sI2987
S'business'
p2900
sI2988
S'us'
p2901
sI2989
S'nyregion'
p2902
sI2990
S'sports'
p2903
sI2991
S'arts'
p2904
sI2992
S'nyregion'
p2905
sI2993
S'business'
p2906
sI2994
S'us'
p2907
sI2995
S'us'
p2908
sI2996
S'business'
p2909
sI2997
S'business'
p2910
sI2998
S'nyregion'
p2911
sI2999
S'nyregion'
p2912
sI3000
S'health'
p2913
sI3001
S'business'
p2914
sI3002
S'business'
p2915
sI3003
S'nyregion'
p2916
sI3004
S'fashion'
p2917
sI3005
S'technology'
p2918
sI3006
S'arts'
p2919
sI3007
S'science'
p2920
sI3008
S'arts'
p2921
sI3009
S'nyregion'
p2922
sI3010
S'us'
p2923
sI3011
S'us'
p2924
sI3012
S'arts'
p2925
sI3013
S'magazine'
p2926
sI3014
S'nyregion'
p2927
sI3015
S'business'
p2928
sI3016
S'us'
p2929
sI3017
S'fashion'
p2930
sI3018
S'nyregion'
p2931
sI3019
S'sports'
p2932
sI3020
S'science'
p2933
sI3021
S'sports'
p2934
sI3022
S'business'
p2935
sI3023
S'technology'
p2936
sI3024
S'us'
p2937
sI3025
S'business'
p2938
sI3026
S'nyregion'
p2939
sI3027
S'business'
p2940
sI3028
S'us'
p2941
sI3029
S'sports'
p2942
sI3030
S'world'
p2943
sI3031
S'world'
p2944
sI3032
S'world'
p2945
sI3033
S'nyregion'
p2946
sI3034
S'us'
p2947
sI3035
S'us'
p2948
sI3036
S'business'
p2949
sI3037
S'business'
p2950
sI3038
S'books'
p2951
sI3039
S'world'
p2952
sI3040
S'world'
p2953
sI3041
S'us'
p2954
sI3042
S'world'
p2955
sI3043
S'business'
p2956
sI3044
S'fashion'
p2957
sI3045
S'us'
p2958
sI3046
S'world'
p2959
sI3047
S'us'
p2960
sI3048
S'books'
p2961
sI3049
S'nyregion'
p2962
sI3050
S'sports'
p2963
sI3051
S'sports'
p2964
sI3052
S'us'
p2965
sI3053
S'world'
p2966
sI3054
S'world'
p2967
sI3055
S'magazine'
p2968
sI3056
S'business'
p2969
sI3057
S'us'
p2970
sI3058
S'us'
p2971
sI3059
S'us'
p2972
sI3060
S'nyregion'
p2973
sI3061
S'world'
p2974
sI3062
S'nyregion'
p2975
sI3063
S'sports'
p2976
sI3064
S'sports'
p2977
sI3065
S'nyregion'
p2978
sI3066
S'world'
p2979
sI3067
S'world'
p2980
sI3068
S'fashion'
p2981
sI3069
S'world'
p2982
sI3070
S'business'
p2983
sI3071
S'sports'
p2984
sI3072
S'nyregion'
p2985
sI3073
S'us'
p2986
sI3074
S'world'
p2987
sI3075
S'us'
p2988
sI3076
S'business'
p2989
sI3077
S'world'
p2990
sI3078
S'us'
p2991
sI3079
S'business'
p2992
sI3080
S'science'
p2993
sI3081
S'world'
p2994
sI3082
S'sports'
p2995
sI3083
S'world'
p2996
sI3084
S'world'
p2997
sI3085
S'world'
p2998
sI3086
S'business'
p2999
sI3087
S'business'
p3000
sI3088
S'business'
p3001
sI3089
S'sports'
p3002
sI3090
S'business'
p3003
sI3091
S'nyregion'
p3004
sI3092
S'us'
p3005
sI3093
S'nyregion'
p3006
sI3094
S'books'
p3007
sI3095
S'us'
p3008
sI3096
S'nyregion'
p3009
sI3097
S'fashion'
p3010
sI3098
S'us'
p3011
sI3099
S'world'
p3012
sI3100
S'books'
p3013
sI3101
S'world'
p3014
sI3102
S'world'
p3015
sI3103
S'arts'
p3016
sI3104
S'fashion'
p3017
sI3105
S'sports'
p3018
sI3106
S'nyregion'
p3019
sI3107
S'world'
p3020
sI3108
S'world'
p3021
sI3109
S'books'
p3022
sI3110
S'nyregion'
p3023
sI3111
S'us'
p3024
sI3112
S'technology'
p3025
sI3113
S'us'
p3026
sI3114
S'magazine'
p3027
sI3115
S'arts'
p3028
sI3116
S'science'
p3029
sI3117
S'us'
p3030
sI3118
S'us'
p3031
sI3119
S'magazine'
p3032
sI3120
S'us'
p3033
sI3121
S'science'
p3034
sI3122
S'business'
p3035
sI3123
S'business'
p3036
sI3124
S'nyregion'
p3037
sI3125
S'us'
p3038
sI3127
S'magazine'
p3039
sI3128
S'world'
p3040
sI3129
S'us'
p3041
sI3130
S'world'
p3042
sI3131
S'magazine'
p3043
sI3132
S'arts'
p3044
sI3133
S'business'
p3045
sI3134
S'us'
p3046
sI3135
S'us'
p3047
sI3136
S'fashion'
p3048
sI3137
S'business'
p3049
sI3138
S'world'
p3050
sI3140
S'fashion'
p3051
sI3141
S'us'
p3052
sI3142
S'books'
p3053
sI3143
S'nyregion'
p3054
sI3144
S'books'
p3055
sI3145
S'world'
p3056
sI3146
S'books'
p3057
sI3147
S'us'
p3058
sI3148
S'business'
p3059
sI3149
S'world'
p3060
sI3150
S'business'
p3061
sI3151
S'nyregion'
p3062
sI3152
S'world'
p3063
sI3153
S'magazine'
p3064
sI3154
S'business'
p3065
sI3155
S'us'
p3066
sI3156
S'world'
p3067
sI3157
S'magazine'
p3068
sI3158
S'science'
p3069
sI3159
S'business'
p3070
sI3160
S'world'
p3071
sI3161
S'magazine'
p3072
sI3162
S'business'
p3073
sI3163
S'world'
p3074
sI3164
S'magazine'
p3075
sI3165
S'us'
p3076
sI3167
S'sports'
p3077
sI3168
S'nyregion'
p3078
sI3169
S'nyregion'
p3079
sI3170
S'books'
p3080
sI3171
S'world'
p3081
sI3172
S'nyregion'
p3082
sI3173
S'magazine'
p3083
sI3174
S'business'
p3084
sI3175
S'us'
p3085
sI3176
S'business'
p3086
sI3177
S'us'
p3087
sI3178
S'world'
p3088
sI3179
S'sports'
p3089
sI3180
S'science'
p3090
sI3181
S'sports'
p3091
sI3182
S'sports'
p3092
sI3183
S'fashion'
p3093
sI3184
S'us'
p3094
sI3186
S'sports'
p3095
sI3187
S'world'
p3096
sI3188
S'nyregion'
p3097
sI3189
S'nyregion'
p3098
sI3190
S'us'
p3099
sI3191
S'world'
p3100
sI3192
S'sports'
p3101
sI3193
S'world'
p3102
sI3194
S'technology'
p3103
sI3195
S'fashion'
p3104
sI3196
S'sports'
p3105
sI3197
S'sports'
p3106
sI3198
S'sports'
p3107
sI3199
S'us'
p3108
sI3200
S'world'
p3109
sI3201
S'books'
p3110
sI3202
S'fashion'
p3111
sI3203
S'nyregion'
p3112
sI3204
S'business'
p3113
sI3205
S'arts'
p3114
sI3206
S'business'
p3115
sI3207
S'business'
p3116
sI3208
S'business'
p3117
sI3209
S'us'
p3118
sI3210
S'sports'
p3119
sI3211
S'us'
p3120
sI3212
S'nyregion'
p3121
sI3213
S'us'
p3122
sI3214
S'us'
p3123
sI3215
S'health'
p3124
sI3216
S'us'
p3125
sI3217
S'business'
p3126
sI3218
S'fashion'
p3127
sI3219
S'arts'
p3128
sI3220
S'fashion'
p3129
sI3221
S'us'
p3130
sI3222
S'business'
p3131
sI3223
S'world'
p3132
sI3224
S'world'
p3133
sI3225
S'world'
p3134
sI3226
S'nyregion'
p3135
sI3227
S'world'
p3136
sI3228
S'science'
p3137
sI3229
S'business'
p3138
sI3230
S'business'
p3139
sI3231
S'us'
p3140
sI3232
S'nyregion'
p3141
sI3233
S'us'
p3142
sI3234
S'us'
p3143
sI3235
S'us'
p3144
sI3236
S'us'
p3145
sI3237
S'science'
p3146
sI3238
S'us'
p3147
sI3239
S'world'
p3148
sI3240
S'us'
p3149
sI3241
S'us'
p3150
sI3242
S'us'
p3151
sI3243
S'us'
p3152
sI3244
S'world'
p3153
sI3245
S'world'
p3154
sI3246
S'sports'
p3155
sI3247
S'business'
p3156
sI3248
S'science'
p3157
sI3249
S'us'
p3158
sI3250
S'world'
p3159
sI3251
S'world'
p3160
sI3252
S'us'
p3161
sI3253
S'us'
p3162
sI3254
S'science'
p3163
sI3255
S'world'
p3164
sI3256
S'us'
p3165
sI3257
S'world'
p3166
sI3258
S'health'
p3167
sI3259
S'health'
p3168
sI3260
S'us'
p3169
sI3261
S'us'
p3170
sI3262
S'arts'
p3171
sI3263
S'technology'
p3172
sI3264
S'world'
p3173
sI3265
S'world'
p3174
sI3267
S'world'
p3175
sI3268
S'world'
p3176
sI3269
S'arts'
p3177
sI3270
S'world'
p3178
sI3271
S'us'
p3179
sI3272
S'world'
p3180
sI3273
S'world'
p3181
sI3274
S'world'
p3182
sI3275
S'world'
p3183
sI3276
S'world'
p3184
sI3278
S'world'
p3185
sI3279
S'world'
p3186
sI3280
S'world'
p3187
sI3281
S'world'
p3188
sI3282
S'world'
p3189
sI3283
S'sports'
p3190
sI3284
S'world'
p3191
sI3285
S'world'
p3192
sI3286
S'us'
p3193
sI3287
S'world'
p3194
sI3288
S'arts'
p3195
sI3289
S'us'
p3196
sI3290
S'world'
p3197
sI3291
S'world'
p3198
sI3292
S'world'
p3199
sI3293
S'world'
p3200
sI3294
S'world'
p3201
sI3295
S'world'
p3202
sI3296
S'world'
p3203
sI3297
S'world'
p3204
sI3298
S'us'
p3205
sI3299
S'us'
p3206
sI3300
S'technology'
p3207
sI3301
S'sports'
p3208
sI3302
S'health'
p3209
sI3303
S'arts'
p3210
sI3304
S'world'
p3211
sI3305
S'world'
p3212
sI3306
S'arts'
p3213
sI3307
S'sports'
p3214
sI3308
S'world'
p3215
sI3309
S'business'
p3216
sI3310
S'us'
p3217
sI3311
S'arts'
p3218
sI3312
S'sports'
p3219
sI3313
S'world'
p3220
sI3314
S'us'
p3221
sI3315
S'sports'
p3222
sI3316
S'nyregion'
p3223
sI3317
S'fashion'
p3224
sI3318
S'arts'
p3225
sI3319
S'business'
p3226
sI3320
S'arts'
p3227
sI3322
S'technology'
p3228
sI3323
S'science'
p3229
sI3324
S'us'
p3230
sI3325
S'us'
p3231
sI3326
S'science'
p3232
sI3327
S'technology'
p3233
sI3328
S'arts'
p3234
sI3329
S'world'
p3235
sI3330
S'sports'
p3236
sI3331
S'arts'
p3237
sI3332
S'sports'
p3238
sI3333
S'sports'
p3239
sI3334
S'sports'
p3240
sI3335
S'magazine'
p3241
sI3336
S'arts'
p3242
sI3337
S'nyregion'
p3243
sI3338
S'us'
p3244
sI3339
S'sports'
p3245
sI3340
S'nyregion'
p3246
sI3341
S'fashion'
p3247
sI3342
S'health'
p3248
sI3343
S'us'
p3249
sI3344
S'nyregion'
p3250
sI3345
S'us'
p3251
sI3346
S'us'
p3252
sI3347
S'us'
p3253
sI3348
S'world'
p3254
sI3349
S'business'
p3255
sI3350
S'us'
p3256
sI3351
S'fashion'
p3257
sI3352
S'world'
p3258
sI3353
S'us'
p3259
sI3354
S'magazine'
p3260
sI3355
S'arts'
p3261
sI3356
S'world'
p3262
sI3358
S'sports'
p3263
sI3359
S'arts'
p3264
sI3360
S'nyregion'
p3265
sI3361
S'sports'
p3266
sI3362
S'world'
p3267
sI3363
S'arts'
p3268
sI3364
S'business'
p3269
sI3365
S'business'
p3270
sI3366
S'health'
p3271
sI3367
S'magazine'
p3272
sI3368
S'books'
p3273
sI3369
S'books'
p3274
sI3370
S'books'
p3275
sI3371
S'books'
p3276
sI3372
S'business'
p3277
sI3373
S'business'
p3278
sI3374
S'sports'
p3279
sI3375
S'world'
p3280
sI3376
S'business'
p3281
sI3377
S'us'
p3282
sI3378
S'us'
p3283
sI3379
S'nyregion'
p3284
sI3380
S'business'
p3285
sI3381
S'world'
p3286
sI3382
S'nyregion'
p3287
sI3383
S'nyregion'
p3288
sI3384
S'science'
p3289
sI3385
S'arts'
p3290
sI3386
S'arts'
p3291
sI3387
S'world'
p3292
sI3389
S'health'
p3293
sI3390
S'us'
p3294
sI3391
S'arts'
p3295
sI3392
S'arts'
p3296
sI3393
S'world'
p3297
sI3394
S'business'
p3298
sI3395
S'arts'
p3299
sI3396
S'sports'
p3300
sI3398
S'world'
p3301
sI3399
S'science'
p3302
sI3401
S'fashion'
p3303
sI3402
S'nyregion'
p3304
sI3404
S'sports'
p3305
sI3405
S'us'
p3306
sI3406
S'business'
p3307
sI3407
S'us'
p3308
sI3408
S'business'
p3309
sI3409
S'us'
p3310
sI3411
S'business'
p3311
sI3412
S'nyregion'
p3312
sI3413
S'fashion'
p3313
sI3414
S'business'
p3314
sI3415
S'nyregion'
p3315
sI3416
S'world'
p3316
sI3417
S'business'
p3317
sI3418
S'business'
p3318
sI3419
S'health'
p3319
sI3420
S'health'
p3320
sI3421
S'business'
p3321
sI3422
S'world'
p3322
sI3423
S'world'
p3323
sI3424
S'fashion'
p3324
sI3425
S'fashion'
p3325
sI3426
S'books'
p3326
sI3427
S'sports'
p3327
sI3428
S'business'
p3328
sI3429
S'technology'
p3329
sI3430
S'magazine'
p3330
sI3431
S'arts'
p3331
sI3432
S'us'
p3332
sI3433
S'fashion'
p3333
sI3434
S'books'
p3334
sI3435
S'sports'
p3335
sI3436
S'magazine'
p3336
sI3437
S'us'
p3337
sI3438
S'world'
p3338
sI3439
S'business'
p3339
sI3440
S'world'
p3340
sI3441
S'world'
p3341
sI3442
S'world'
p3342
sI3443
S'nyregion'
p3343
sI3444
S'world'
p3344
sI3445
S'business'
p3345
sI3446
S'world'
p3346
sI3447
S'us'
p3347
sI3448
S'arts'
p3348
sI3449
S'fashion'
p3349
sI3450
S'sports'
p3350
sI3451
S'world'
p3351
sI3452
S'us'
p3352
sI3453
S'sports'
p3353
sI3454
S'fashion'
p3354
sI3455
S'business'
p3355
sI3456
S'health'
p3356
sI3457
S'sports'
p3357
sI3458
S'fashion'
p3358
sI3459
S'world'
p3359
sI3460
S'business'
p3360
sI3461
S'business'
p3361
sI3462
S'us'
p3362
sI3463
S'fashion'
p3363
sI3464
S'books'
p3364
sI3465
S'world'
p3365
sI3466
S'sports'
p3366
sI3467
S'world'
p3367
sI3468
S'business'
p3368
sI3469
S'nyregion'
p3369
sI3470
S'world'
p3370
sI3471
S'nyregion'
p3371
sI3473
S'technology'
p3372
sI3474
S'world'
p3373
sI3476
S'sports'
p3374
sI3477
S'business'
p3375
sI3478
S'technology'
p3376
sI3479
S'world'
p3377
sI3481
S'sports'
p3378
sI3482
S'us'
p3379
sI3483
S'arts'
p3380
sI3484
S'us'
p3381
sI3485
S'sports'
p3382
sI3486
S'us'
p3383
sI3487
S'nyregion'
p3384
sI3488
S'business'
p3385
sI3489
S'business'
p3386
sI3490
S'business'
p3387
sI3491
S'books'
p3388
sI3492
S'world'
p3389
sI3494
S'books'
p3390
sI3495
S'fashion'
p3391
sI3496
S'nyregion'
p3392
sI3497
S'business'
p3393
sI3498
S'business'
p3394
sI3499
S'us'
p3395
sI3500
S'technology'
p3396
sI3501
S'arts'
p3397
sI3502
S'business'
p3398
sI3503
S'us'
p3399
sI3504
S'us'
p3400
sI3505
S'books'
p3401
sI3506
S'fashion'
p3402
sI3507
S'world'
p3403
sI3508
S'health'
p3404
sI3509
S'sports'
p3405
sI3510
S'nyregion'
p3406
sI3511
S'world'
p3407
sI3512
S'world'
p3408
sI3513
S'magazine'
p3409
sI3514
S'fashion'
p3410
sI3515
S'books'
p3411
sI3516
S'science'
p3412
sI3517
S'world'
p3413
sI3518
S'sports'
p3414
sI3519
S'arts'
p3415
sI3520
S'business'
p3416
sI3521
S'business'
p3417
sI3522
S'arts'
p3418
sI3523
S'health'
p3419
sI3524
S'magazine'
p3420
sI3525
S'nyregion'
p3421
sI3526
S'business'
p3422
sI3527
S'us'
p3423
sI3528
S'business'
p3424
sI3529
S'world'
p3425
sI3530
S'nyregion'
p3426
sI3531
S'health'
p3427
sI3532
S'health'
p3428
sI3533
S'arts'
p3429
sI3534
S'sports'
p3430
sI3535
S'us'
p3431
sI3536
S'health'
p3432
sI3537
S'us'
p3433
sI3538
S'books'
p3434
sI3539
S'us'
p3435
sI3540
S'world'
p3436
sI3541
S'sports'
p3437
sI3542
S'health'
p3438
sI3543
S'sports'
p3439
sI3544
S'world'
p3440
sI3545
S'us'
p3441
sI3546
S'arts'
p3442
sI3548
S'business'
p3443
sI3549
S'business'
p3444
sI3550
S'business'
p3445
sI3551
S'business'
p3446
sI3552
S'us'
p3447
sI3553
S'arts'
p3448
sI3554
S'world'
p3449
sI3555
S'us'
p3450
sI3556
S'books'
p3451
sI3557
S'business'
p3452
sI3558
S'sports'
p3453
sI3559
S'business'
p3454
sI3560
S'business'
p3455
sI3561
S'sports'
p3456
sI3562
S'arts'
p3457
sI3563
S'us'
p3458
sI3564
S'us'
p3459
sI3565
S'world'
p3460
sI3566
S'business'
p3461
sI3567
S'us'
p3462
sI3568
S'nyregion'
p3463
sI3569
S'us'
p3464
sI3570
S'business'
p3465
sI3571
S'us'
p3466
sI3572
S'us'
p3467
sI3573
S'sports'
p3468
sI3574
S'us'
p3469
sI3575
S'nyregion'
p3470
sI3576
S'us'
p3471
sI3577
S'sports'
p3472
sI3578
S'nyregion'
p3473
sI3579
S'us'
p3474
sI3580
S'us'
p3475
sI3581
S'world'
p3476
sI3582
S'business'
p3477
sI3583
S'us'
p3478
sI3584
S'nyregion'
p3479
sI3586
S'world'
p3480
sI3587
S'business'
p3481
sI3588
S'business'
p3482
sI3589
S'business'
p3483
sI3590
S'business'
p3484
sI3591
S'business'
p3485
sI3592
S'sports'
p3486
sI3594
S'nyregion'
p3487
sI3595
S'world'
p3488
sI3596
S'nyregion'
p3489
sI3597
S'books'
p3490
sI3598
S'world'
p3491
sI3599
S'arts'
p3492
sI3600
S'arts'
p3493
sI3602
S'world'
p3494
sI3603
S'sports'
p3495
sI3604
S'science'
p3496
sI3605
S'world'
p3497
sI3606
S'health'
p3498
sI3607
S'books'
p3499
sI3608
S'fashion'
p3500
sI3609
S'us'
p3501
sI3610
S'nyregion'
p3502
sI3611
S'science'
p3503
sI3612
S'us'
p3504
sI3613
S'us'
p3505
sI3614
S'sports'
p3506
sI3615
S'nyregion'
p3507
sI3616
S'us'
p3508
sI3617
S'world'
p3509
sI3618
S'health'
p3510
sI3619
S'world'
p3511
sI3620
S'world'
p3512
sI3621
S'arts'
p3513
sI3622
S'us'
p3514
sI3623
S'nyregion'
p3515
sI3624
S'technology'
p3516
sI3625
S'world'
p3517
sI3626
S'world'
p3518
sI3627
S'business'
p3519
sI3629
S'us'
p3520
sI3630
S'us'
p3521
sI3631
S'us'
p3522
sI3633
S'arts'
p3523
sI3634
S'world'
p3524
sI3635
S'world'
p3525
sI3636
S'world'
p3526
sI3637
S'sports'
p3527
sI3638
S'world'
p3528
sI3639
S'us'
p3529
sI3640
S'world'
p3530
sI3641
S'world'
p3531
sI3642
S'world'
p3532
sI3643
S'world'
p3533
sI3644
S'world'
p3534
sI3645
S'arts'
p3535
sI3646
S'world'
p3536
sI3647
S'world'
p3537
sI3648
S'us'
p3538
sI3649
S'arts'
p3539
sI3651
S'world'
p3540
sI3652
S'us'
p3541
sI3653
S'us'
p3542
sI3654
S'business'
p3543
sI3655
S'world'
p3544
sI3656
S'arts'
p3545
sI3657
S'us'
p3546
sI3658
S'nyregion'
p3547
sI3659
S'us'
p3548
sI3660
S'business'
p3549
sI3661
S'us'
p3550
sI3662
S'technology'
p3551
sI3663
S'us'
p3552
sI3664
S'nyregion'
p3553
sI3665
S'us'
p3554
sI3666
S'us'
p3555
sI3667
S'world'
p3556
sI3668
S'health'
p3557
sI3669
S'us'
p3558
sI3670
S'world'
p3559
sI3671
S'nyregion'
p3560
sI3672
S'us'
p3561
sI3673
S'business'
p3562
sI3674
S'business'
p3563
sI3675
S'business'
p3564
sI3676
S'us'
p3565
sI3677
S'books'
p3566
sI3678
S'business'
p3567
sI3679
S'technology'
p3568
sI3680
S'us'
p3569
sI3681
S'health'
p3570
sI3682
S'business'
p3571
sI3683
S'business'
p3572
sI3684
S'world'
p3573
sI3685
S'business'
p3574
sI3686
S'us'
p3575
sI3687
S'nyregion'
p3576
sI3688
S'us'
p3577
sI3689
S'us'
p3578
sI3690
S'us'
p3579
sI3691
S'us'
p3580
sI3692
S'nyregion'
p3581
sI3693
S'nyregion'
p3582
sI3694
S'business'
p3583
sI3695
S'sports'
p3584
sI3696
S'world'
p3585
sI3697
S'world'
p3586
sI3698
S'business'
p3587
sI3699
S'us'
p3588
sI3700
S'sports'
p3589
sI3701
S'arts'
p3590
sI3702
S'us'
p3591
sI3703
S'health'
p3592
sI3704
S'nyregion'
p3593
sI3705
S'nyregion'
p3594
sI3706
S'fashion'
p3595
sI3707
S'sports'
p3596
sI3708
S'sports'
p3597
sI3709
S'business'
p3598
sI3710
S'sports'
p3599
sI3712
S'us'
p3600
sI3713
S'nyregion'
p3601
sI3714
S'us'
p3602
sI3716
S'sports'
p3603
sI3717
S'sports'
p3604
sI3718
S'nyregion'
p3605
sI3719
S'world'
p3606
sI3720
S'sports'
p3607
sI3721
S'us'
p3608
sI3722
S'world'
p3609
sI3724
S'magazine'
p3610
sI3725
S'us'
p3611
sI3726
S'business'
p3612
sI3727
S'sports'
p3613
sI3728
S'magazine'
p3614
sI3729
S'sports'
p3615
sI3730
S'sports'
p3616
sI3731
S'sports'
p3617
sI3732
S'world'
p3618
sI3733
S'fashion'
p3619
sI3734
S'world'
p3620
sI3735
S'us'
p3621
sI3736
S'sports'
p3622
sI3737
S'magazine'
p3623
sI3738
S'world'
p3624
sI3739
S'world'
p3625
sI3740
S'sports'
p3626
sI3741
S'books'
p3627
sI3742
S'magazine'
p3628
sI3743
S'business'
p3629
sI3744
S'arts'
p3630
sI3745
S'world'
p3631
sI3746
S'world'
p3632
sI3747
S'world'
p3633
sI3748
S'us'
p3634
sI3749
S'business'
p3635
sI3750
S'arts'
p3636
sI3751
S'world'
p3637
sI3752
S'world'
p3638
sI3753
S'sports'
p3639
sI3754
S'world'
p3640
sI3755
S'sports'
p3641
sI3756
S'us'
p3642
sI3757
S'arts'
p3643
sI3758
S'world'
p3644
sI3759
S'sports'
p3645
sI3760
S'us'
p3646
sI3761
S'sports'
p3647
sI3762
S'sports'
p3648
sI3763
S'technology'
p3649
sI3764
S'us'
p3650
sI3765
S'sports'
p3651
sI3766
S'science'
p3652
sI3767
S'business'
p3653
sI3768
S'world'
p3654
sI3769
S'business'
p3655
sI3770
S'us'
p3656
sI3771
S'world'
p3657
sI3772
S'health'
p3658
sI3773
S'health'
p3659
sI3774
S'us'
p3660
sI3775
S'nyregion'
p3661
sI3776
S'science'
p3662
sI3777
S'us'
p3663
sI3778
S'us'
p3664
sI3779
S'us'
p3665
sI3780
S'us'
p3666
sI3781
S'world'
p3667
sI3782
S'world'
p3668
sI3783
S'business'
p3669
sI3784
S'nyregion'
p3670
sI3785
S'world'
p3671
sI3786
S'world'
p3672
sI3787
S'world'
p3673
sI3788
S'world'
p3674
sI3789
S'us'
p3675
sI3790
S'nyregion'
p3676
sI3791
S'nyregion'
p3677
sI3792
S'sports'
p3678
sI3793
S'sports'
p3679
sI3794
S'science'
p3680
sI3795
S'sports'
p3681
sI3796
S'us'
p3682
sI3797
S'us'
p3683
sI3798
S'us'
p3684
sI3799
S'sports'
p3685
sI3800
S'magazine'
p3686
sI3801
S'world'
p3687
sI3802
S'us'
p3688
sI3803
S'technology'
p3689
sI3804
S'business'
p3690
sI3805
S'world'
p3691
sI3806
S'us'
p3692
sI3807
S'health'
p3693
sI3808
S'us'
p3694
sI3809
S'business'
p3695
sI3810
S'world'
p3696
sI3811
S'business'
p3697
sI3812
S'sports'
p3698
sI3813
S'us'
p3699
sI3814
S'world'
p3700
sI3815
S'us'
p3701
sI3816
S'magazine'
p3702
sI3817
S'business'
p3703
sI3818
S'world'
p3704
sI3819
S'us'
p3705
sI3820
S'nyregion'
p3706
sI3821
S'world'
p3707
sI3822
S'us'
p3708
sI3823
S'world'
p3709
sI3824
S'world'
p3710
sI3825
S'us'
p3711
sI3826
S'nyregion'
p3712
sI3827
S'business'
p3713
sI3828
S'nyregion'
p3714
sI3829
S'business'
p3715
sI3830
S'science'
p3716
sI3831
S'nyregion'
p3717
sI3832
S'fashion'
p3718
sI3833
S'business'
p3719
sI3834
S'technology'
p3720
sI3835
S'science'
p3721
sI3836
S'science'
p3722
sI3837
S'science'
p3723
sI3838
S'books'
p3724
sI3839
S'science'
p3725
sI3840
S'sports'
p3726
sI3841
S'science'
p3727
sI3842
S'us'
p3728
sI3843
S'us'
p3729
sI3844
S'us'
p3730
sI3845
S'arts'
p3731
sI3846
S'arts'
p3732
sI3848
S'science'
p3733
sI3849
S'world'
p3734
sI3850
S'technology'
p3735
sI3851
S'arts'
p3736
sI3852
S'magazine'
p3737
sI3853
S'us'
p3738
sI3854
S'business'
p3739
sI3855
S'books'
p3740
sI3856
S'us'
p3741
sI3857
S'sports'
p3742
sI3858
S'science'
p3743
sI3859
S'us'
p3744
sI3860
S'us'
p3745
sI3861
S'world'
p3746
sI3862
S'business'
p3747
sI3863
S'world'
p3748
sI3864
S'world'
p3749
sI3865
S'books'
p3750
sI3866
S'world'
p3751
sI3867
S'nyregion'
p3752
sI3868
S'business'
p3753
sI3869
S'arts'
p3754
sI3870
S'arts'
p3755
sI3871
S'nyregion'
p3756
sI3872
S'world'
p3757
sI3873
S'us'
p3758
sI3874
S'business'
p3759
sI3875
S'world'
p3760
sI3876
S'us'
p3761
sI3877
S'sports'
p3762
sI3878
S'business'
p3763
sI3879
S'world'
p3764
sI3880
S'us'
p3765
sI3881
S'us'
p3766
sI3882
S'sports'
p3767
sI3883
S'business'
p3768
sI3884
S'us'
p3769
sI3885
S'sports'
p3770
sI3886
S'nyregion'
p3771
sI3887
S'arts'
p3772
sI3888
S'sports'
p3773
sI3889
S'business'
p3774
sI3890
S'magazine'
p3775
sI3891
S'science'
p3776
sI3892
S'world'
p3777
sI3893
S'magazine'
p3778
sI3894
S'world'
p3779
sI3895
S'us'
p3780
sI3896
S'business'
p3781
sI3897
S'technology'
p3782
sI3898
S'business'
p3783
sI3899
S'sports'
p3784
sI3900
S'sports'
p3785
sI3901
S'business'
p3786
sI3902
S'business'
p3787
sI3903
S'books'
p3788
sI3904
S'world'
p3789
sI3905
S'fashion'
p3790
sI3906
S'world'
p3791
sI3907
S'business'
p3792
sI3908
S'sports'
p3793
sI3909
S'sports'
p3794
sI3910
S'nyregion'
p3795
sI3911
S'world'
p3796
sI3912
S'world'
p3797
sI3913
S'sports'
p3798
sI3914
S'world'
p3799
sI3915
S'sports'
p3800
sI3916
S'business'
p3801
sI3917
S'world'
p3802
sI3918
S'business'
p3803
sI3919
S'business'
p3804
sI3920
S'business'
p3805
sI3921
S'world'
p3806
sI3922
S'business'
p3807
sI3923
S'business'
p3808
sI3924
S'fashion'
p3809
sI3925
S'business'
p3810
sI3926
S'business'
p3811
sI3927
S'business'
p3812
sI3928
S'business'
p3813
sI3929
S'business'
p3814
sI3930
S'business'
p3815
sI3931
S'business'
p3816
sI3932
S'business'
p3817
sI3933
S'business'
p3818
sI3934
S'business'
p3819
sI3935
S'business'
p3820
sI3936
S'business'
p3821
sI3937
S'business'
p3822
sI3938
S'business'
p3823
sI3939
S'business'
p3824
sI3940
S'business'
p3825
sI3941
S'technology'
p3826
sI3942
S'us'
p3827
sI3943
S'us'
p3828
sI3944
S'business'
p3829
sI3945
S'sports'
p3830
sI3946
S'us'
p3831
sI3947
S'technology'
p3832
sI3948
S'business'
p3833
sI3949
S'business'
p3834
sI3950
S'business'
p3835
sI3951
S'arts'
p3836
sI3952
S'arts'
p3837
sI3953
S'nyregion'
p3838
sI3954
S'arts'
p3839
sI3955
S'world'
p3840
sI3956
S'nyregion'
p3841
sI3957
S'nyregion'
p3842
sI3958
S'arts'
p3843
sI3959
S'health'
p3844
sI3960
S'nyregion'
p3845
sI3961
S'world'
p3846
sI3962
S'us'
p3847
sI3963
S'health'
p3848
sI3965
S'health'
p3849
sI3966
S'magazine'
p3850
sI3967
S'world'
p3851
sI3968
S'world'
p3852
sI3969
S'health'
p3853
sI3970
S'us'
p3854
sI3971
S'sports'
p3855
sI3972
S'health'
p3856
sI3973
S'books'
p3857
sI3974
S'business'
p3858
sI3975
S'business'
p3859
sI3976
S'business'
p3860
sI3977
S'us'
p3861
sI3978
S'us'
p3862
sI3979
S'sports'
p3863
sI3980
S'us'
p3864
sI3981
S'books'
p3865
sI3982
S'business'
p3866
sI3983
S'us'
p3867
sI3984
S'world'
p3868
sI3985
S'magazine'
p3869
sI3986
S'magazine'
p3870
sI3987
S'business'
p3871
sI3988
S'nyregion'
p3872
sI3989
S'us'
p3873
sI3990
S'us'
p3874
sI3991
S'nyregion'
p3875
sI3992
S'world'
p3876
sI3993
S'world'
p3877
sI3994
S'science'
p3878
sI3995
S'nyregion'
p3879
sI3996
S'sports'
p3880
sI3997
S'business'
p3881
sI3998
S'business'
p3882
sI3999
S'arts'
p3883
sI4000
S'world'
p3884
sI4001
S'technology'
p3885
sI4002
S'world'
p3886
sI4003
S'us'
p3887
sI4004
S'sports'
p3888
sI4005
S'sports'
p3889
sI4006
S'science'
p3890
sI4007
S'world'
p3891
sI4008
S'nyregion'
p3892
sI4009
S'nyregion'
p3893
sI4010
S'us'
p3894
sI4011
S'world'
p3895
sI4012
S'business'
p3896
sI4013
S'arts'
p3897
sI4014
S'us'
p3898
sI4015
S'business'
p3899
sI4016
S'us'
p3900
sI4017
S'sports'
p3901
sI4018
S'nyregion'
p3902
sI4019
S'fashion'
p3903
sI4020
S'nyregion'
p3904
sI4022
S'business'
p3905
sI4023
S'business'
p3906
sI4024
S'us'
p3907
sI4025
S'sports'
p3908
sI4026
S'business'
p3909
sI4027
S'world'
p3910
sI4028
S'sports'
p3911
sI4029
S'technology'
p3912
sI4030
S'magazine'
p3913
sI4031
S'books'
p3914
sI4032
S'magazine'
p3915
sI4033
S'magazine'
p3916
sI4034
S'books'
p3917
sI4035
S'technology'
p3918
sI4036
S'us'
p3919
sI4037
S'us'
p3920
sI4038
S'us'
p3921
sI4039
S'world'
p3922
sI4040
S'sports'
p3923
sI4041
S'magazine'
p3924
sI4042
S'world'
p3925
sI4043
S'world'
p3926
sI4044
S'nyregion'
p3927
sI4045
S'arts'
p3928
sI4046
S'us'
p3929
sI4047
S'world'
p3930
sI4048
S'sports'
p3931
sI4049
S'world'
p3932
sI4050
S'sports'
p3933
sI4051
S'technology'
p3934
sI4052
S'us'
p3935
sI4053
S'sports'
p3936
sI4054
S'us'
p3937
sI4055
S'us'
p3938
sI4056
S'magazine'
p3939
sI4057
S'sports'
p3940
sI4058
S'us'
p3941
sI4059
S'business'
p3942
sI4060
S'world'
p3943
sI4061
S'nyregion'
p3944
sI4062
S'science'
p3945
sI4063
S'us'
p3946
sI4064
S'books'
p3947
sI4065
S'health'
p3948
sI4066
S'nyregion'
p3949
sI4067
S'sports'
p3950
sI4068
S'business'
p3951
sI4069
S'world'
p3952
sI4070
S'business'
p3953
sI4071
S'magazine'
p3954
sI4072
S'world'
p3955
sI4073
S'world'
p3956
sI4074
S'world'
p3957
sI4075
S'magazine'
p3958
sI4076
S'world'
p3959
sI4077
S'nyregion'
p3960
sI4078
S'business'
p3961
sI4079
S'technology'
p3962
sI4080
S'business'
p3963
sI4081
S'nyregion'
p3964
sI4082
S'nyregion'
p3965
sI4083
S'fashion'
p3966
sI4084
S'arts'
p3967
sI4085
S'sports'
p3968
sI4087
S'business'
p3969
sI4088
S'us'
p3970
sI4089
S'technology'
p3971
sI4090
S'world'
p3972
sI4091
S'world'
p3973
sI4092
S'us'
p3974
sI4093
S'world'
p3975
sI4094
S'business'
p3976
sI4095
S'business'
p3977
sI4096
S'us'
p3978
sI4097
S'magazine'
p3979
sI4098
S'business'
p3980
sI4099
S'sports'
p3981
sI4100
S'nyregion'
p3982
sI4101
S'us'
p3983
sI4102
S'sports'
p3984
sI4103
S'science'
p3985
sI4104
S'world'
p3986
sI4105
S'technology'
p3987
sI4106
S'world'
p3988
sI4107
S'business'
p3989
sI4108
S'arts'
p3990
sI4109
S'science'
p3991
sI4110
S'fashion'
p3992
sI4111
S'sports'
p3993
sI4112
S'us'
p3994
sI4113
S'nyregion'
p3995
sI4115
S'us'
p3996
sI4116
S'sports'
p3997
sI4117
S'arts'
p3998
sI4118
S'us'
p3999
sI4119
S'fashion'
p4000
sI4120
S'arts'
p4001
sI4122
S'business'
p4002
sI4123
S'us'
p4003
sI4124
S'technology'
p4004
sI4125
S'sports'
p4005
sI4126
S'sports'
p4006
sI4127
S'books'
p4007
sI4128
S'fashion'
p4008
sI4129
S'health'
p4009
sI4130
S'us'
p4010
sI4131
S'sports'
p4011
sI4132
S'sports'
p4012
sI4133
S'books'
p4013
sI4134
S'sports'
p4014
sI4135
S'us'
p4015
sI4136
S'world'
p4016
sI4137
S'health'
p4017
sI4138
S'world'
p4018
sI4139
S'nyregion'
p4019
sI4140
S'nyregion'
p4020
sI4141
S'business'
p4021
sI4142
S'us'
p4022
sI4143
S'nyregion'
p4023
sI4144
S'nyregion'
p4024
sI4145
S'fashion'
p4025
sI4146
S'nyregion'
p4026
sI4147
S'arts'
p4027
sI4148
S'world'
p4028
sI4149
S'technology'
p4029
sI4150
S'magazine'
p4030
sI4151
S'arts'
p4031
sI4152
S'fashion'
p4032
sI4153
S'nyregion'
p4033
sI4154
S'magazine'
p4034
sI4155
S'arts'
p4035
sI4156
S'world'
p4036
sI4157
S'world'
p4037
sI4158
S'nyregion'
p4038
sI4159
S'us'
p4039
sI4160
S'magazine'
p4040
sI4161
S'world'
p4041
sI4162
S'world'
p4042
sI4163
S'sports'
p4043
sI4164
S'health'
p4044
sI4165
S'sports'
p4045
sI4166
S'sports'
p4046
sI4167
S'world'
p4047
sI4168
S'sports'
p4048
sI4169
S'science'
p4049
sI4170
S'fashion'
p4050
sI4171
S'us'
p4051
sI4172
S'fashion'
p4052
sI4173
S'world'
p4053
sI4174
S'technology'
p4054
sI4175
S'sports'
p4055
sI4176
S'arts'
p4056
sI4177
S'arts'
p4057
sI4178
S'nyregion'
p4058
sI4179
S'science'
p4059
sI4180
S'arts'
p4060
sI4181
S'arts'
p4061
sI4182
S'nyregion'
p4062
sI4184
S'business'
p4063
sI4185
S'technology'
p4064
sI4186
S'technology'
p4065
sI4187
S'us'
p4066
sI4188
S'us'
p4067
sI4189
S'arts'
p4068
sI4190
S'business'
p4069
sI4191
S'world'
p4070
sI4192
S'us'
p4071
sI4193
S'business'
p4072
sI4194
S'arts'
p4073
sI4195
S'technology'
p4074
sI4196
S'fashion'
p4075
sI4197
S'business'
p4076
sI4198
S'world'
p4077
sI4199
S'arts'
p4078
sI4200
S'business'
p4079
sI4201
S'technology'
p4080
sI4202
S'business'
p4081
sI4203
S'books'
p4082
sI4204
S'technology'
p4083
sI4205
S'world'
p4084
sI4206
S'business'
p4085
sI4207
S'books'
p4086
sI4208
S'fashion'
p4087
sI4209
S'arts'
p4088
sI4210
S'business'
p4089
sI4211
S'us'
p4090
sI4212
S'arts'
p4091
sI4213
S'us'
p4092
sI4214
S'science'
p4093
sI4216
S'business'
p4094
sI4217
S'world'
p4095
sI4218
S'sports'
p4096
sI4219
S'fashion'
p4097
sI4220
S'fashion'
p4098
sI4221
S'health'
p4099
sI4222
S'nyregion'
p4100
sI4223
S'world'
p4101
sI4224
S'us'
p4102
sI4225
S'arts'
p4103
sI4226
S'world'
p4104
sI4227
S'science'
p4105
sI4228
S'world'
p4106
sI4229
S'business'
p4107
sI4230
S'science'
p4108
sI4231
S'us'
p4109
sI4232
S'magazine'
p4110
sI4233
S'nyregion'
p4111
sI4234
S'magazine'
p4112
sI4235
S'us'
p4113
sI4236
S'health'
p4114
sI4237
S'us'
p4115
sI4238
S'us'
p4116
sI4239
S'us'
p4117
sI4240
S'us'
p4118
sI4241
S'business'
p4119
sI4242
S'science'
p4120
sI4243
S'science'
p4121
sI4244
S'sports'
p4122
sI4245
S'world'
p4123
sI4246
S'business'
p4124
sI4247
S'nyregion'
p4125
sI4248
S'us'
p4126
sI4249
S'health'
p4127
sI4250
S'world'
p4128
sI4251
S'world'
p4129
sI4252
S'sports'
p4130
sI4253
S'nyregion'
p4131
sI4254
S'books'
p4132
sI4255
S'world'
p4133
sI4256
S'us'
p4134
sI4257
S'world'
p4135
sI4258
S'arts'
p4136
sI4259
S'world'
p4137
sI4260
S'us'
p4138
sI4262
S'business'
p4139
sI4263
S'sports'
p4140
sI4264
S'arts'
p4141
sI4265
S'fashion'
p4142
sI4266
S'business'
p4143
sI4267
S'world'
p4144
sI4269
S'world'
p4145
sI4270
S'technology'
p4146
sI4271
S'arts'
p4147
sI4272
S'business'
p4148
sI4273
S'books'
p4149
sI4275
S'us'
p4150
sI4276
S'business'
p4151
sI4277
S'sports'
p4152
sI4278
S'business'
p4153
sI4279
S'nyregion'
p4154
sI4280
S'health'
p4155
sI4281
S'sports'
p4156
sI4282
S'sports'
p4157
sI4283
S'sports'
p4158
sI4284
S'world'
p4159
sI4285
S'world'
p4160
sI4287
S'arts'
p4161
sI4288
S'nyregion'
p4162
sI4289
S'world'
p4163
sI4290
S'us'
p4164
sI4291
S'sports'
p4165
sI4292
S'magazine'
p4166
sI4293
S'sports'
p4167
sI4294
S'business'
p4168
sI4295
S'business'
p4169
sI4296
S'nyregion'
p4170
sI4297
S'science'
p4171
sI4298
S'us'
p4172
sI4299
S'fashion'
p4173
sI4300
S'health'
p4174
sI4301
S'health'
p4175
sI4302
S'us'
p4176
sI4303
S'science'
p4177
sI4304
S'nyregion'
p4178
sI4305
S'fashion'
p4179
sI4306
S'sports'
p4180
sI4307
S'business'
p4181
sI4308
S'arts'
p4182
sI4310
S'business'
p4183
sI4311
S'world'
p4184
sI4312
S'us'
p4185
sI4313
S'world'
p4186
sI4314
S'world'
p4187
sI4315
S'world'
p4188
sI4316
S'world'
p4189
sI4317
S'world'
p4190
sI4318
S'fashion'
p4191
sI4319
S'arts'
p4192
sI4320
S'technology'
p4193
sI4321
S'world'
p4194
sI4322
S'business'
p4195
sI4323
S'world'
p4196
sI4325
S'business'
p4197
sI4326
S'world'
p4198
sI4327
S'business'
p4199
sI4328
S'nyregion'
p4200
sI4329
S'science'
p4201
sI4330
S'world'
p4202
sI4331
S'sports'
p4203
sI4332
S'sports'
p4204
sI4333
S'technology'
p4205
sI4334
S'us'
p4206
sI4335
S'business'
p4207
sI4336
S'technology'
p4208
sI4337
S'sports'
p4209
sI4338
S'world'
p4210
sI4339
S'world'
p4211
sI4340
S'business'
p4212
sI4341
S'science'
p4213
sI4343
S'technology'
p4214
sI4344
S'sports'
p4215
sI4345
S'sports'
p4216
sI4346
S'magazine'
p4217
sI4347
S'business'
p4218
sI4348
S'sports'
p4219
sI4349
S'us'
p4220
sI4350
S'business'
p4221
sI4351
S'business'
p4222
sI4352
S'world'
p4223
sI4354
S'world'
p4224
sI4355
S'science'
p4225
sI4356
S'us'
p4226
sI4357
S'science'
p4227
sI4358
S'world'
p4228
sI4359
S'us'
p4229
sI4360
S'nyregion'
p4230
sI4361
S'sports'
p4231
sI4362
S'us'
p4232
sI4363
S'sports'
p4233
sI4364
S'sports'
p4234
sI4365
S'sports'
p4235
sI4366
S'sports'
p4236
sI4367
S'sports'
p4237
sI4368
S'sports'
p4238
sI4369
S'sports'
p4239
sI4370
S'sports'
p4240
sI4371
S'sports'
p4241
sI4372
S'books'
p4242
sI4373
S'us'
p4243
sI4374
S'us'
p4244
sI4375
S'sports'
p4245
sI4376
S'science'
p4246
sI4377
S'world'
p4247
sI4378
S'business'
p4248
sI4379
S'nyregion'
p4249
sI4380
S'world'
p4250
sI4382
S'world'
p4251
sI4383
S'arts'
p4252
sI4386
S'sports'
p4253
sI4387
S'health'
p4254
sI4389
S'arts'
p4255
sI4390
S'us'
p4256
sI4391
S'nyregion'
p4257
sI4392
S'health'
p4258
sI4393
S'business'
p4259
sI4394
S'world'
p4260
sI4395
S'business'
p4261
sI4396
S'nyregion'
p4262
sI4397
S'business'
p4263
sI4398
S'us'
p4264
sI4399
S'technology'
p4265
sI4400
S'sports'
p4266
sI4401
S'nyregion'
p4267
sI4402
S'sports'
p4268
sI4403
S'books'
p4269
sI4404
S'world'
p4270
sI4405
S'world'
p4271
sI4406
S'nyregion'
p4272
sI4407
S'us'
p4273
sI4408
S'us'
p4274
sI4409
S'world'
p4275
sI4410
S'world'
p4276
sI4411
S'nyregion'
p4277
sI4412
S'world'
p4278
sI4413
S'technology'
p4279
sI4414
S'world'
p4280
sI4415
S'world'
p4281
sI4416
S'world'
p4282
sI4417
S'business'
p4283
sI4418
S'us'
p4284
sI4419
S'sports'
p4285
sI4420
S'nyregion'
p4286
sI4421
S'us'
p4287
sI4422
S'us'
p4288
sI4423
S'world'
p4289
sI4424
S'business'
p4290
sI4425
S'world'
p4291
sI4426
S'business'
p4292
sI4427
S'us'
p4293
sI4428
S'world'
p4294
sI4429
S'nyregion'
p4295
sI4430
S'us'
p4296
sI4431
S'sports'
p4297
sI4432
S'us'
p4298
sI4433
S'world'
p4299
sI4434
S'world'
p4300
sI4435
S'us'
p4301
sI4436
S'world'
p4302
sI4437
S'science'
p4303
sI4438
S'sports'
p4304
sI4439
S'nyregion'
p4305
sI4440
S'business'
p4306
sI4441
S'science'
p4307
sI4443
S'health'
p4308
sI4444
S'world'
p4309
sI4445
S'sports'
p4310
sI4446
S'world'
p4311
sI4447
S'magazine'
p4312
sI4448
S'us'
p4313
sI4449
S'arts'
p4314
sI4450
S'arts'
p4315
sI4451
S'fashion'
p4316
sI4452
S'nyregion'
p4317
sI4453
S'arts'
p4318
sI4454
S'fashion'
p4319
sI4455
S'nyregion'
p4320
sI4456
S'us'
p4321
sI4457
S'business'
p4322
sI4458
S'us'
p4323
sI4459
S'us'
p4324
sI4460
S'us'
p4325
sI4461
S'health'
p4326
sI4462
S'science'
p4327
sI4463
S'business'
p4328
sI4464
S'magazine'
p4329
sI4465
S'magazine'
p4330
sI4466
S'books'
p4331
sI4468
S'business'
p4332
sI4469
S'nyregion'
p4333
sI4470
S'health'
p4334
sI4471
S'magazine'
p4335
sI4472
S'business'
p4336
sI4473
S'world'
p4337
sI4474
S'sports'
p4338
sI4475
S'sports'
p4339
sI4476
S'sports'
p4340
sI4477
S'magazine'
p4341
sI4478
S'sports'
p4342
sI4479
S'sports'
p4343
sI4480
S'sports'
p4344
sI4481
S'business'
p4345
sI4482
S'business'
p4346
sI4483
S'science'
p4347
sI4484
S'world'
p4348
sI4485
S'world'
p4349
sI4486
S'arts'
p4350
sI4487
S'world'
p4351
sI4488
S'business'
p4352
sI4489
S'arts'
p4353
sI4490
S'world'
p4354
sI4491
S'sports'
p4355
sI4492
S'us'
p4356
sI4493
S'arts'
p4357
sI4494
S'health'
p4358
sI4495
S'us'
p4359
sI4496
S'science'
p4360
sI4497
S'health'
p4361
sI4498
S'books'
p4362
sI4499
S'business'
p4363
sI4500
S'world'
p4364
sI4501
S'nyregion'
p4365
sI4502
S'us'
p4366
sI4503
S'world'
p4367
sI4504
S'magazine'
p4368
sI4505
S'sports'
p4369
sI4506
S'business'
p4370
sI4507
S'books'
p4371
sI4508
S'nyregion'
p4372
sI4509
S'books'
p4373
sI4510
S'sports'
p4374
sI4511
S'business'
p4375
sI4512
S'sports'
p4376
sI4514
S'magazine'
p4377
sI4515
S'us'
p4378
sI4516
S'world'
p4379
sI4517
S'nyregion'
p4380
sI4518
S'science'
p4381
sI4519
S'fashion'
p4382
sI4520
S'us'
p4383
sI4521
S'business'
p4384
sI4522
S'arts'
p4385
sI4523
S'world'
p4386
sI4524
S'world'
p4387
sI4525
S'health'
p4388
sI4526
S'magazine'
p4389
sI4527
S'us'
p4390
sI4528
S'us'
p4391
sI4529
S'health'
p4392
sI4530
S'us'
p4393
sI4531
S'world'
p4394
sI4532
S'business'
p4395
sI4533
S'world'
p4396
sI4534
S'business'
p4397
sI4535
S'world'
p4398
sI4536
S'business'
p4399
sI4537
S'world'
p4400
sI4538
S'world'
p4401
sI4539
S'world'
p4402
sI4540
S'world'
p4403
sI4541
S'world'
p4404
sI4542
S'world'
p4405
sI4543
S'world'
p4406
sI4544
S'world'
p4407
sI4545
S'arts'
p4408
sI4546
S'world'
p4409
sI4547
S'arts'
p4410
sI4548
S'nyregion'
p4411
sI4549
S'world'
p4412
sI4550
S'world'
p4413
sI4551
S'world'
p4414
sI4552
S'technology'
p4415
sI4553
S'technology'
p4416
sI4554
S'world'
p4417
sI4555
S'world'
p4418
sI4556
S'sports'
p4419
sI4557
S'world'
p4420
sI4558
S'business'
p4421
sI4559
S'world'
p4422
sI4561
S'world'
p4423
sI4562
S'world'
p4424
sI4563
S'world'
p4425
sI4564
S'technology'
p4426
sI4565
S'world'
p4427
sI4566
S'world'
p4428
sI4567
S'world'
p4429
sI4568
S'world'
p4430
sI4569
S'world'
p4431
sI4570
S'arts'
p4432
sI4571
S'sports'
p4433
sI4572
S'sports'
p4434
sI4573
S'world'
p4435
sI4574
S'technology'
p4436
sI4575
S'business'
p4437
sI4576
S'world'
p4438
sI4577
S'world'
p4439
sI4578
S'world'
p4440
sI4579
S'world'
p4441
sI4580
S'world'
p4442
sI4581
S'world'
p4443
sI4582
S'world'
p4444
sI4583
S'technology'
p4445
sI4584
S'world'
p4446
sI4585
S'world'
p4447
sI4586
S'world'
p4448
sI4587
S'business'
p4449
sI4588
S'world'
p4450
sI4589
S'us'
p4451
sI4590
S'world'
p4452
sI4591
S'books'
p4453
sI4592
S'world'
p4454
sI4593
S'sports'
p4455
sI4594
S'world'
p4456
sI4595
S'world'
p4457
sI4596
S'technology'
p4458
sI4597
S'business'
p4459
sI4598
S'us'
p4460
sI4599
S'technology'
p4461
sI4600
S'world'
p4462
sI4601
S'world'
p4463
sI4602
S'world'
p4464
sI4603
S'world'
p4465
sI4604
S'world'
p4466
sI4606
S'sports'
p4467
sI4607
S'business'
p4468
sI4608
S'world'
p4469
sI4609
S'world'
p4470
sI4610
S'business'
p4471
sI4611
S'world'
p4472
sI4612
S'world'
p4473
sI4613
S'books'
p4474
sI4614
S'us'
p4475
sI4615
S'world'
p4476
sI4616
S'business'
p4477
sI4617
S'business'
p4478
sI4618
S'world'
p4479
sI4619
S'world'
p4480
sI4620
S'world'
p4481
sI4621
S'world'
p4482
sI4622
S'sports'
p4483
sI4623
S'world'
p4484
sI4624
S'books'
p4485
sI4625
S'world'
p4486
sI4626
S'world'
p4487
sI4627
S'world'
p4488
sI4628
S'business'
p4489
sI4629
S'world'
p4490
sI4630
S'world'
p4491
sI4631
S'sports'
p4492
sI4632
S'business'
p4493
sI4633
S'business'
p4494
sI4634
S'world'
p4495
sI4635
S'technology'
p4496
sI4636
S'business'
p4497
sI4637
S'world'
p4498
sI4638
S'business'
p4499
sI4639
S'sports'
p4500
sI4640
S'us'
p4501
sI4641
S'business'
p4502
sI4642
S'world'
p4503
sI4643
S'world'
p4504
sI4645
S'business'
p4505
sI4646
S'world'
p4506
sI4647
S'world'
p4507
sI4648
S'world'
p4508
sI4649
S'world'
p4509
sI4650
S'world'
p4510
sI4651
S'world'
p4511
sI4652
S'arts'
p4512
sI4653
S'business'
p4513
sI4654
S'business'
p4514
sI4655
S'arts'
p4515
sI4656
S'business'
p4516
sI4657
S'us'
p4517
sI4658
S'us'
p4518
sI4659
S'world'
p4519
sI4660
S'business'
p4520
sI4661
S'world'
p4521
sI4662
S'world'
p4522
sI4663
S'world'
p4523
sI4664
S'us'
p4524
sI4665
S'world'
p4525
sI4666
S'business'
p4526
sI4667
S'world'
p4527
sI4668
S'world'
p4528
sI4669
S'world'
p4529
sI4670
S'world'
p4530
sI4671
S'business'
p4531
sI4672
S'world'
p4532
sI4673
S'world'
p4533
sI4674
S'us'
p4534
sI4675
S'world'
p4535
sI4676
S'world'
p4536
sI4677
S'sports'
p4537
sI4678
S'world'
p4538
sI4679
S'sports'
p4539
sI4680
S'world'
p4540
sI4681
S'world'
p4541
sI4682
S'world'
p4542
sI4683
S'world'
p4543
sI4684
S'business'
p4544
sI4685
S'world'
p4545
sI4686
S'world'
p4546
sI4687
S'technology'
p4547
sI4688
S'business'
p4548
sI4689
S'world'
p4549
sI4690
S'sports'
p4550
sI4692
S'world'
p4551
sI4693
S'business'
p4552
sI4694
S'world'
p4553
sI4695
S'world'
p4554
sI4696
S'nyregion'
p4555
sI4697
S'world'
p4556
sI4698
S'world'
p4557
sI4699
S'world'
p4558
sI4700
S'world'
p4559
sI4701
S'arts'
p4560
sI4702
S'arts'
p4561
sI4703
S'sports'
p4562
sI4704
S'business'
p4563
sI4705
S'business'
p4564
sI4706
S'us'
p4565
sI4707
S'business'
p4566
sI4708
S'world'
p4567
sI4709
S'world'
p4568
sI4710
S'technology'
p4569
sI4711
S'business'
p4570
sI4712
S'arts'
p4571
sI4713
S'sports'
p4572
sI4714
S'world'
p4573
sI4715
S'world'
p4574
sI4716
S'business'
p4575
sI4717
S'world'
p4576
sI4718
S'world'
p4577
sI4719
S'world'
p4578
sI4720
S'business'
p4579
sI4721
S'business'
p4580
sI4722
S'business'
p4581
sI4723
S'us'
p4582
sI4724
S'world'
p4583
sI4725
S'world'
p4584
sI4726
S'world'
p4585
sI4727
S'sports'
p4586
sI4728
S'business'
p4587
sI4729
S'world'
p4588
sI4730
S'world'
p4589
sI4731
S'business'
p4590
sI4732
S'world'
p4591
sI4733
S'world'
p4592
sI4734
S'world'
p4593
sI4735
S'world'
p4594
sI4736
S'nyregion'
p4595
sI4737
S'sports'
p4596
sI4738
S'world'
p4597
sI4739
S'business'
p4598
sI4740
S'sports'
p4599
sI4741
S'us'
p4600
sI4742
S'sports'
p4601
sI4743
S'sports'
p4602
sI4744
S'world'
p4603
sI4745
S'world'
p4604
sI4746
S'world'
p4605
sI4747
S'world'
p4606
sI4748
S'business'
p4607
sI4749
S'sports'
p4608
sI4750
S'business'
p4609
sI4751
S'world'
p4610
sI4752
S'world'
p4611
sI4753
S'world'
p4612
sI4754
S'business'
p4613
sI4755
S'us'
p4614
sI4756
S'world'
p4615
sI4757
S'arts'
p4616
sI4758
S'world'
p4617
sI4759
S'science'
p4618
sI4760
S'us'
p4619
sI4761
S'sports'
p4620
sI4762
S'world'
p4621
sI4763
S'us'
p4622
sI4764
S'world'
p4623
sI4765
S'arts'
p4624
sI4766
S'us'
p4625
sI4767
S'us'
p4626
sI4768
S'us'
p4627
sI4769
S'world'
p4628
sI4770
S'world'
p4629
sI4771
S'world'
p4630
sI4772
S'arts'
p4631
sI4773
S'nyregion'
p4632
sI4774
S'us'
p4633
sI4775
S'sports'
p4634
sI4776
S'world'
p4635
sI4777
S'nyregion'
p4636
sI4778
S'nyregion'
p4637
sI4779
S'science'
p4638
sI4780
S'books'
p4639
sI4781
S'sports'
p4640
sI4782
S'us'
p4641
sI4783
S'fashion'
p4642
sI4784
S'business'
p4643
sI4785
S'nyregion'
p4644
sI4786
S'arts'
p4645
sI4787
S'world'
p4646
sI4788
S'arts'
p4647
sI4789
S'arts'
p4648
sI4790
S'health'
p4649
sI4791
S'fashion'
p4650
sI4792
S'business'
p4651
sI4793
S'business'
p4652
sI4794
S'sports'
p4653
sI4795
S'books'
p4654
sI4796
S'arts'
p4655
sI4797
S'world'
p4656
sI4798
S'magazine'
p4657
sI4799
S'sports'
p4658
sI4800
S'sports'
p4659
sI4801
S'nyregion'
p4660
sI4802
S'sports'
p4661
sI4804
S'magazine'
p4662
sI4806
S'business'
p4663
sI4807
S'technology'
p4664
sI4808
S'magazine'
p4665
sI4809
S'nyregion'
p4666
sI4810
S'world'
p4667
sI4811
S'sports'
p4668
sI4812
S'business'
p4669
sI4813
S'nyregion'
p4670
sI4814
S'sports'
p4671
sI4815
S'world'
p4672
sI4816
S'nyregion'
p4673
sI4817
S'us'
p4674
sI4818
S'magazine'
p4675
sI4819
S'fashion'
p4676
sI4820
S'us'
p4677
sI4821
S'world'
p4678
sI4822
S'nyregion'
p4679
sI4823
S'world'
p4680
sI4824
S'sports'
p4681
sI4825
S'world'
p4682
sI4826
S'fashion'
p4683
sI4827
S'world'
p4684
sI4828
S'us'
p4685
sI4829
S'us'
p4686
sI4830
S'us'
p4687
sI4831
S'business'
p4688
sI4832
S'fashion'
p4689
sI4833
S'world'
p4690
sI4834
S'world'
p4691
sI4835
S'world'
p4692
sI4836
S'nyregion'
p4693
sI4837
S'magazine'
p4694
sI4838
S'us'
p4695
sI4839
S'business'
p4696
sI4840
S'us'
p4697
sI4841
S'world'
p4698
sI4842
S'world'
p4699
sI4843
S'us'
p4700
sI4844
S'us'
p4701
sI4845
S'world'
p4702
sI4846
S'world'
p4703
sI4847
S'nyregion'
p4704
sI4848
S'nyregion'
p4705
sI4849
S'world'
p4706
sI4850
S'us'
p4707
sI4851
S'world'
p4708
sI4852
S'technology'
p4709
sI4853
S'world'
p4710
sI4854
S'business'
p4711
sI4855
S'business'
p4712
sI4856
S'nyregion'
p4713
sI4857
S'nyregion'
p4714
sI4858
S'business'
p4715
sI4859
S'business'
p4716
sI4860
S'us'
p4717
sI4861
S'business'
p4718
sI4862
S'arts'
p4719
sI4863
S'health'
p4720
sI4864
S'us'
p4721
sI4865
S'us'
p4722
sI4866
S'business'
p4723
sI4867
S'business'
p4724
sI4868
S'arts'
p4725
sI4869
S'magazine'
p4726
sI4870
S'technology'
p4727
sI4871
S'business'
p4728
sI4872
S'arts'
p4729
sI4873
S'us'
p4730
sI4874
S'world'
p4731
sI4875
S'books'
p4732
sI4876
S'fashion'
p4733
sI4877
S'nyregion'
p4734
sI4878
S'business'
p4735
sI4879
S'world'
p4736
sI4880
S'fashion'
p4737
sI4882
S'us'
p4738
sI4883
S'world'
p4739
sI4884
S'us'
p4740
sI4885
S'books'
p4741
sI4886
S'business'
p4742
sI4887
S'books'
p4743
sI4888
S'business'
p4744
sI4889
S'business'
p4745
sI4890
S'technology'
p4746
sI4891
S'business'
p4747
sI4892
S'us'
p4748
sI4893
S'business'
p4749
sI4894
S'business'
p4750
sI4895
S'business'
p4751
sI4896
S'sports'
p4752
sI4897
S'us'
p4753
sI4898
S'business'
p4754
sI4899
S'sports'
p4755
sI4900
S'sports'
p4756
sI4901
S'sports'
p4757
sI4902
S'business'
p4758
sI4903
S'us'
p4759
sI4904
S'business'
p4760
sI4905
S'business'
p4761
sI4906
S'business'
p4762
sI4907
S'sports'
p4763
sI4908
S'business'
p4764
sI4909
S'business'
p4765
sI4910
S'business'
p4766
sI4911
S'business'
p4767
sI4912
S'business'
p4768
sI4913
S'business'
p4769
sI4914
S'business'
p4770
sI4915
S'nyregion'
p4771
sI4916
S'arts'
p4772
sI4917
S'world'
p4773
sI4918
S'arts'
p4774
sI4919
S'magazine'
p4775
sI4920
S'world'
p4776
sI4921
S'world'
p4777
sI4922
S'magazine'
p4778
sI4923
S'us'
p4779
sI4924
S'business'
p4780
sI4925
S'us'
p4781
sI4926
S'sports'
p4782
sI4927
S'sports'
p4783
sI4928
S'sports'
p4784
sI4929
S'arts'
p4785
sI4930
S'business'
p4786
sI4931
S'arts'
p4787
sI4932
S'fashion'
p4788
sI4933
S'us'
p4789
sI4934
S'world'
p4790
sI4935
S'business'
p4791
sI4936
S'arts'
p4792
sI4937
S'business'
p4793
sI4938
S'sports'
p4794
sI4939
S'technology'
p4795
sI4940
S'health'
p4796
sI4941
S'world'
p4797
sI4942
S'arts'
p4798
sI4943
S'world'
p4799
sI4944
S'us'
p4800
sI4945
S'us'
p4801
sI4946
S'us'
p4802
sI4947
S'nyregion'
p4803
sI4948
S'business'
p4804
sI4949
S'science'
p4805
sI4950
S'science'
p4806
sI4951
S'us'
p4807
sI4952
S'us'
p4808
sI4953
S'business'
p4809
sI4954
S'magazine'
p4810
sI4955
S'us'
p4811
sI4956
S'nyregion'
p4812
sI4957
S'nyregion'
p4813
sI4958
S'business'
p4814
sI4959
S'health'
p4815
sI4960
S'nyregion'
p4816
sI4962
S'us'
p4817
sI4963
S'arts'
p4818
sI4964
S'arts'
p4819
sI4966
S'nyregion'
p4820
sI4967
S'sports'
p4821
sI4968
S'sports'
p4822
sI4969
S'world'
p4823
sI4970
S'world'
p4824
sI4971
S'technology'
p4825
sI4972
S'magazine'
p4826
sI4973
S'us'
p4827
sI4974
S'technology'
p4828
sI4975
S'us'
p4829
sI4976
S'magazine'
p4830
sI4977
S'us'
p4831
sI4978
S'us'
p4832
sI4979
S'us'
p4833
sI4980
S'magazine'
p4834
sI4981
S'us'
p4835
sI4982
S'magazine'
p4836
sI4983
S'magazine'
p4837
sI4984
S'us'
p4838
sI4985
S'sports'
p4839
sI4986
S'sports'
p4840
sI4987
S'nyregion'
p4841
sI4988
S'us'
p4842
sI4989
S'science'
p4843
sI4990
S'business'
p4844
sI4991
S'sports'
p4845
sI4992
S'health'
p4846
sI4993
S'fashion'
p4847
sI4994
S'health'
p4848
sI4995
S'health'
p4849
sI4996
S'us'
p4850
sI4997
S'nyregion'
p4851
sI4998
S'nyregion'
p4852
sI4999
S'books'
p4853
sI5000
S'world'
p4854
sI5001
S'business'
p4855
sI5002
S'magazine'
p4856
sI5003
S'us'
p4857
sI5004
S'health'
p4858
sI5005
S'us'
p4859
sI5006
S'sports'
p4860
sI5007
S'business'
p4861
sI5008
S'sports'
p4862
sI5009
S'health'
p4863
sI5010
S'arts'
p4864
sI5011
S'technology'
p4865
sI5012
S'business'
p4866
sI5013
S'sports'
p4867
sI5014
S'world'
p4868
sI5015
S'us'
p4869
sI5016
S'fashion'
p4870
sI5017
S'world'
p4871
sI5019
S'nyregion'
p4872
sI5020
S'us'
p4873
sI5021
S'health'
p4874
sI5022
S'science'
p4875
sI5023
S'us'
p4876
sI5025
S'us'
p4877
sI5026
S'us'
p4878
sI5027
S'arts'
p4879
sI5028
S'technology'
p4880
sI5029
S'us'
p4881
sI5030
S'fashion'
p4882
sI5031
S'business'
p4883
sI5032
S'us'
p4884
sI5033
S'technology'
p4885
sI5034
S'magazine'
p4886
sI5035
S'arts'
p4887
sI5036
S'us'
p4888
sI5037
S'business'
p4889
sI5038
S'business'
p4890
sI5039
S'science'
p4891
sI5041
S'sports'
p4892
sI5043
S'technology'
p4893
sI5045
S'arts'
p4894
sI5046
S'nyregion'
p4895
sI5047
S'science'
p4896
sI5048
S'nyregion'
p4897
sI5049
S'business'
p4898
sI5050
S'science'
p4899
sI5051
S'arts'
p4900
sI5052
S'fashion'
p4901
sI5053
S'arts'
p4902
sI5054
S'business'
p4903
sI5055
S'us'
p4904
sI5056
S'us'
p4905
sI5057
S'technology'
p4906
sI5058
S'us'
p4907
sI5059
S'world'
p4908
sI5060
S'magazine'
p4909
sI5062
S'arts'
p4910
sI5064
S'magazine'
p4911
sI5065
S'world'
p4912
sI5066
S'business'
p4913
sI5067
S'nyregion'
p4914
sI5068
S'us'
p4915
sI5069
S'health'
p4916
sI5070
S'health'
p4917
sI5072
S'business'
p4918
sI5073
S'business'
p4919
sI5074
S'us'
p4920
sI5075
S'sports'
p4921
sI5076
S'sports'
p4922
sI5077
S'nyregion'
p4923
sI5078
S'sports'
p4924
sI5079
S'us'
p4925
sI5080
S'business'
p4926
sI5081
S'us'
p4927
sI5082
S'us'
p4928
sI5083
S'world'
p4929
sI5084
S'books'
p4930
sI5085
S'business'
p4931
sI5086
S'nyregion'
p4932
sI5087
S'us'
p4933
sI5089
S'business'
p4934
sI5090
S'us'
p4935
sI5091
S'arts'
p4936
sI5092
S'fashion'
p4937
sI5093
S'us'
p4938
sI5094
S'us'
p4939
sI5095
S'us'
p4940
sI5096
S'technology'
p4941
sI5097
S'world'
p4942
sI5098
S'health'
p4943
sI5099
S'arts'
p4944
sI5100
S'science'
p4945
sI5101
S'magazine'
p4946
sI5102
S'world'
p4947
sI5103
S'us'
p4948
sI5104
S'world'
p4949
sI5105
S'arts'
p4950
sI5106
S'magazine'
p4951
sI5107
S'world'
p4952
sI5108
S'business'
p4953
sI5109
S'science'
p4954
sI5110
S'science'
p4955
sI5111
S'world'
p4956
sI5112
S'arts'
p4957
sI5113
S'us'
p4958
sI5114
S'fashion'
p4959
sI5115
S'arts'
p4960
sI5116
S'arts'
p4961
sI5117
S'us'
p4962
sI5118
S'world'
p4963
sI5119
S'technology'
p4964
sI5120
S'business'
p4965
sI5121
S'science'
p4966
sI5122
S'world'
p4967
sI5123
S'us'
p4968
sI5124
S'us'
p4969
sI5125
S'sports'
p4970
sI5126
S'us'
p4971
sI5127
S'world'
p4972
sI5128
S'nyregion'
p4973
sI5129
S'world'
p4974
sI5130
S'arts'
p4975
sI5131
S'sports'
p4976
sI5132
S'magazine'
p4977
sI5133
S'science'
p4978
sI5134
S'magazine'
p4979
sI5135
S'science'
p4980
sI5136
S'world'
p4981
sI5137
S'science'
p4982
sI5138
S'world'
p4983
sI5139
S'fashion'
p4984
sI5140
S'science'
p4985
sI5141
S'arts'
p4986
sI5142
S'us'
p4987
sI5143
S'science'
p4988
sI5144
S'us'
p4989
sI5145
S'world'
p4990
sI5146
S'world'
p4991
sI5147
S'magazine'
p4992
sI5148
S'sports'
p4993
sI5149
S'sports'
p4994
sI5150
S'world'
p4995
sI5151
S'world'
p4996
sI5152
S'fashion'
p4997
sI5153
S'us'
p4998
sI5154
S'fashion'
p4999
sI5156
S'nyregion'
p5000
sI5157
S'world'
p5001
sI5158
S'magazine'
p5002
sI5159
S'magazine'
p5003
sI5160
S'books'
p5004
sI5161
S'sports'
p5005
sI5162
S'nyregion'
p5006
sI5163
S'fashion'
p5007
sI5164
S'sports'
p5008
sI5165
S'fashion'
p5009
sI5166
S'us'
p5010
sI5167
S'world'
p5011
sI5168
S'arts'
p5012
sI5169
S'us'
p5013
sI5170
S'us'
p5014
sI5171
S'nyregion'
p5015
sI5172
S'business'
p5016
sI5173
S'arts'
p5017
sI5174
S'us'
p5018
sI5175
S'sports'
p5019
sI5176
S'business'
p5020
sI5177
S'business'
p5021
sI5178
S'fashion'
p5022
sI5179
S'sports'
p5023
sI5180
S'sports'
p5024
sI5181
S'science'
p5025
sI5182
S'arts'
p5026
sI5183
S'world'
p5027
sI5184
S'world'
p5028
sI5185
S'us'
p5029
sI5186
S'fashion'
p5030
sI5187
S'world'
p5031
sI5188
S'magazine'
p5032
sI5189
S'world'
p5033
sI5190
S'science'
p5034
sI5191
S'sports'
p5035
sI5192
S'us'
p5036
sI5193
S'science'
p5037
sI5194
S'business'
p5038
sI5195
S'us'
p5039
sI5196
S'business'
p5040
sI5197
S'world'
p5041
sI5198
S'us'
p5042
sI5199
S'us'
p5043
sI5200
S'us'
p5044
sI5201
S'business'
p5045
sI5202
S'world'
p5046
sI5203
S'us'
p5047
sI5204
S'science'
p5048
sI5205
S'world'
p5049
sI5206
S'arts'
p5050
sI5207
S'science'
p5051
sI5208
S'world'
p5052
sI5209
S'books'
p5053
sI5210
S'world'
p5054
sI5211
S'science'
p5055
sI5212
S'us'
p5056
sI5213
S'science'
p5057
sI5214
S'nyregion'
p5058
sI5215
S'us'
p5059
sI5216
S'us'
p5060
sI5217
S'health'
p5061
sI5218
S'us'
p5062
sI5219
S'magazine'
p5063
sI5220
S'science'
p5064
sI5221
S'us'
p5065
sI5222
S'magazine'
p5066
sI5223
S'nyregion'
p5067
sI5224
S'us'
p5068
sI5225
S'fashion'
p5069
sI5226
S'world'
p5070
sI5227
S'science'
p5071
sI5228
S'sports'
p5072
sI5229
S'technology'
p5073
sI5230
S'business'
p5074
sI5231
S'technology'
p5075
sI5232
S'technology'
p5076
sI5233
S'health'
p5077
sI5234
S'technology'
p5078
sI5235
S'fashion'
p5079
sI5236
S'fashion'
p5080
sI5237
S'us'
p5081
sI5238
S'arts'
p5082
sI5239
S'us'
p5083
sI5240
S'world'
p5084
sI5241
S'arts'
p5085
sI5242
S'us'
p5086
sI5243
S'world'
p5087
sI5244
S'world'
p5088
sI5245
S'us'
p5089
sI5246
S'science'
p5090
sI5247
S'us'
p5091
sI5248
S'world'
p5092
sI5249
S'world'
p5093
sI5250
S'business'
p5094
sI5251
S'world'
p5095
sI5252
S'fashion'
p5096
sI5253
S'us'
p5097
sI5254
S'business'
p5098
sI5255
S'business'
p5099
sI5256
S'magazine'
p5100
sI5257
S'books'
p5101
sI5258
S'world'
p5102
sI5259
S'sports'
p5103
sI5260
S'business'
p5104
sI5261
S'us'
p5105
sI5262
S'fashion'
p5106
sI5263
S'fashion'
p5107
sI5264
S'world'
p5108
sI5265
S'fashion'
p5109
sI5266
S'fashion'
p5110
sI5267
S'magazine'
p5111
sI5268
S'world'
p5112
sI5269
S'arts'
p5113
sI5270
S'us'
p5114
sI5271
S'world'
p5115
sI5272
S'business'
p5116
sI5273
S'health'
p5117
sI5274
S'world'
p5118
sI5275
S'science'
p5119
sI5276
S'fashion'
p5120
sI5277
S'nyregion'
p5121
sI5278
S'us'
p5122
sI5279
S'sports'
p5123
sI5280
S'arts'
p5124
sI5281
S'science'
p5125
sI5282
S'science'
p5126
sI5283
S'science'
p5127
sI5284
S'science'
p5128
sI5285
S'world'
p5129
sI5286
S'arts'
p5130
sI5287
S'fashion'
p5131
sI5288
S'us'
p5132
sI5289
S'nyregion'
p5133
sI5290
S'nyregion'
p5134
sI5291
S'us'
p5135
sI5292
S'fashion'
p5136
sI5293
S'books'
p5137
sI5294
S'business'
p5138
sI5295
S'business'
p5139
sI5296
S'science'
p5140
sI5297
S'world'
p5141
sI5298
S'world'
p5142
sI5299
S'arts'
p5143
sI5300
S'magazine'
p5144
sI5301
S'books'
p5145
sI5302
S'sports'
p5146
sI5303
S'science'
p5147
sI5304
S'business'
p5148
sI5305
S'nyregion'
p5149
sI5306
S'world'
p5150
sI5307
S'sports'
p5151
sI5308
S'technology'
p5152
sI5309
S'nyregion'
p5153
sI5310
S'nyregion'
p5154
sI5311
S'world'
p5155
sI5312
S'world'
p5156
sI5313
S'fashion'
p5157
sI5314
S'us'
p5158
sI5315
S'fashion'
p5159
sI5316
S'us'
p5160
sI5317
S'magazine'
p5161
sI5318
S'fashion'
p5162
sI5319
S'fashion'
p5163
sI5320
S'world'
p5164
sI5321
S'nyregion'
p5165
sI5322
S'magazine'
p5166
sI5323
S'us'
p5167
sI5324
S'world'
p5168
sI5325
S'us'
p5169
sI5326
S'nyregion'
p5170
sI5327
S'us'
p5171
sI5328
S'us'
p5172
sI5329
S'fashion'
p5173
sI5330
S'arts'
p5174
sI5332
S'sports'
p5175
sI5333
S'nyregion'
p5176
sI5334
S'arts'
p5177
sI5335
S'arts'
p5178
sI5336
S'nyregion'
p5179
sI5337
S'us'
p5180
sI5338
S'nyregion'
p5181
sI5339
S'sports'
p5182
sI5340
S'arts'
p5183
sI5341
S'business'
p5184
sI5342
S'science'
p5185
sI5343
S'fashion'
p5186
sI5344
S'world'
p5187
sI5345
S'nyregion'
p5188
sI5346
S'world'
p5189
sI5347
S'nyregion'
p5190
sI5348
S'technology'
p5191
sI5349
S'technology'
p5192
sI5350
S'us'
p5193
sI5351
S'us'
p5194
sI5352
S'business'
p5195
sI5353
S'world'
p5196
sI5355
S'sports'
p5197
sI5356
S'health'
p5198
sI5357
S'fashion'
p5199
sI5358
S'business'
p5200
sI5360
S'arts'
p5201
sI5361
S'arts'
p5202
sI5362
S'business'
p5203
sI5363
S'nyregion'
p5204
sI5364
S'world'
p5205
sI5365
S'us'
p5206
sI5366
S'world'
p5207
sI5367
S'us'
p5208
sI5368
S'world'
p5209
sI5369
S'business'
p5210
sI5370
S'sports'
p5211
sI5371
S'sports'
p5212
sI5372
S'us'
p5213
sI5373
S'us'
p5214
sI5374
S'science'
p5215
sI5375
S'nyregion'
p5216
sI5376
S'us'
p5217
sI5377
S'books'
p5218
sI5378
S'magazine'
p5219
sI5379
S'magazine'
p5220
sI5380
S'magazine'
p5221
sI5381
S'sports'
p5222
sI5382
S'technology'
p5223
sI5383
S'arts'
p5224
sI5384
S'sports'
p5225
sI5385
S'us'
p5226
sI5387
S'fashion'
p5227
sI5388
S'world'
p5228
sI5389
S'arts'
p5229
sI5390
S'business'
p5230
sI5391
S'nyregion'
p5231
sI5392
S'world'
p5232
sI5393
S'sports'
p5233
sI5394
S'nyregion'
p5234
sI5395
S'health'
p5235
sI5396
S'nyregion'
p5236
sI5397
S'nyregion'
p5237
sI5398
S'sports'
p5238
sI5399
S'sports'
p5239
sI5400
S'sports'
p5240
sI5401
S'sports'
p5241
sI5402
S'world'
p5242
sI5403
S'nyregion'
p5243
sI5404
S'us'
p5244
sI5405
S'us'
p5245
sI5406
S'sports'
p5246
sI5407
S'world'
p5247
sI5408
S'sports'
p5248
sI5409
S'science'
p5249
sI5410
S'us'
p5250
sI5411
S'books'
p5251
sI5412
S'world'
p5252
sI5413
S'arts'
p5253
sI5414
S'arts'
p5254
sI5415
S'fashion'
p5255
sI5416
S'sports'
p5256
sI5417
S'fashion'
p5257
sI5418
S'nyregion'
p5258
sI5419
S'arts'
p5259
sI5420
S'us'
p5260
sI5421
S'business'
p5261
sI5422
S'us'
p5262
sI5424
S'nyregion'
p5263
sI5425
S'sports'
p5264
sI5426
S'arts'
p5265
sI5427
S'sports'
p5266
sI5428
S'us'
p5267
sI5429
S'sports'
p5268
sI5430
S'nyregion'
p5269
sI5431
S'health'
p5270
sI5432
S'science'
p5271
sI5433
S'business'
p5272
sI5434
S'science'
p5273
sI5435
S'science'
p5274
sI5436
S'science'
p5275
sI5437
S'health'
p5276
sI5438
S'health'
p5277
sI5439
S'technology'
p5278
sI5440
S'health'
p5279
sI5441
S'health'
p5280
sI5442
S'health'
p5281
sI5443
S'business'
p5282
sI5444
S'business'
p5283
sI5445
S'health'
p5284
sI5446
S'health'
p5285
sI5447
S'business'
p5286
sI5448
S'business'
p5287
sI5449
S'nyregion'
p5288
sI5450
S'us'
p5289
sI5451
S'us'
p5290
sI5452
S'business'
p5291
sI5453
S'science'
p5292
sI5454
S'science'
p5293
sI5455
S'health'
p5294
sI5456
S'health'
p5295
sI5457
S'nyregion'
p5296
sI5458
S'nyregion'
p5297
sI5459
S'health'
p5298
sI5460
S'business'
p5299
sI5461
S'magazine'
p5300
sI5462
S'science'
p5301
sI5463
S'business'
p5302
sI5464
S'us'
p5303
sI5465
S'business'
p5304
sI5466
S'business'
p5305
sI5467
S'health'
p5306
sI5468
S'technology'
p5307
sI5469
S'science'
p5308
sI5470
S'health'
p5309
sI5471
S'business'
p5310
sI5472
S'us'
p5311
sI5473
S'technology'
p5312
sI5474
S'us'
p5313
sI5475
S'nyregion'
p5314
sI5476
S'us'
p5315
sI5477
S'us'
p5316
sI5478
S'us'
p5317
sI5479
S'business'
p5318
sI5480
S'science'
p5319
sI5481
S'business'
p5320
sI5482
S'health'
p5321
sI5483
S'science'
p5322
sI5484
S'business'
p5323
sI5485
S'us'
p5324
sI5486
S'us'
p5325
sI5487
S'nyregion'
p5326
sI5488
S'business'
p5327
sI5489
S'us'
p5328
sI5490
S'health'
p5329
sI5491
S'technology'
p5330
sI5492
S'business'
p5331
sI5493
S'business'
p5332
sI5494
S'business'
p5333
sI5495
S'science'
p5334
sI5496
S'us'
p5335
sI5497
S'nyregion'
p5336
sI5498
S'nyregion'
p5337
sI5499
S'nyregion'
p5338
sI5500
S'health'
p5339
sI5501
S'nyregion'
p5340
sI5502
S'health'
p5341
sI5503
S'nyregion'
p5342
sI5504
S'business'
p5343
sI5505
S'us'
p5344
sI5506
S'nyregion'
p5345
sI5507
S'business'
p5346
sI5508
S'health'
p5347
sI5509
S'world'
p5348
sI5510
S'science'
p5349
sI5511
S'technology'
p5350
sI5512
S'us'
p5351
sI5513
S'business'
p5352
sI5514
S'health'
p5353
sI5515
S'nyregion'
p5354
sI5516
S'business'
p5355
sI5517
S'us'
p5356
sI5518
S'health'
p5357
sI5519
S'us'
p5358
sI5520
S'us'
p5359
sI5521
S'business'
p5360
sI5522
S'us'
p5361
sI5523
S'health'
p5362
sI5524
S'health'
p5363
sI5525
S'us'
p5364
sI5526
S'business'
p5365
sI5527
S'us'
p5366
sI5528
S'us'
p5367
sI5529
S'us'
p5368
sI5531
S'health'
p5369
sI5532
S'fashion'
p5370
sI5533
S'health'
p5371
sI5534
S'world'
p5372
sI5535
S'health'
p5373
sI5536
S'health'
p5374
sI5537
S'business'
p5375
sI5538
S'health'
p5376
sI5539
S'health'
p5377
sI5540
S'technology'
p5378
sI5541
S'science'
p5379
sI5542
S'business'
p5380
sI5543
S'us'
p5381
sI5544
S'business'
p5382
sI5545
S'us'
p5383
sI5546
S'business'
p5384
sI5547
S'nyregion'
p5385
sI5548
S'technology'
p5386
sI5549
S'health'
p5387
sI5550
S'business'
p5388
sI5551
S'us'
p5389
sI5552
S'technology'
p5390
sI5553
S'health'
p5391
sI5554
S'sports'
p5392
sI5555
S'sports'
p5393
sI5556
S'magazine'
p5394
sI5557
S'business'
p5395
sI5558
S'us'
p5396
sI5559
S'us'
p5397
sI5560
S'nyregion'
p5398
sI5561
S'technology'
p5399
sI5562
S'arts'
p5400
sI5563
S'world'
p5401
sI5564
S'world'
p5402
sI5565
S'world'
p5403
sI5567
S'world'
p5404
sI5568
S'books'
p5405
sI5569
S'nyregion'
p5406
sI5570
S'us'
p5407
sI5571
S'business'
p5408
sI5572
S'us'
p5409
sI5573
S'world'
p5410
sI5574
S'world'
p5411
sI5575
S'magazine'
p5412
sI5577
S'us'
p5413
sI5578
S'books'
p5414
sI5579
S'sports'
p5415
sI5580
S'health'
p5416
sI5581
S'arts'
p5417
sI5582
S'arts'
p5418
sI5583
S'world'
p5419
sI5584
S'world'
p5420
sI5585
S'world'
p5421
sI5586
S'world'
p5422
sI5587
S'books'
p5423
sI5588
S'world'
p5424
sI5589
S'world'
p5425
sI5590
S'arts'
p5426
sI5591
S'nyregion'
p5427
sI5593
S'world'
p5428
sI5594
S'us'
p5429
sI5595
S'business'
p5430
sI5596
S'science'
p5431
sI5597
S'magazine'
p5432
sI5598
S'science'
p5433
sI5599
S'nyregion'
p5434
sI5600
S'sports'
p5435
sI5601
S'fashion'
p5436
sI5602
S'world'
p5437
sI5603
S'world'
p5438
sI5604
S'magazine'
p5439
sI5605
S'arts'
p5440
sI5606
S'business'
p5441
sI5607
S'world'
p5442
sI5608
S'us'
p5443
sI5609
S'nyregion'
p5444
sI5610
S'world'
p5445
sI5611
S'technology'
p5446
sI5612
S'health'
p5447
sI5613
S'technology'
p5448
sI5614
S'nyregion'
p5449
sI5615
S'us'
p5450
sI5616
S'science'
p5451
sI5617
S'us'
p5452
sI5618
S'us'
p5453
sI5619
S'books'
p5454
sI5620
S'books'
p5455
sI5621
S'arts'
p5456
sI5622
S'world'
p5457
sI5623
S'world'
p5458
sI5624
S'us'
p5459
sI5625
S'us'
p5460
sI5626
S'us'
p5461
sI5628
S'sports'
p5462
sI5629
S'business'
p5463
sI5630
S'us'
p5464
sI5631
S'sports'
p5465
sI5632
S'nyregion'
p5466
sI5633
S'nyregion'
p5467
sI5634
S'fashion'
p5468
sI5635
S'us'
p5469
sI5636
S'business'
p5470
sI5637
S'sports'
p5471
sI5638
S'world'
p5472
sI5639
S'us'
p5473
sI5640
S'science'
p5474
sI5641
S'world'
p5475
sI5642
S'us'
p5476
sI5643
S'nyregion'
p5477
sI5644
S'world'
p5478
sI5645
S'us'
p5479
sI5646
S'us'
p5480
sI5647
S'nyregion'
p5481
sI5648
S'business'
p5482
sI5649
S'us'
p5483
sI5650
S'sports'
p5484
sI5651
S'us'
p5485
sI5652
S'world'
p5486
sI5653
S'nyregion'
p5487
sI5654
S'us'
p5488
sI5655
S'nyregion'
p5489
sI5656
S'science'
p5490
sI5657
S'us'
p5491
sI5658
S'business'
p5492
sI5659
S'nyregion'
p5493
sI5660
S'business'
p5494
sI5661
S'arts'
p5495
sI5662
S'world'
p5496
sI5663
S'nyregion'
p5497
sI5664
S'science'
p5498
sI5665
S'technology'
p5499
sI5666
S'us'
p5500
sI5667
S'fashion'
p5501
sI5668
S'world'
p5502
sI5669
S'books'
p5503
sI5670
S'business'
p5504
sI5671
S'books'
p5505
sI5672
S'world'
p5506
sI5674
S'sports'
p5507
sI5675
S'world'
p5508
sI5676
S'sports'
p5509
sI5677
S'world'
p5510
sI5678
S'world'
p5511
sI5679
S'world'
p5512
sI5680
S'world'
p5513
sI5681
S'fashion'
p5514
sI5682
S'fashion'
p5515
sI5683
S'us'
p5516
sI5684
S'health'
p5517
sI5685
S'business'
p5518
sI5686
S'arts'
p5519
sI5687
S'us'
p5520
sI5688
S'world'
p5521
sI5689
S'sports'
p5522
sI5690
S'sports'
p5523
sI5691
S'sports'
p5524
sI5692
S'us'
p5525
sI5694
S'sports'
p5526
sI5695
S'sports'
p5527
sI5696
S'sports'
p5528
sI5697
S'sports'
p5529
sI5698
S'magazine'
p5530
sI5699
S'nyregion'
p5531
sI5700
S'us'
p5532
sI5701
S'fashion'
p5533
sI5702
S'nyregion'
p5534
sI5703
S'us'
p5535
sI5704
S'science'
p5536
sI5705
S'us'
p5537
sI5707
S'world'
p5538
sI5708
S'sports'
p5539
sI5709
S'world'
p5540
sI5710
S'business'
p5541
sI5711
S'magazine'
p5542
sI5712
S'world'
p5543
sI5713
S'world'
p5544
sI5714
S'nyregion'
p5545
sI5715
S'sports'
p5546
sI5716
S'sports'
p5547
sI5717
S'arts'
p5548
sI5718
S'business'
p5549
sI5719
S'us'
p5550
sI5720
S'magazine'
p5551
sI5721
S'world'
p5552
sI5722
S'arts'
p5553
sI5723
S'us'
p5554
sI5724
S'sports'
p5555
sI5725
S'technology'
p5556
sI5726
S'magazine'
p5557
sI5727
S'us'
p5558
sI5728
S'sports'
p5559
sI5729
S'sports'
p5560
sI5730
S'sports'
p5561
sI5731
S'us'
p5562
sI5732
S'us'
p5563
sI5733
S'us'
p5564
sI5734
S'arts'
p5565
sI5735
S'us'
p5566
sI5736
S'us'
p5567
sI5737
S'science'
p5568
sI5738
S'us'
p5569
sI5739
S'us'
p5570
sI5740
S'us'
p5571
sI5741
S'arts'
p5572
sI5742
S'health'
p5573
sI5743
S'us'
p5574
sI5744
S'world'
p5575
sI5745
S'arts'
p5576
sI5746
S'nyregion'
p5577
sI5747
S'world'
p5578
sI5748
S'world'
p5579
sI5749
S'business'
p5580
sI5750
S'business'
p5581
sI5751
S'world'
p5582
sI5752
S'world'
p5583
sI5753
S'world'
p5584
sI5754
S'sports'
p5585
sI5755
S'world'
p5586
sI5756
S'us'
p5587
sI5757
S'us'
p5588
sI5758
S'nyregion'
p5589
sI5759
S'world'
p5590
sI5760
S'nyregion'
p5591
sI5761
S'sports'
p5592
sI5762
S'business'
p5593
sI5763
S'sports'
p5594
sI5764
S'sports'
p5595
sI5765
S'business'
p5596
sI5766
S'world'
p5597
sI5767
S'world'
p5598
sI5768
S'nyregion'
p5599
sI5769
S'business'
p5600
sI5770
S'world'
p5601
sI5771
S'nyregion'
p5602
sI5772
S'technology'
p5603
sI5773
S'technology'
p5604
sI5774
S'us'
p5605
sI5775
S'us'
p5606
sI5776
S'us'
p5607
sI5777
S'us'
p5608
sI5778
S'world'
p5609
sI5779
S'us'
p5610
sI5780
S'us'
p5611
sI5781
S'nyregion'
p5612
sI5782
S'us'
p5613
sI5783
S'us'
p5614
sI5784
S'world'
p5615
sI5785
S'us'
p5616
sI5786
S'world'
p5617
sI5787
S'nyregion'
p5618
sI5788
S'nyregion'
p5619
sI5789
S'arts'
p5620
sI5790
S'world'
p5621
sI5791
S'world'
p5622
sI5792
S'business'
p5623
sI5793
S'health'
p5624
sI5794
S'world'
p5625
sI5795
S'business'
p5626
sI5796
S'magazine'
p5627
sI5797
S'us'
p5628
sI5798
S'books'
p5629
sI5799
S'business'
p5630
sI5800
S'nyregion'
p5631
sI5801
S'nyregion'
p5632
sI5802
S'us'
p5633
sI5803
S'world'
p5634
sI5804
S'sports'
p5635
sI5805
S'business'
p5636
sI5806
S'sports'
p5637
sI5807
S'us'
p5638
sI5808
S'fashion'
p5639
sI5810
S'business'
p5640
sI5811
S'world'
p5641
sI5812
S'nyregion'
p5642
sI5813
S'sports'
p5643
sI5814
S'world'
p5644
sI5815
S'sports'
p5645
sI5816
S'health'
p5646
sI5817
S'arts'
p5647
sI5818
S'magazine'
p5648
sI5819
S'us'
p5649
sI5820
S'world'
p5650
sI5821
S'world'
p5651
sI5822
S'fashion'
p5652
sI5823
S'business'
p5653
sI5824
S'sports'
p5654
sI5825
S'business'
p5655
sI5826
S'nyregion'
p5656
sI5827
S'us'
p5657
sI5828
S'us'
p5658
sI5829
S'us'
p5659
sI5831
S'world'
p5660
sI5832
S'sports'
p5661
sI5833
S'health'
p5662
sI5834
S'magazine'
p5663
sI5835
S'nyregion'
p5664
sI5836
S'world'
p5665
sI5837
S'sports'
p5666
sI5838
S'technology'
p5667
sI5839
S'nyregion'
p5668
sI5840
S'fashion'
p5669
sI5841
S'us'
p5670
sI5842
S'fashion'
p5671
sI5843
S'fashion'
p5672
sI5844
S'us'
p5673
sI5845
S'business'
p5674
sI5846
S'business'
p5675
sI5847
S'technology'
p5676
sI5848
S'business'
p5677
sI5849
S'technology'
p5678
sI5850
S'technology'
p5679
sI5851
S'business'
p5680
sI5852
S'technology'
p5681
sI5853
S'technology'
p5682
sI5854
S'arts'
p5683
sI5855
S'world'
p5684
sI5856
S'health'
p5685
sI5857
S'nyregion'
p5686
sI5858
S'health'
p5687
sI5859
S'nyregion'
p5688
sI5860
S'magazine'
p5689
sI5861
S'sports'
p5690
sI5862
S'nyregion'
p5691
sI5863
S'sports'
p5692
sI5864
S'technology'
p5693
sI5865
S'fashion'
p5694
sI5866
S'sports'
p5695
sI5867
S'us'
p5696
sI5868
S'nyregion'
p5697
sI5869
S'us'
p5698
sI5870
S'business'
p5699
sI5871
S'fashion'
p5700
sI5872
S'business'
p5701
sI5873
S'business'
p5702
sI5874
S'fashion'
p5703
sI5875
S'nyregion'
p5704
sI5876
S'arts'
p5705
sI5877
S'sports'
p5706
sI5878
S'arts'
p5707
sI5879
S'business'
p5708
sI5880
S'world'
p5709
sI5881
S'sports'
p5710
sI5882
S'world'
p5711
sI5883
S'us'
p5712
sI5884
S'business'
p5713
sI5885
S'world'
p5714
sI5886
S'nyregion'
p5715
sI5887
S'world'
p5716
sI5888
S'sports'
p5717
sI5889
S'nyregion'
p5718
sI5890
S'world'
p5719
sI5891
S'fashion'
p5720
sI5892
S'business'
p5721
sI5893
S'world'
p5722
sI5894
S'technology'
p5723
sI5895
S'world'
p5724
sI5896
S'sports'
p5725
sI5897
S'nyregion'
p5726
sI5898
S'world'
p5727
sI5899
S'science'
p5728
sI5900
S'us'
p5729
sI5901
S'sports'
p5730
sI5902
S'business'
p5731
sI5903
S'business'
p5732
sI5904
S'business'
p5733
sI5905
S'business'
p5734
sI5906
S'business'
p5735
sI5907
S'business'
p5736
sI5908
S'business'
p5737
sI5909
S'business'
p5738
sI5910
S'science'
p5739
sI5911
S'sports'
p5740
sI5912
S'nyregion'
p5741
sI5913
S'business'
p5742
sI5914
S'nyregion'
p5743
sI5915
S'arts'
p5744
sI5916
S'business'
p5745
sI5917
S'sports'
p5746
sI5918
S'magazine'
p5747
sI5919
S'fashion'
p5748
sI5920
S'us'
p5749
sI5921
S'sports'
p5750
sI5922
S'us'
p5751
sI5923
S'world'
p5752
sI5924
S'business'
p5753
sI5925
S'technology'
p5754
sI5926
S'business'
p5755
sI5927
S'science'
p5756
sI5928
S'books'
p5757
sI5929
S'books'
p5758
sI5930
S'books'
p5759
sI5931
S'science'
p5760
sI5933
S'books'
p5761
sI5934
S'arts'
p5762
sI5935
S'us'
p5763
sI5936
S'world'
p5764
sI5937
S'sports'
p5765
sI5938
S'nyregion'
p5766
sI5939
S'business'
p5767
sI5940
S'arts'
p5768
sI5941
S'us'
p5769
sI5942
S'world'
p5770
sI5944
S'fashion'
p5771
sI5945
S'us'
p5772
sI5946
S'books'
p5773
sI5947
S'nyregion'
p5774
sI5948
S'us'
p5775
sI5949
S'world'
p5776
sI5950
S'magazine'
p5777
sI5951
S'us'
p5778
sI5952
S'world'
p5779
sI5953
S'business'
p5780
sI5954
S'books'
p5781
sI5955
S'arts'
p5782
sI5956
S'business'
p5783
sI5957
S'business'
p5784
sI5958
S'magazine'
p5785
sI5959
S'nyregion'
p5786
sI5960
S'us'
p5787
sI5961
S'nyregion'
p5788
sI5962
S'us'
p5789
sI5963
S'us'
p5790
sI5964
S'us'
p5791
sI5965
S'science'
p5792
sI5966
S'sports'
p5793
sI5967
S'arts'
p5794
sI5968
S'nyregion'
p5795
sI5969
S'us'
p5796
sI5970
S'us'
p5797
sI5971
S'business'
p5798
sI5972
S'business'
p5799
sI5973
S'business'
p5800
sI5974
S'business'
p5801
sI5975
S'us'
p5802
sI5976
S'us'
p5803
sI5977
S'fashion'
p5804
sI5978
S'health'
p5805
sI5979
S'technology'
p5806
sI5980
S'business'
p5807
sI5982
S'nyregion'
p5808
sI5983
S'nyregion'
p5809
sI5984
S'nyregion'
p5810
sI5985
S'business'
p5811
sI5987
S'nyregion'
p5812
sI5988
S'nyregion'
p5813
sI5989
S'fashion'
p5814
sI5990
S'arts'
p5815
sI5991
S'arts'
p5816
sI5992
S'arts'
p5817
sI5993
S'nyregion'
p5818
sI5994
S'sports'
p5819
sI5995
S'us'
p5820
sI5996
S'world'
p5821
sI5997
S'sports'
p5822
sI5998
S'world'
p5823
sI5999
S'business'
p5824
sI6000
S'us'
p5825
sI6001
S'world'
p5826
sI6002
S'world'
p5827
sI6003
S'world'
p5828
sI6004
S'world'
p5829
sI6006
S'world'
p5830
sI6007
S'world'
p5831
sI6008
S'us'
p5832
sI6009
S'nyregion'
p5833
sI6010
S'us'
p5834
sI6011
S'us'
p5835
sI6012
S'sports'
p5836
sI6013
S'us'
p5837
sI6014
S'nyregion'
p5838
sI6015
S'technology'
p5839
sI6016
S'sports'
p5840
sI6018
S'business'
p5841
sI6019
S'us'
p5842
sI6020
S'sports'
p5843
sI6021
S'sports'
p5844
sI6022
S'us'
p5845
sI6023
S'business'
p5846
sI6024
S'fashion'
p5847
sI6025
S'sports'
p5848
sI6026
S'us'
p5849
sI6027
S'us'
p5850
sI6028
S'science'
p5851
sI6029
S'technology'
p5852
sI6030
S'business'
p5853
sI6031
S'business'
p5854
sI6032
S'us'
p5855
sI6033
S'sports'
p5856
sI6034
S'world'
p5857
sI6035
S'world'
p5858
sI6036
S'us'
p5859
sI6037
S'world'
p5860
sI6038
S'us'
p5861
sI6039
S'sports'
p5862
sI6040
S'science'
p5863
sI6041
S'world'
p5864
sI6042
S'us'
p5865
sI6043
S'technology'
p5866
sI6044
S'health'
p5867
sI6045
S'us'
p5868
sI6046
S'books'
p5869
sI6047
S'world'
p5870
sI6048
S'nyregion'
p5871
sI6049
S'books'
p5872
sI6050
S'world'
p5873
sI6051
S'us'
p5874
sI6052
S'business'
p5875
sI6053
S'us'
p5876
sI6054
S'business'
p5877
sI6055
S'arts'
p5878
sI6056
S'us'
p5879
sI6057
S'books'
p5880
sI6059
S'fashion'
p5881
sI6060
S'arts'
p5882
sI6061
S'sports'
p5883
sI6062
S'us'
p5884
sI6063
S'world'
p5885
sI6065
S'technology'
p5886
sI6066
S'world'
p5887
sI6067
S'us'
p5888
sI6068
S'nyregion'
p5889
sI6069
S'arts'
p5890
sI6070
S'science'
p5891
sI6071
S'magazine'
p5892
sI6072
S'us'
p5893
sI6073
S'business'
p5894
sI6074
S'sports'
p5895
sI6075
S'sports'
p5896
sI6076
S'fashion'
p5897
sI6077
S'health'
p5898
sI6078
S'us'
p5899
sI6079
S'us'
p5900
sI6080
S'us'
p5901
sI6081
S'us'
p5902
sI6082
S'us'
p5903
sI6083
S'world'
p5904
sI6084
S'world'
p5905
sI6085
S'us'
p5906
sI6086
S'us'
p5907
sI6087
S'technology'
p5908
sI6088
S'us'
p5909
sI6089
S'business'
p5910
sI6090
S'technology'
p5911
sI6091
S'books'
p5912
sI6092
S'world'
p5913
sI6093
S'arts'
p5914
sI6094
S'sports'
p5915
sI6095
S'us'
p5916
sI6098
S'us'
p5917
sI6099
S'world'
p5918
sI6100
S'us'
p5919
sI6101
S'us'
p5920
sI6102
S'us'
p5921
sI6103
S'fashion'
p5922
sI6104
S'science'
p5923
sI6105
S'sports'
p5924
sI6106
S'science'
p5925
sI6107
S'sports'
p5926
sI6108
S'magazine'
p5927
sI6109
S'nyregion'
p5928
sI6110
S'science'
p5929
sI6111
S'nyregion'
p5930
sI6112
S'us'
p5931
sI6113
S'technology'
p5932
sI6114
S'magazine'
p5933
sI6115
S'business'
p5934
sI6116
S'business'
p5935
sI6117
S'nyregion'
p5936
sI6118
S'science'
p5937
sI6119
S'sports'
p5938
sI6120
S'arts'
p5939
sI6121
S'world'
p5940
sI6122
S'science'
p5941
sI6123
S'us'
p5942
sI6124
S'arts'
p5943
sI6125
S'us'
p5944
sI6126
S'technology'
p5945
sI6127
S'sports'
p5946
sI6128
S'arts'
p5947
sI6129
S'business'
p5948
sI6130
S'business'
p5949
sI6131
S'world'
p5950
sI6132
S'business'
p5951
sI6133
S'sports'
p5952
sI6134
S'business'
p5953
sI6135
S'sports'
p5954
sI6136
S'world'
p5955
sI6137
S'world'
p5956
sI6138
S'science'
p5957
sI6139
S'business'
p5958
sI6140
S'us'
p5959
sI6141
S'science'
p5960
sI6142
S'world'
p5961
sI6143
S'world'
p5962
sI6144
S'nyregion'
p5963
sI6145
S'world'
p5964
sI6146
S'us'
p5965
sI6147
S'business'
p5966
sI6148
S'us'
p5967
sI6149
S'nyregion'
p5968
sI6150
S'arts'
p5969
sI6151
S'nyregion'
p5970
sI6152
S'arts'
p5971
sI6153
S'arts'
p5972
sI6154
S'nyregion'
p5973
sI6155
S'business'
p5974
sI6156
S'world'
p5975
sI6157
S'us'
p5976
sI6158
S'us'
p5977
sI6159
S'arts'
p5978
sI6160
S'sports'
p5979
sI6161
S'world'
p5980
sI6162
S'magazine'
p5981
sI6163
S'books'
p5982
sI6164
S'fashion'
p5983
sI6165
S'business'
p5984
sI6166
S'us'
p5985
sI6167
S'nyregion'
p5986
sI6168
S'world'
p5987
sI6169
S'arts'
p5988
sI6170
S'technology'
p5989
sI6171
S'nyregion'
p5990
sI6172
S'nyregion'
p5991
sI6173
S'arts'
p5992
sI6174
S'arts'
p5993
sI6175
S'technology'
p5994
sI6176
S'sports'
p5995
sI6177
S'health'
p5996
sI6178
S'arts'
p5997
sI6179
S'fashion'
p5998
sI6180
S'sports'
p5999
sI6181
S'us'
p6000
sI6182
S'world'
p6001
sI6183
S'sports'
p6002
sI6184
S'us'
p6003
sI6185
S'us'
p6004
sI6186
S'us'
p6005
sI6187
S'us'
p6006
sI6188
S'nyregion'
p6007
sI6189
S'world'
p6008
sI6190
S'nyregion'
p6009
sI6191
S'world'
p6010
sI6192
S'world'
p6011
sI6193
S'world'
p6012
sI6194
S'world'
p6013
sI6195
S'business'
p6014
sI6196
S'sports'
p6015
sI6197
S'world'
p6016
sI6198
S'world'
p6017
sI6199
S'us'
p6018
sI6200
S'us'
p6019
sI6201
S'world'
p6020
sI6202
S'sports'
p6021
sI6203
S'us'
p6022
sI6204
S'sports'
p6023
sI6205
S'world'
p6024
sI6206
S'us'
p6025
sI6207
S'nyregion'
p6026
sI6208
S'us'
p6027
sI6209
S'us'
p6028
sI6210
S'us'
p6029
sI6211
S'sports'
p6030
sI6212
S'health'
p6031
sI6213
S'arts'
p6032
sI6214
S'science'
p6033
sI6215
S'business'
p6034
sI6216
S'nyregion'
p6035
sI6218
S'us'
p6036
sI6219
S'business'
p6037
sI6220
S'sports'
p6038
sI6221
S'us'
p6039
sI6222
S'business'
p6040
sI6223
S'magazine'
p6041
sI6224
S'technology'
p6042
sI6225
S'arts'
p6043
sI6226
S'world'
p6044
sI6227
S'world'
p6045
sI6228
S'arts'
p6046
sI6229
S'world'
p6047
sI6230
S'us'
p6048
sI6231
S'nyregion'
p6049
sI6232
S'us'
p6050
sI6233
S'world'
p6051
sI6234
S'business'
p6052
sI6235
S'business'
p6053
sI6237
S'us'
p6054
sI6238
S'nyregion'
p6055
sI6239
S'science'
p6056
sI6240
S'nyregion'
p6057
sI6241
S'sports'
p6058
sI6242
S'us'
p6059
sI6243
S'nyregion'
p6060
sI6244
S'books'
p6061
sI6245
S'magazine'
p6062
sI6246
S'arts'
p6063
sI6247
S'world'
p6064
sI6248
S'business'
p6065
sI6249
S'sports'
p6066
sI6250
S'us'
p6067
sI6251
S'arts'
p6068
sI6252
S'sports'
p6069
sI6254
S'arts'
p6070
sI6255
S'world'
p6071
sI6256
S'us'
p6072
sI6257
S'business'
p6073
sI6258
S'technology'
p6074
sI6259
S'us'
p6075
sI6260
S'us'
p6076
sI6261
S'books'
p6077
sI6262
S'arts'
p6078
sI6264
S'sports'
p6079
sI6265
S'us'
p6080
sI6266
S'nyregion'
p6081
sI6267
S'us'
p6082
sI6268
S'sports'
p6083
sI6269
S'us'
p6084
sI6270
S'sports'
p6085
sI6271
S'world'
p6086
sI6272
S'science'
p6087
sI6273
S'arts'
p6088
sI6275
S'business'
p6089
sI6276
S'world'
p6090
sI6277
S'science'
p6091
sI6278
S'sports'
p6092
sI6279
S'technology'
p6093
sI6280
S'us'
p6094
sI6281
S'sports'
p6095
sI6282
S'business'
p6096
sI6283
S'sports'
p6097
sI6284
S'sports'
p6098
sI6285
S'world'
p6099
sI6286
S'world'
p6100
sI6287
S'world'
p6101
sI6288
S'world'
p6102
sI6289
S'us'
p6103
sI6290
S'business'
p6104
sI6291
S'nyregion'
p6105
sI6292
S'nyregion'
p6106
sI6293
S'nyregion'
p6107
sI6294
S'arts'
p6108
sI6295
S'us'
p6109
sI6296
S'arts'
p6110
sI6297
S'nyregion'
p6111
sI6298
S'nyregion'
p6112
sI6299
S'business'
p6113
sI6300
S'business'
p6114
sI6301
S'world'
p6115
sI6302
S'science'
p6116
sI6303
S'nyregion'
p6117
sI6304
S'science'
p6118
sI6305
S'science'
p6119
sI6306
S'business'
p6120
sI6307
S'sports'
p6121
sI6308
S'business'
p6122
sI6309
S'us'
p6123
sI6310
S'world'
p6124
sI6311
S'world'
p6125
sI6312
S'business'
p6126
sI6313
S'sports'
p6127
sI6314
S'science'
p6128
sI6315
S'arts'
p6129
sI6317
S'world'
p6130
sI6318
S'world'
p6131
sI6319
S'health'
p6132
sI6320
S'world'
p6133
sI6321
S'fashion'
p6134
sI6322
S'business'
p6135
sI6323
S'business'
p6136
sI6324
S'technology'
p6137
sI6325
S'world'
p6138
sI6326
S'us'
p6139
sI6327
S'sports'
p6140
sI6328
S'us'
p6141
sI6329
S'fashion'
p6142
sI6330
S'sports'
p6143
sI6331
S'world'
p6144
sI6332
S'us'
p6145
sI6333
S'us'
p6146
sI6334
S'sports'
p6147
sI6335
S'us'
p6148
sI6336
S'world'
p6149
sI6337
S'us'
p6150
sI6338
S'world'
p6151
sI6339
S'us'
p6152
sI6340
S'arts'
p6153
sI6341
S'world'
p6154
sI6342
S'magazine'
p6155
sI6343
S'nyregion'
p6156
sI6344
S'us'
p6157
sI6345
S'arts'
p6158
sI6346
S'nyregion'
p6159
sI6347
S'arts'
p6160
sI6348
S'world'
p6161
sI6349
S'nyregion'
p6162
sI6350
S'us'
p6163
sI6351
S'technology'
p6164
sI6352
S'world'
p6165
sI6353
S'us'
p6166
sI6354
S'nyregion'
p6167
sI6355
S'technology'
p6168
sI6356
S'sports'
p6169
sI6357
S'us'
p6170
sI6358
S'world'
p6171
sI6359
S'health'
p6172
sI6360
S'books'
p6173
sI6361
S'nyregion'
p6174
sI6362
S'technology'
p6175
sI6363
S'world'
p6176
sI6364
S'arts'
p6177
sI6365
S'us'
p6178
sI6366
S'arts'
p6179
sI6367
S'arts'
p6180
sI6368
S'business'
p6181
sI6369
S'magazine'
p6182
sI6370
S'magazine'
p6183
sI6371
S'business'
p6184
sI6372
S'arts'
p6185
sI6373
S'nyregion'
p6186
sI6374
S'nyregion'
p6187
sI6375
S'technology'
p6188
sI6376
S'nyregion'
p6189
sI6378
S'us'
p6190
sI6379
S'business'
p6191
sI6380
S'books'
p6192
sI6381
S'us'
p6193
sI6382
S'science'
p6194
sI6383
S'magazine'
p6195
sI6384
S'world'
p6196
sI6385
S'business'
p6197
sI6386
S'nyregion'
p6198
sI6387
S'world'
p6199
sI6388
S'nyregion'
p6200
sI6389
S'health'
p6201
sI6390
S'arts'
p6202
sI6392
S'us'
p6203
sI6393
S'fashion'
p6204
sI6394
S'fashion'
p6205
sI6395
S'fashion'
p6206
sI6396
S'books'
p6207
sI6397
S'business'
p6208
sI6398
S'business'
p6209
sI6399
S'sports'
p6210
sI6400
S'science'
p6211
sI6401
S'business'
p6212
sI6402
S'sports'
p6213
sI6403
S'business'
p6214
sI6404
S'arts'
p6215
sI6405
S'us'
p6216
sI6406
S'science'
p6217
sI6407
S'us'
p6218
sI6408
S'fashion'
p6219
sI6409
S'fashion'
p6220
sI6410
S'business'
p6221
sI6411
S'arts'
p6222
sI6412
S'arts'
p6223
sI6413
S'world'
p6224
sI6414
S'books'
p6225
sI6415
S'nyregion'
p6226
sI6416
S'arts'
p6227
sI6417
S'us'
p6228
sI6418
S'science'
p6229
sI6419
S'sports'
p6230
sI6420
S'sports'
p6231
sI6421
S'sports'
p6232
sI6422
S'sports'
p6233
sI6423
S'sports'
p6234
sI6424
S'sports'
p6235
sI6425
S'fashion'
p6236
sI6426
S'business'
p6237
sI6427
S'technology'
p6238
sI6428
S'us'
p6239
sI6429
S'business'
p6240
sI6430
S'sports'
p6241
sI6431
S'world'
p6242
sI6432
S'business'
p6243
sI6433
S'sports'
p6244
sI6434
S'world'
p6245
sI6435
S'technology'
p6246
sI6436
S'us'
p6247
sI6437
S'nyregion'
p6248
sI6438
S'fashion'
p6249
sI6439
S'nyregion'
p6250
sI6440
S'us'
p6251
sI6441
S'us'
p6252
sI6442
S'world'
p6253
sI6443
S'arts'
p6254
sI6444
S'world'
p6255
sI6445
S'nyregion'
p6256
sI6446
S'fashion'
p6257
sI6447
S'sports'
p6258
sI6448
S'world'
p6259
sI6449
S'us'
p6260
sI6450
S'business'
p6261
sI6451
S'world'
p6262
sI6452
S'nyregion'
p6263
sI6453
S'business'
p6264
sI6454
S'world'
p6265
sI6455
S'business'
p6266
sI6456
S'fashion'
p6267
sI6457
S'world'
p6268
sI6458
S'arts'
p6269
sI6459
S'sports'
p6270
sI6460
S'sports'
p6271
sI6461
S'world'
p6272
sI6462
S'sports'
p6273
sI6464
S'sports'
p6274
sI6465
S'sports'
p6275
sI6466
S'sports'
p6276
sI6467
S'business'
p6277
sI6468
S'sports'
p6278
sI6469
S'technology'
p6279
sI6470
S'sports'
p6280
sI6471
S'books'
p6281
sI6472
S'nyregion'
p6282
sI6473
S'us'
p6283
sI6474
S'arts'
p6284
sI6475
S'fashion'
p6285
sI6476
S'arts'
p6286
sI6477
S'business'
p6287
sI6478
S'world'
p6288
sI6479
S'business'
p6289
sI6480
S'us'
p6290
sI6481
S'arts'
p6291
sI6482
S'science'
p6292
sI6483
S'sports'
p6293
sI6484
S'sports'
p6294
sI6485
S'sports'
p6295
sI6486
S'sports'
p6296
sI6487
S'magazine'
p6297
sI6488
S'sports'
p6298
sI6489
S'sports'
p6299
sI6490
S'sports'
p6300
sI6491
S'world'
p6301
sI6492
S'world'
p6302
sI6493
S'sports'
p6303
sI6494
S'sports'
p6304
sI6495
S'sports'
p6305
sI6496
S'sports'
p6306
sI6498
S'nyregion'
p6307
sI6499
S'business'
p6308
sI6500
S'sports'
p6309
sI6501
S'world'
p6310
sI6503
S'us'
p6311
sI6504
S'books'
p6312
sI6505
S'us'
p6313
sI6507
S'books'
p6314
sI6508
S'business'
p6315
sI6509
S'nyregion'
p6316
sI6510
S'health'
p6317
sI6511
S'world'
p6318
sI6512
S'business'
p6319
sI6513
S'us'
p6320
sI6514
S'us'
p6321
sI6515
S'business'
p6322
sI6516
S'arts'
p6323
sI6517
S'sports'
p6324
sI6518
S'nyregion'
p6325
sI6519
S'business'
p6326
sI6520
S'us'
p6327
sI6521
S'world'
p6328
sI6522
S'nyregion'
p6329
sI6523
S'sports'
p6330
sI6524
S'nyregion'
p6331
sI6525
S'us'
p6332
sI6526
S'books'
p6333
sI6527
S'us'
p6334
sI6528
S'business'
p6335
sI6529
S'magazine'
p6336
sI6530
S'arts'
p6337
sI6531
S'business'
p6338
sI6532
S'business'
p6339
sI6533
S'arts'
p6340
sI6534
S'us'
p6341
sI6535
S'us'
p6342
sI6536
S'business'
p6343
sI6537
S'us'
p6344
sI6538
S'sports'
p6345
sI6539
S'world'
p6346
sI6540
S'nyregion'
p6347
sI6541
S'business'
p6348
sI6542
S'arts'
p6349
sI6543
S'science'
p6350
sI6544
S'us'
p6351
sI6545
S'us'
p6352
sI6546
S'world'
p6353
sI6547
S'us'
p6354
sI6548
S'us'
p6355
sI6549
S'nyregion'
p6356
sI6550
S'us'
p6357
sI6551
S'arts'
p6358
sI6552
S'business'
p6359
sI6553
S'sports'
p6360
sI6554
S'sports'
p6361
sI6555
S'science'
p6362
sI6556
S'health'
p6363
sI6557
S'health'
p6364
sI6558
S'sports'
p6365
sI6559
S'us'
p6366
sI6560
S'sports'
p6367
sI6561
S'sports'
p6368
sI6562
S'sports'
p6369
sI6563
S'business'
p6370
sI6564
S'business'
p6371
sI6565
S'arts'
p6372
sI6566
S'fashion'
p6373
sI6567
S'fashion'
p6374
sI6568
S'sports'
p6375
sI6569
S'fashion'
p6376
sI6570
S'us'
p6377
sI6571
S'sports'
p6378
sI6572
S'us'
p6379
sI6573
S'arts'
p6380
sI6574
S'arts'
p6381
sI6575
S'sports'
p6382
sI6576
S'us'
p6383
sI6577
S'nyregion'
p6384
sI6578
S'business'
p6385
sI6579
S'sports'
p6386
sI6580
S'business'
p6387
sI6581
S'arts'
p6388
sI6582
S'books'
p6389
sI6583
S'nyregion'
p6390
sI6584
S'world'
p6391
sI6585
S'sports'
p6392
sI6586
S'health'
p6393
sI6587
S'business'
p6394
sI6588
S'business'
p6395
sI6589
S'nyregion'
p6396
sI6590
S'magazine'
p6397
sI6591
S'sports'
p6398
sI6592
S'sports'
p6399
sI6593
S'business'
p6400
sI6594
S'science'
p6401
sI6595
S'nyregion'
p6402
sI6596
S'business'
p6403
sI6597
S'world'
p6404
sI6598
S'business'
p6405
sI6599
S'arts'
p6406
sI6600
S'technology'
p6407
sI6601
S'business'
p6408
sI6602
S'nyregion'
p6409
sI6603
S'business'
p6410
sI6604
S'arts'
p6411
sI6605
S'world'
p6412
sI6606
S'fashion'
p6413
sI6607
S'sports'
p6414
sI6608
S'us'
p6415
sI6609
S'technology'
p6416
sI6610
S'us'
p6417
sI6611
S'business'
p6418
sI6612
S'fashion'
p6419
sI6613
S'technology'
p6420
sI6614
S'us'
p6421
sI6615
S'us'
p6422
sI6616
S'sports'
p6423
sI6617
S'nyregion'
p6424
sI6618
S'business'
p6425
sI6619
S'books'
p6426
sI6620
S'us'
p6427
sI6621
S'books'
p6428
sI6622
S'us'
p6429
sI6623
S'sports'
p6430
sI6624
S'sports'
p6431
sI6625
S'world'
p6432
sI6626
S'books'
p6433
sI6627
S'arts'
p6434
sI6628
S'magazine'
p6435
sI6629
S'us'
p6436
sI6630
S'fashion'
p6437
sI6631
S'technology'
p6438
sI6632
S'nyregion'
p6439
sI6633
S'science'
p6440
sI6634
S'fashion'
p6441
sI6635
S'us'
p6442
sI6636
S'us'
p6443
sI6637
S'world'
p6444
sI6638
S'sports'
p6445
sI6639
S'sports'
p6446
sI6640
S'arts'
p6447
sI6641
S'fashion'
p6448
sI6642
S'nyregion'
p6449
sI6643
S'fashion'
p6450
sI6644
S'business'
p6451
sI6645
S'fashion'
p6452
sI6646
S'fashion'
p6453
sI6647
S'fashion'
p6454
sI6648
S'fashion'
p6455
sI6649
S'nyregion'
p6456
sI6650
S'fashion'
p6457
sI6651
S'fashion'
p6458
sI6652
S'fashion'
p6459
sI6653
S'books'
p6460
sI6654
S'fashion'
p6461
sI6655
S'books'
p6462
sI6656
S'sports'
p6463
sI6657
S'business'
p6464
sI6658
S'us'
p6465
sI6659
S'business'
p6466
sI6660
S'nyregion'
p6467
sI6661
S'us'
p6468
sI6662
S'books'
p6469
sI6663
S'arts'
p6470
sI6664
S'arts'
p6471
sI6665
S'us'
p6472
sI6666
S'business'
p6473
sI6667
S'nyregion'
p6474
sI6668
S'books'
p6475
sI6669
S'us'
p6476
sI6670
S'sports'
p6477
sI6671
S'health'
p6478
sI6672
S'arts'
p6479
sI6673
S'business'
p6480
sI6674
S'business'
p6481
sI6675
S'books'
p6482
sI6676
S'us'
p6483
sI6677
S'us'
p6484
sI6678
S'nyregion'
p6485
sI6679
S'business'
p6486
sI6680
S'magazine'
p6487
sI6681
S'sports'
p6488
sI6682
S'business'
p6489
sI6683
S'world'
p6490
sI6685
S'us'
p6491
sI6686
S'us'
p6492
sI6687
S'nyregion'
p6493
sI6688
S'sports'
p6494
sI6689
S'science'
p6495
sI6690
S'arts'
p6496
sI6691
S'world'
p6497
sI6692
S'world'
p6498
sI6693
S'world'
p6499
sI6694
S'world'
p6500
sI6695
S'business'
p6501
sI6696
S'magazine'
p6502
sI6698
S'arts'
p6503
sI6700
S'world'
p6504
sI6701
S'arts'
p6505
sI6702
S'books'
p6506
sI6703
S'world'
p6507
sI6704
S'sports'
p6508
sI6705
S'sports'
p6509
sI6706
S'science'
p6510
sI6707
S'arts'
p6511
sI6709
S'business'
p6512
sI6710
S'health'
p6513
sI6711
S'us'
p6514
sI6712
S'magazine'
p6515
sI6713
S'arts'
p6516
sI6714
S'world'
p6517
sI6715
S'nyregion'
p6518
sI6716
S'nyregion'
p6519
sI6717
S'sports'
p6520
sI6718
S'books'
p6521
sI6719
S'fashion'
p6522
sI6720
S'sports'
p6523
sI6721
S'nyregion'
p6524
sI6722
S'nyregion'
p6525
sI6723
S'world'
p6526
sI6724
S'us'
p6527
sI6725
S'us'
p6528
sI6726
S'magazine'
p6529
sI6727
S'nyregion'
p6530
sI6728
S'sports'
p6531
sI6729
S'nyregion'
p6532
sI6730
S'business'
p6533
sI6731
S'nyregion'
p6534
sI6732
S'business'
p6535
sI6733
S'fashion'
p6536
sI6734
S'arts'
p6537
sI6735
S'fashion'
p6538
sI6737
S'nyregion'
p6539
sI6738
S'world'
p6540
sI6739
S'us'
p6541
sI6740
S'world'
p6542
sI6741
S'science'
p6543
sI6742
S'sports'
p6544
sI6743
S'science'
p6545
sI6744
S'business'
p6546
sI6745
S'sports'
p6547
sI6746
S'sports'
p6548
sI6747
S'world'
p6549
sI6748
S'world'
p6550
sI6749
S'business'
p6551
sI6750
S'business'
p6552
sI6751
S'us'
p6553
sI6752
S'business'
p6554
sI6753
S'books'
p6555
sI6754
S'books'
p6556
sI6755
S'world'
p6557
sI6756
S'us'
p6558
sI6757
S'world'
p6559
sI6758
S'world'
p6560
sI6759
S'nyregion'
p6561
sI6760
S'world'
p6562
sI6761
S'business'
p6563
sI6762
S'sports'
p6564
sI6763
S'us'
p6565
sI6764
S'science'
p6566
sI6765
S'arts'
p6567
sI6766
S'technology'
p6568
sI6767
S'fashion'
p6569
sI6769
S'sports'
p6570
sI6770
S'nyregion'
p6571
sI6771
S'nyregion'
p6572
sI6772
S'world'
p6573
sI6773
S'nyregion'
p6574
sI6774
S'us'
p6575
sI6775
S'fashion'
p6576
sI6776
S'sports'
p6577
sI6777
S'sports'
p6578
sI6778
S'world'
p6579
sI6779
S'arts'
p6580
sI6780
S'us'
p6581
sI6781
S'sports'
p6582
sI6782
S'sports'
p6583
sI6783
S'magazine'
p6584
sI6784
S'world'
p6585
sI6785
S'arts'
p6586
sI6786
S'us'
p6587
sI6787
S'world'
p6588
sI6788
S'world'
p6589
sI6790
S'world'
p6590
sI6791
S'health'
p6591
sI6792
S'health'
p6592
sI6793
S'business'
p6593
sI6794
S'world'
p6594
sI6795
S'us'
p6595
sI6796
S'sports'
p6596
sI6797
S'magazine'
p6597
sI6798
S'us'
p6598
sI6799
S'us'
p6599
sI6800
S'us'
p6600
sI6801
S'us'
p6601
sI6802
S'world'
p6602
sI6803
S'world'
p6603
sI6805
S'world'
p6604
sI6806
S'world'
p6605
sI6807
S'us'
p6606
sI6808
S'world'
p6607
sI6809
S'us'
p6608
sI6810
S'world'
p6609
sI6811
S'world'
p6610
sI6812
S'us'
p6611
sI6813
S'books'
p6612
sI6814
S'sports'
p6613
sI6816
S'sports'
p6614
sI6817
S'sports'
p6615
sI6818
S'sports'
p6616
sI6819
S'sports'
p6617
sI6820
S'sports'
p6618
sI6821
S'sports'
p6619
sI6822
S'science'
p6620
sI6823
S'business'
p6621
sI6824
S'science'
p6622
sI6825
S'arts'
p6623
sI6826
S'nyregion'
p6624
sI6827
S'world'
p6625
sI6828
S'nyregion'
p6626
sI6829
S'magazine'
p6627
sI6830
S'world'
p6628
sI6831
S'world'
p6629
sI6832
S'business'
p6630
sI6833
S'business'
p6631
sI6834
S'world'
p6632
sI6835
S'nyregion'
p6633
sI6836
S'us'
p6634
sI6837
S'world'
p6635
sI6838
S'sports'
p6636
sI6839
S'magazine'
p6637
sI6840
S'nyregion'
p6638
sI6841
S'arts'
p6639
sI6842
S'nyregion'
p6640
sI6843
S'world'
p6641
sI6844
S'world'
p6642
sI6845
S'world'
p6643
sI6846
S'technology'
p6644
sI6847
S'us'
p6645
sI6848
S'world'
p6646
sI6849
S'business'
p6647
sI6850
S'business'
p6648
sI6851
S'arts'
p6649
sI6852
S'nyregion'
p6650
sI6853
S'nyregion'
p6651
sI6854
S'magazine'
p6652
sI6856
S'us'
p6653
sI6857
S'us'
p6654
sI6858
S'nyregion'
p6655
sI6859
S'nyregion'
p6656
sI6860
S'nyregion'
p6657
sI6861
S'world'
p6658
sI6862
S'arts'
p6659
sI6863
S'magazine'
p6660
sI6864
S'magazine'
p6661
sI6865
S'world'
p6662
sI6866
S'us'
p6663
sI6867
S'arts'
p6664
sI6868
S'business'
p6665
sI6869
S'science'
p6666
sI6870
S'nyregion'
p6667
sI6871
S'fashion'
p6668
sI6872
S'us'
p6669
sI6873
S'world'
p6670
sI6874
S'arts'
p6671
sI6875
S'us'
p6672
sI6876
S'sports'
p6673
sI6877
S'nyregion'
p6674
sI6878
S'arts'
p6675
sI6879
S'business'
p6676
sI6880
S'sports'
p6677
sI6881
S'business'
p6678
sI6882
S'world'
p6679
sI6883
S'world'
p6680
sI6884
S'us'
p6681
sI6885
S'technology'
p6682
sI6886
S'us'
p6683
sI6887
S'magazine'
p6684
sI6888
S'business'
p6685
sI6889
S'us'
p6686
sI6890
S'us'
p6687
sI6891
S'business'
p6688
sI6892
S'world'
p6689
sI6893
S'arts'
p6690
sI6894
S'nyregion'
p6691
sI6895
S'nyregion'
p6692
sI6896
S'health'
p6693
sI6897
S'fashion'
p6694
sI6898
S'world'
p6695
sI6899
S'nyregion'
p6696
sI6900
S'science'
p6697
sI6901
S'business'
p6698
sI6902
S'world'
p6699
sI6903
S'arts'
p6700
sI6904
S'fashion'
p6701
sI6905
S'us'
p6702
sI6906
S'business'
p6703
sI6907
S'world'
p6704
sI6908
S'world'
p6705
sI6909
S'us'
p6706
sI6910
S'world'
p6707
sI6911
S'us'
p6708
sI6912
S'world'
p6709
sI6913
S'health'
p6710
sI6914
S'us'
p6711
sI6915
S'books'
p6712
sI6916
S'us'
p6713
sI6917
S'nyregion'
p6714
sI6918
S'technology'
p6715
sI6919
S'us'
p6716
sI6920
S'nyregion'
p6717
sI6921
S'world'
p6718
sI6922
S'us'
p6719
sI6923
S'science'
p6720
sI6924
S'books'
p6721
sI6925
S'arts'
p6722
sI6926
S'sports'
p6723
sI6927
S'us'
p6724
sI6928
S'arts'
p6725
sI6929
S'arts'
p6726
sI6930
S'arts'
p6727
sI6931
S'arts'
p6728
sI6932
S'nyregion'
p6729
sI6933
S'world'
p6730
sI6934
S'us'
p6731
sI6935
S'business'
p6732
sI6936
S'world'
p6733
sI6937
S'world'
p6734
sI6938
S'world'
p6735
sI6939
S'world'
p6736
sI6940
S'business'
p6737
sI6941
S'magazine'
p6738
sI6942
S'arts'
p6739
sI6943
S'health'
p6740
sI6944
S'nyregion'
p6741
sI6945
S'health'
p6742
sI6946
S'health'
p6743
sI6947
S'us'
p6744
sI6948
S'science'
p6745
sI6949
S'nyregion'
p6746
sI6951
S'science'
p6747
sI6953
S'us'
p6748
sI6954
S'arts'
p6749
sI6955
S'books'
p6750
sI6956
S'nyregion'
p6751
sI6957
S'us'
p6752
sI6958
S'arts'
p6753
sI6959
S'business'
p6754
sI6961
S'sports'
p6755
sI6962
S'science'
p6756
sI6963
S'arts'
p6757
sI6964
S'science'
p6758
sI6965
S'us'
p6759
sI6966
S'books'
p6760
sI6967
S'science'
p6761
sI6968
S'world'
p6762
sI6969
S'technology'
p6763
sI6970
S'nyregion'
p6764
sI6971
S'us'
p6765
sI6972
S'us'
p6766
sI6973
S'business'
p6767
sI6974
S'us'
p6768
sI6975
S'business'
p6769
sI6976
S'arts'
p6770
sI6978
S'sports'
p6771
sI6979
S'nyregion'
p6772
sI6980
S'business'
p6773
sI6981
S'us'
p6774
sI6982
S'science'
p6775
sI6983
S'us'
p6776
sI6984
S'technology'
p6777
sI6985
S'business'
p6778
sI6986
S'us'
p6779
sI6987
S'world'
p6780
sI6988
S'arts'
p6781
sI6989
S'health'
p6782
sI6990
S'us'
p6783
sI6991
S'us'
p6784
sI6992
S'world'
p6785
sI6993
S'world'
p6786
sI6994
S'world'
p6787
sI6995
S'us'
p6788
sI6996
S'nyregion'
p6789
sI6997
S'business'
p6790
sI6998
S'nyregion'
p6791
sI6999
S'world'
p6792
sI7000
S'us'
p6793
sI7001
S'magazine'
p6794
sI7002
S'world'
p6795
sI7003
S'business'
p6796
sI7004
S'business'
p6797
sI7005
S'nyregion'
p6798
sI7006
S'us'
p6799
sI7007
S'us'
p6800
sI7008
S'us'
p6801
sI7009
S'business'
p6802
sI7010
S'world'
p6803
sI7011
S'business'
p6804
sI7012
S'us'
p6805
sI7013
S'arts'
p6806
sI7014
S'nyregion'
p6807
sI7015
S'us'
p6808
sI7016
S'us'
p6809
sI7017
S'us'
p6810
sI7018
S'us'
p6811
sI7019
S'world'
p6812
sI7020
S'world'
p6813
sI7021
S'us'
p6814
sI7022
S'business'
p6815
sI7023
S'business'
p6816
sI7024
S'fashion'
p6817
sI7025
S'arts'
p6818
sI7026
S'nyregion'
p6819
sI7027
S'world'
p6820
sI7028
S'arts'
p6821
sI7029
S'sports'
p6822
sI7030
S'business'
p6823
sI7031
S'world'
p6824
sI7032
S'nyregion'
p6825
sI7033
S'fashion'
p6826
sI7034
S'us'
p6827
sI7036
S'science'
p6828
sI7037
S'books'
p6829
sI7038
S'nyregion'
p6830
sI7039
S'world'
p6831
sI7040
S'sports'
p6832
sI7041
S'nyregion'
p6833
sI7042
S'us'
p6834
sI7043
S'nyregion'
p6835
sI7044
S'us'
p6836
sI7045
S'sports'
p6837
sI7046
S'arts'
p6838
sI7047
S'world'
p6839
sI7048
S'world'
p6840
sI7049
S'sports'
p6841
sI7050
S'us'
p6842
sI7051
S'arts'
p6843
sI7053
S'books'
p6844
sI7054
S'nyregion'
p6845
sI7055
S'arts'
p6846
sI7056
S'business'
p6847
sI7057
S'us'
p6848
sI7058
S'sports'
p6849
sI7059
S'us'
p6850
sI7060
S'us'
p6851
sI7061
S'world'
p6852
sI7062
S'sports'
p6853
sI7063
S'business'
p6854
sI7064
S'business'
p6855
sI7065
S'business'
p6856
sI7067
S'us'
p6857
sI7068
S'nyregion'
p6858
sI7069
S'science'
p6859
sI7070
S'nyregion'
p6860
sI7071
S'us'
p6861
sI7072
S'us'
p6862
sI7073
S'fashion'
p6863
sI7074
S'arts'
p6864
sI7075
S'books'
p6865
sI7076
S'business'
p6866
sI7077
S'business'
p6867
sI7078
S'arts'
p6868
sI7079
S'business'
p6869
sI7080
S'world'
p6870
sI7081
S'us'
p6871
sI7082
S'magazine'
p6872
sI7084
S'us'
p6873
sI7085
S'sports'
p6874
sI7086
S'nyregion'
p6875
sI7087
S'books'
p6876
sI7088
S'sports'
p6877
sI7089
S'magazine'
p6878
sI7090
S'us'
p6879
sI7091
S'sports'
p6880
sI7092
S'us'
p6881
sI7093
S'arts'
p6882
sI7094
S'sports'
p6883
sI7095
S'sports'
p6884
sI7096
S'sports'
p6885
sI7097
S'sports'
p6886
sI7098
S'fashion'
p6887
sI7099
S'magazine'
p6888
sI7100
S'sports'
p6889
sI7101
S'business'
p6890
sI7102
S'business'
p6891
sI7103
S'us'
p6892
sI7104
S'world'
p6893
sI7105
S'us'
p6894
sI7106
S'business'
p6895
sI7107
S'world'
p6896
sI7108
S'magazine'
p6897
sI7109
S'world'
p6898
sI7111
S'sports'
p6899
sI7112
S'sports'
p6900
sI7113
S'nyregion'
p6901
sI7114
S'business'
p6902
sI7115
S'fashion'
p6903
sI7116
S'world'
p6904
sI7117
S'arts'
p6905
sI7118
S'nyregion'
p6906
sI7119
S'business'
p6907
sI7120
S'technology'
p6908
sI7121
S'business'
p6909
sI7122
S'technology'
p6910
sI7123
S'magazine'
p6911
sI7124
S'magazine'
p6912
sI7125
S'technology'
p6913
sI7126
S'books'
p6914
sI7127
S'business'
p6915
sI7128
S'nyregion'
p6916
sI7129
S'sports'
p6917
sI7130
S'us'
p6918
sI7131
S'arts'
p6919
sI7132
S'us'
p6920
sI7133
S'us'
p6921
sI7134
S'sports'
p6922
sI7135
S'books'
p6923
sI7136
S'us'
p6924
sI7137
S'nyregion'
p6925
sI7138
S'sports'
p6926
sI7139
S'arts'
p6927
sI7140
S'arts'
p6928
sI7141
S'arts'
p6929
sI7142
S'arts'
p6930
sI7143
S'arts'
p6931
sI7144
S'arts'
p6932
sI7145
S'arts'
p6933
sI7146
S'arts'
p6934
sI7147
S'arts'
p6935
sI7148
S'arts'
p6936
sI7149
S'arts'
p6937
sI7150
S'arts'
p6938
sI7151
S'world'
p6939
sI7152
S'world'
p6940
sI7153
S'arts'
p6941
sI7154
S'world'
p6942
sI7155
S'sports'
p6943
sI7156
S'business'
p6944
sI7157
S'world'
p6945
sI7159
S'world'
p6946
sI7160
S'fashion'
p6947
sI7161
S'us'
p6948
sI7162
S'world'
p6949
sI7163
S'arts'
p6950
sI7164
S'science'
p6951
sI7165
S'sports'
p6952
sI7166
S'sports'
p6953
sI7167
S'sports'
p6954
sI7168
S'nyregion'
p6955
sI7169
S'arts'
p6956
sI7170
S'world'
p6957
sI7171
S'us'
p6958
sI7172
S'us'
p6959
sI7173
S'sports'
p6960
sI7175
S'world'
p6961
sI7176
S'world'
p6962
sI7177
S'nyregion'
p6963
sI7178
S'us'
p6964
sI7179
S'us'
p6965
sI7180
S'sports'
p6966
sI7181
S'nyregion'
p6967
sI7182
S'fashion'
p6968
sI7183
S'us'
p6969
sI7184
S'books'
p6970
sI7185
S'nyregion'
p6971
sI7186
S'sports'
p6972
sI7187
S'sports'
p6973
sI7188
S'sports'
p6974
sI7189
S'health'
p6975
sI7190
S'us'
p6976
sI7191
S'health'
p6977
sI7192
S'nyregion'
p6978
sI7193
S'nyregion'
p6979
sI7194
S'world'
p6980
sI7195
S'world'
p6981
sI7196
S'world'
p6982
sI7197
S'science'
p6983
sI7198
S'us'
p6984
sI7199
S'nyregion'
p6985
sI7200
S'nyregion'
p6986
sI7201
S'nyregion'
p6987
sI7202
S'business'
p6988
sI7203
S'world'
p6989
sI7204
S'world'
p6990
sI7205
S'magazine'
p6991
sI7206
S'us'
p6992
sI7207
S'us'
p6993
sI7208
S'world'
p6994
sI7209
S'world'
p6995
sI7210
S'us'
p6996
sI7211
S'world'
p6997
sI7212
S'magazine'
p6998
sI7213
S'arts'
p6999
sI7214
S'business'
p7000
sI7215
S'science'
p7001
sI7216
S'us'
p7002
sI7218
S'science'
p7003
sI7219
S'us'
p7004
sI7220
S'health'
p7005
sI7221
S'nyregion'
p7006
sI7222
S'books'
p7007
sI7223
S'us'
p7008
sI7224
S'world'
p7009
sI7226
S'nyregion'
p7010
sI7227
S'us'
p7011
sI7228
S'sports'
p7012
sI7229
S'magazine'
p7013
sI7230
S'us'
p7014
sI7231
S'nyregion'
p7015
sI7232
S'sports'
p7016
sI7233
S'us'
p7017
sI7234
S'world'
p7018
sI7235
S'arts'
p7019
sI7236
S'business'
p7020
sI7237
S'world'
p7021
sI7238
S'magazine'
p7022
sI7239
S'arts'
p7023
sI7240
S'health'
p7024
sI7241
S'business'
p7025
sI7242
S'world'
p7026
sI7243
S'business'
p7027
sI7244
S'us'
p7028
sI7245
S'world'
p7029
sI7246
S'fashion'
p7030
sI7247
S'nyregion'
p7031
sI7248
S'sports'
p7032
sI7249
S'us'
p7033
sI7250
S'books'
p7034
sI7251
S'sports'
p7035
sI7253
S'world'
p7036
sI7254
S'us'
p7037
sI7255
S'world'
p7038
sI7256
S'sports'
p7039
sI7257
S'business'
p7040
sI7258
S'world'
p7041
sI7259
S'nyregion'
p7042
sI7260
S'nyregion'
p7043
sI7261
S'technology'
p7044
sI7262
S'arts'
p7045
sI7263
S'arts'
p7046
sI7264
S'us'
p7047
sI7265
S'magazine'
p7048
sI7266
S'us'
p7049
sI7267
S'health'
p7050
sI7268
S'magazine'
p7051
sI7269
S'business'
p7052
sI7270
S'world'
p7053
sI7271
S'business'
p7054
sI7272
S'science'
p7055
sI7273
S'health'
p7056
sI7274
S'nyregion'
p7057
sI7275
S'nyregion'
p7058
sI7276
S'sports'
p7059
sI7277
S'fashion'
p7060
sI7278
S'magazine'
p7061
sI7279
S'sports'
p7062
sI7280
S'sports'
p7063
sI7281
S'technology'
p7064
sI7282
S'arts'
p7065
sI7283
S'nyregion'
p7066
sI7284
S'health'
p7067
sI7285
S'sports'
p7068
sI7286
S'world'
p7069
sI7287
S'us'
p7070
sI7288
S'us'
p7071
sI7289
S'us'
p7072
sI7291
S'world'
p7073
sI7292
S'us'
p7074
sI7293
S'us'
p7075
sI7294
S'books'
p7076
sI7295
S'technology'
p7077
sI7296
S'fashion'
p7078
sI7297
S'nyregion'
p7079
sI7298
S'world'
p7080
sI7299
S'fashion'
p7081
sI7300
S'fashion'
p7082
s.