(dp1
I0
S'currentAffairs'
p2
sI1
S'business'
p3
sI2
S'currentAffairs'
p4
sI3
S'arts'
p5
sI4
S'currentAffairs'
p6
sI5
S'sports'
p7
sI6
S'arts'
p8
sI7
S'science'
p9
sI8
S'currentAffairs'
p10
sI9
S'arts'
p11
sI10
S'arts'
p12
sI11
S'currentAffairs'
p13
sI12
S'arts'
p14
sI13
S'science'
p15
sI14
S'currentAffairs'
p16
sI15
S'science'
p17
sI16
S'science'
p18
sI17
S'arts'
p19
sI18
S'currentAffairs'
p20
sI19
S'sports'
p21
sI20
S'currentAffairs'
p22
sI21
S'science'
p23
sI22
S'science'
p24
sI23
S'currentAffairs'
p25
sI24
S'currentAffairs'
p26
sI25
S'science'
p27
sI26
S'arts'
p28
sI27
S'currentAffairs'
p29
sI28
S'science'
p30
sI29
S'sports'
p31
sI30
S'currentAffairs'
p32
sI31
S'currentAffairs'
p33
sI32
S'currentAffairs'
p34
sI33
S'business'
p35
sI34
S'currentAffairs'
p36
sI35
S'currentAffairs'
p37
sI36
S'science'
p38
sI37
S'arts'
p39
sI38
S'arts'
p40
sI39
S'currentAffairs'
p41
sI40
S'currentAffairs'
p42
sI41
S'sports'
p43
sI42
S'currentAffairs'
p44
sI43
S'currentAffairs'
p45
sI44
S'sports'
p46
sI45
S'currentAffairs'
p47
sI46
S'currentAffairs'
p48
sI47
S'arts'
p49
sI48
S'currentAffairs'
p50
sI49
S'science'
p51
sI50
S'sports'
p52
sI51
S'science'
p53
sI52
S'sports'
p54
sI53
S'sports'
p55
sI54
S'arts'
p56
sI55
S'currentAffairs'
p57
sI56
S'currentAffairs'
p58
sI57
S'currentAffairs'
p59
sI58
S'science'
p60
sI59
S'arts'
p61
sI60
S'arts'
p62
sI61
S'currentAffairs'
p63
sI62
S'currentAffairs'
p64
sI63
S'arts'
p65
sI64
S'currentAffairs'
p66
sI65
S'business'
p67
sI66
S'science'
p68
sI67
S'currentAffairs'
p69
sI68
S'science'
p70
sI69
S'currentAffairs'
p71
sI70
S'currentAffairs'
p72
sI71
S'currentAffairs'
p73
sI72
S'currentAffairs'
p74
sI73
S'currentAffairs'
p75
sI74
S'currentAffairs'
p76
sI75
S'arts'
p77
sI76
S'science'
p78
sI77
S'currentAffairs'
p79
sI78
S'business'
p80
sI79
S'business'
p81
sI80
S'currentAffairs'
p82
sI81
S'sports'
p83
sI82
S'currentAffairs'
p84
sI83
S'currentAffairs'
p85
sI84
S'currentAffairs'
p86
sI85
S'science'
p87
sI86
S'science'
p88
sI87
S'science'
p89
sI88
S'business'
p90
sI89
S'sports'
p91
sI90
S'currentAffairs'
p92
sI91
S'currentAffairs'
p93
sI92
S'arts'
p94
sI93
S'currentAffairs'
p95
sI94
S'currentAffairs'
p96
sI95
S'currentAffairs'
p97
sI96
S'business'
p98
sI97
S'currentAffairs'
p99
sI98
S'currentAffairs'
p100
sI99
S'science'
p101
sI100
S'currentAffairs'
p102
sI101
S'currentAffairs'
p103
sI102
S'sports'
p104
sI103
S'science'
p105
sI104
S'currentAffairs'
p106
sI105
S'currentAffairs'
p107
sI106
S'currentAffairs'
p108
sI107
S'currentAffairs'
p109
sI108
S'currentAffairs'
p110
sI109
S'science'
p111
sI110
S'arts'
p112
sI111
S'currentAffairs'
p113
sI112
S'currentAffairs'
p114
sI113
S'currentAffairs'
p115
sI114
S'currentAffairs'
p116
sI115
S'currentAffairs'
p117
sI116
S'sports'
p118
sI117
S'sports'
p119
sI118
S'currentAffairs'
p120
sI119
S'science'
p121
sI120
S'arts'
p122
sI121
S'science'
p123
sI122
S'science'
p124
sI123
S'science'
p125
sI124
S'currentAffairs'
p126
sI125
S'currentAffairs'
p127
sI126
S'arts'
p128
sI127
S'arts'
p129
sI128
S'science'
p130
sI129
S'arts'
p131
sI130
S'science'
p132
sI131
S'currentAffairs'
p133
sI132
S'currentAffairs'
p134
sI133
S'business'
p135
sI134
S'currentAffairs'
p136
sI135
S'currentAffairs'
p137
sI136
S'currentAffairs'
p138
sI137
S'currentAffairs'
p139
sI138
S'currentAffairs'
p140
sI139
S'currentAffairs'
p141
sI140
S'currentAffairs'
p142
sI141
S'science'
p143
sI142
S'sports'
p144
sI143
S'sports'
p145
sI144
S'business'
p146
sI145
S'arts'
p147
sI146
S'currentAffairs'
p148
sI147
S'science'
p149
sI148
S'arts'
p150
sI149
S'currentAffairs'
p151
sI150
S'arts'
p152
sI151
S'currentAffairs'
p153
sI152
S'currentAffairs'
p154
sI153
S'business'
p155
sI154
S'currentAffairs'
p156
sI155
S'business'
p157
sI156
S'currentAffairs'
p158
sI157
S'arts'
p159
sI158
S'arts'
p160
sI159
S'arts'
p161
sI160
S'arts'
p162
sI161
S'arts'
p163
sI162
S'currentAffairs'
p164
sI163
S'science'
p165
sI164
S'science'
p166
sI165
S'currentAffairs'
p167
sI166
S'currentAffairs'
p168
sI167
S'sports'
p169
sI168
S'currentAffairs'
p170
sI169
S'currentAffairs'
p171
sI170
S'currentAffairs'
p172
sI171
S'arts'
p173
sI172
S'arts'
p174
sI173
S'currentAffairs'
p175
sI174
S'sports'
p176
sI175
S'business'
p177
sI176
S'currentAffairs'
p178
sI177
S'business'
p179
sI178
S'science'
p180
sI179
S'currentAffairs'
p181
sI180
S'currentAffairs'
p182
sI181
S'science'
p183
sI182
S'sports'
p184
sI183
S'currentAffairs'
p185
sI184
S'currentAffairs'
p186
sI185
S'sports'
p187
sI186
S'currentAffairs'
p188
sI187
S'business'
p189
sI188
S'currentAffairs'
p190
sI189
S'science'
p191
sI190
S'business'
p192
sI191
S'currentAffairs'
p193
sI192
S'currentAffairs'
p194
sI193
S'currentAffairs'
p195
sI194
S'currentAffairs'
p196
sI195
S'currentAffairs'
p197
sI196
S'currentAffairs'
p198
sI197
S'business'
p199
sI198
S'currentAffairs'
p200
sI199
S'currentAffairs'
p201
sI200
S'sports'
p202
sI201
S'arts'
p203
sI202
S'business'
p204
sI203
S'currentAffairs'
p205
sI204
S'currentAffairs'
p206
sI205
S'currentAffairs'
p207
sI206
S'currentAffairs'
p208
sI207
S'business'
p209
sI208
S'science'
p210
sI209
S'currentAffairs'
p211
sI210
S'arts'
p212
sI211
S'currentAffairs'
p213
sI212
S'currentAffairs'
p214
sI213
S'currentAffairs'
p215
sI214
S'arts'
p216
sI215
S'arts'
p217
sI216
S'arts'
p218
sI217
S'science'
p219
sI218
S'currentAffairs'
p220
sI219
S'currentAffairs'
p221
sI220
S'science'
p222
sI221
S'currentAffairs'
p223
sI222
S'currentAffairs'
p224
sI223
S'currentAffairs'
p225
sI224
S'arts'
p226
sI225
S'business'
p227
sI226
S'currentAffairs'
p228
sI227
S'currentAffairs'
p229
sI228
S'currentAffairs'
p230
sI229
S'business'
p231
sI230
S'currentAffairs'
p232
sI231
S'currentAffairs'
p233
sI232
S'arts'
p234
sI233
S'currentAffairs'
p235
sI234
S'currentAffairs'
p236
sI235
S'science'
p237
sI236
S'science'
p238
sI237
S'arts'
p239
sI238
S'science'
p240
sI239
S'science'
p241
sI240
S'arts'
p242
sI241
S'business'
p243
sI242
S'currentAffairs'
p244
sI243
S'business'
p245
sI244
S'science'
p246
sI245
S'arts'
p247
sI246
S'arts'
p248
sI247
S'sports'
p249
sI248
S'arts'
p250
sI249
S'currentAffairs'
p251
sI250
S'currentAffairs'
p252
sI251
S'arts'
p253
sI252
S'arts'
p254
sI253
S'currentAffairs'
p255
sI254
S'sports'
p256
sI255
S'arts'
p257
sI256
S'sports'
p258
sI257
S'science'
p259
sI258
S'science'
p260
sI259
S'arts'
p261
sI260
S'business'
p262
sI261
S'currentAffairs'
p263
sI262
S'currentAffairs'
p264
sI263
S'currentAffairs'
p265
sI264
S'currentAffairs'
p266
sI265
S'currentAffairs'
p267
sI266
S'arts'
p268
sI267
S'sports'
p269
sI268
S'currentAffairs'
p270
sI269
S'currentAffairs'
p271
sI270
S'business'
p272
sI271
S'arts'
p273
sI272
S'sports'
p274
sI273
S'science'
p275
sI274
S'business'
p276
sI275
S'business'
p277
sI276
S'currentAffairs'
p278
sI277
S'science'
p279
sI278
S'currentAffairs'
p280
sI279
S'arts'
p281
sI280
S'sports'
p282
sI281
S'business'
p283
sI282
S'currentAffairs'
p284
sI283
S'currentAffairs'
p285
sI284
S'currentAffairs'
p286
sI285
S'science'
p287
sI286
S'currentAffairs'
p288
sI287
S'sports'
p289
sI288
S'currentAffairs'
p290
sI289
S'business'
p291
sI290
S'arts'
p292
sI291
S'currentAffairs'
p293
sI292
S'currentAffairs'
p294
sI293
S'science'
p295
sI294
S'science'
p296
sI295
S'currentAffairs'
p297
sI296
S'currentAffairs'
p298
sI297
S'currentAffairs'
p299
sI298
S'currentAffairs'
p300
sI299
S'arts'
p301
sI300
S'currentAffairs'
p302
sI301
S'currentAffairs'
p303
sI302
S'sports'
p304
sI303
S'business'
p305
sI304
S'currentAffairs'
p306
sI305
S'currentAffairs'
p307
sI306
S'currentAffairs'
p308
sI307
S'arts'
p309
sI308
S'currentAffairs'
p310
sI309
S'currentAffairs'
p311
sI310
S'arts'
p312
sI311
S'currentAffairs'
p313
sI312
S'currentAffairs'
p314
sI313
S'currentAffairs'
p315
sI314
S'currentAffairs'
p316
sI315
S'arts'
p317
sI316
S'currentAffairs'
p318
sI317
S'business'
p319
sI318
S'arts'
p320
sI319
S'arts'
p321
sI320
S'currentAffairs'
p322
sI321
S'currentAffairs'
p323
sI322
S'sports'
p324
sI323
S'currentAffairs'
p325
sI324
S'currentAffairs'
p326
sI325
S'business'
p327
sI326
S'business'
p328
sI327
S'arts'
p329
sI328
S'currentAffairs'
p330
sI329
S'currentAffairs'
p331
sI330
S'science'
p332
sI331
S'science'
p333
sI332
S'currentAffairs'
p334
sI333
S'sports'
p335
sI334
S'currentAffairs'
p336
sI335
S'sports'
p337
sI336
S'currentAffairs'
p338
sI337
S'currentAffairs'
p339
sI338
S'sports'
p340
sI339
S'sports'
p341
sI340
S'sports'
p342
sI341
S'sports'
p343
sI342
S'currentAffairs'
p344
sI343
S'currentAffairs'
p345
sI344
S'sports'
p346
sI345
S'currentAffairs'
p347
sI346
S'currentAffairs'
p348
sI347
S'currentAffairs'
p349
sI348
S'currentAffairs'
p350
sI349
S'currentAffairs'
p351
sI350
S'currentAffairs'
p352
sI351
S'sports'
p353
sI352
S'sports'
p354
sI353
S'currentAffairs'
p355
sI354
S'currentAffairs'
p356
sI355
S'currentAffairs'
p357
sI356
S'currentAffairs'
p358
sI357
S'currentAffairs'
p359
sI358
S'currentAffairs'
p360
sI359
S'currentAffairs'
p361
sI360
S'sports'
p362
sI361
S'currentAffairs'
p363
sI362
S'currentAffairs'
p364
sI363
S'currentAffairs'
p365
sI364
S'currentAffairs'
p366
sI365
S'science'
p367
sI366
S'currentAffairs'
p368
sI367
S'science'
p369
sI368
S'science'
p370
sI369
S'currentAffairs'
p371
sI370
S'science'
p372
sI371
S'currentAffairs'
p373
sI372
S'arts'
p374
sI373
S'business'
p375
sI374
S'sports'
p376
sI375
S'sports'
p377
sI376
S'currentAffairs'
p378
sI377
S'currentAffairs'
p379
sI378
S'currentAffairs'
p380
sI379
S'sports'
p381
sI380
S'currentAffairs'
p382
sI381
S'sports'
p383
sI382
S'arts'
p384
sI383
S'currentAffairs'
p385
sI384
S'arts'
p386
sI385
S'currentAffairs'
p387
sI386
S'sports'
p388
sI387
S'sports'
p389
sI388
S'currentAffairs'
p390
sI389
S'currentAffairs'
p391
sI390
S'currentAffairs'
p392
sI391
S'science'
p393
sI392
S'currentAffairs'
p394
sI393
S'currentAffairs'
p395
sI394
S'currentAffairs'
p396
sI395
S'sports'
p397
sI396
S'currentAffairs'
p398
sI397
S'arts'
p399
sI398
S'currentAffairs'
p400
sI399
S'currentAffairs'
p401
sI400
S'currentAffairs'
p402
sI401
S'currentAffairs'
p403
sI402
S'currentAffairs'
p404
sI403
S'business'
p405
sI404
S'arts'
p406
sI405
S'currentAffairs'
p407
sI406
S'currentAffairs'
p408
sI407
S'currentAffairs'
p409
sI408
S'currentAffairs'
p410
sI409
S'currentAffairs'
p411
sI410
S'currentAffairs'
p412
sI411
S'currentAffairs'
p413
sI412
S'science'
p414
sI413
S'currentAffairs'
p415
sI414
S'currentAffairs'
p416
sI415
S'business'
p417
sI416
S'currentAffairs'
p418
sI417
S'currentAffairs'
p419
sI418
S'arts'
p420
sI419
S'currentAffairs'
p421
sI420
S'arts'
p422
sI421
S'science'
p423
sI422
S'arts'
p424
sI423
S'arts'
p425
sI424
S'science'
p426
sI425
S'currentAffairs'
p427
sI426
S'currentAffairs'
p428
sI427
S'sports'
p429
sI428
S'currentAffairs'
p430
sI429
S'business'
p431
sI430
S'currentAffairs'
p432
sI431
S'business'
p433
sI432
S'currentAffairs'
p434
sI433
S'science'
p435
sI434
S'business'
p436
sI435
S'currentAffairs'
p437
sI436
S'sports'
p438
sI437
S'business'
p439
sI438
S'currentAffairs'
p440
sI439
S'currentAffairs'
p441
sI440
S'business'
p442
sI441
S'science'
p443
sI442
S'science'
p444
sI443
S'currentAffairs'
p445
sI444
S'currentAffairs'
p446
sI445
S'currentAffairs'
p447
sI446
S'currentAffairs'
p448
sI447
S'currentAffairs'
p449
sI448
S'currentAffairs'
p450
sI449
S'science'
p451
sI450
S'science'
p452
sI451
S'currentAffairs'
p453
sI452
S'currentAffairs'
p454
sI453
S'sports'
p455
sI454
S'currentAffairs'
p456
sI455
S'currentAffairs'
p457
sI456
S'currentAffairs'
p458
sI457
S'currentAffairs'
p459
sI458
S'science'
p460
sI459
S'currentAffairs'
p461
sI460
S'business'
p462
sI461
S'science'
p463
sI462
S'currentAffairs'
p464
sI463
S'sports'
p465
sI464
S'sports'
p466
sI465
S'sports'
p467
sI466
S'currentAffairs'
p468
sI467
S'currentAffairs'
p469
sI468
S'currentAffairs'
p470
sI469
S'currentAffairs'
p471
sI470
S'currentAffairs'
p472
sI471
S'currentAffairs'
p473
sI472
S'sports'
p474
sI473
S'currentAffairs'
p475
sI474
S'currentAffairs'
p476
sI475
S'currentAffairs'
p477
sI476
S'currentAffairs'
p478
sI477
S'currentAffairs'
p479
sI478
S'currentAffairs'
p480
sI479
S'currentAffairs'
p481
sI480
S'currentAffairs'
p482
sI481
S'science'
p483
sI482
S'currentAffairs'
p484
sI483
S'currentAffairs'
p485
sI484
S'currentAffairs'
p486
sI485
S'arts'
p487
sI486
S'currentAffairs'
p488
sI487
S'currentAffairs'
p489
sI488
S'currentAffairs'
p490
sI489
S'currentAffairs'
p491
sI490
S'currentAffairs'
p492
sI491
S'currentAffairs'
p493
sI492
S'sports'
p494
sI493
S'science'
p495
sI494
S'currentAffairs'
p496
sI495
S'currentAffairs'
p497
sI496
S'science'
p498
sI497
S'currentAffairs'
p499
sI498
S'science'
p500
sI499
S'currentAffairs'
p501
sI500
S'sports'
p502
sI501
S'currentAffairs'
p503
sI502
S'currentAffairs'
p504
sI503
S'currentAffairs'
p505
sI504
S'currentAffairs'
p506
sI505
S'sports'
p507
sI506
S'sports'
p508
sI507
S'currentAffairs'
p509
sI508
S'currentAffairs'
p510
sI509
S'science'
p511
sI510
S'sports'
p512
sI511
S'business'
p513
sI512
S'sports'
p514
sI513
S'sports'
p515
sI514
S'currentAffairs'
p516
sI515
S'currentAffairs'
p517
sI516
S'currentAffairs'
p518
sI517
S'currentAffairs'
p519
sI518
S'currentAffairs'
p520
sI519
S'currentAffairs'
p521
sI520
S'currentAffairs'
p522
sI521
S'sports'
p523
sI522
S'science'
p524
sI523
S'science'
p525
sI524
S'currentAffairs'
p526
sI525
S'currentAffairs'
p527
sI526
S'science'
p528
sI527
S'sports'
p529
sI528
S'currentAffairs'
p530
sI529
S'arts'
p531
sI530
S'currentAffairs'
p532
sI531
S'currentAffairs'
p533
sI532
S'business'
p534
sI533
S'arts'
p535
sI534
S'currentAffairs'
p536
sI535
S'currentAffairs'
p537
sI536
S'arts'
p538
sI537
S'arts'
p539
sI538
S'business'
p540
sI539
S'sports'
p541
sI540
S'currentAffairs'
p542
sI541
S'currentAffairs'
p543
sI542
S'currentAffairs'
p544
sI543
S'business'
p545
sI544
S'arts'
p546
sI545
S'science'
p547
sI546
S'currentAffairs'
p548
sI547
S'arts'
p549
sI548
S'currentAffairs'
p550
sI549
S'currentAffairs'
p551
sI550
S'currentAffairs'
p552
sI551
S'arts'
p553
sI552
S'arts'
p554
sI553
S'arts'
p555
sI554
S'arts'
p556
sI555
S'currentAffairs'
p557
sI556
S'sports'
p558
sI557
S'currentAffairs'
p559
sI558
S'currentAffairs'
p560
sI559
S'currentAffairs'
p561
sI560
S'arts'
p562
sI561
S'science'
p563
sI562
S'arts'
p564
sI563
S'business'
p565
sI564
S'currentAffairs'
p566
sI565
S'science'
p567
sI566
S'arts'
p568
sI567
S'currentAffairs'
p569
sI568
S'arts'
p570
sI569
S'science'
p571
sI570
S'currentAffairs'
p572
sI571
S'business'
p573
sI572
S'business'
p574
sI573
S'currentAffairs'
p575
sI574
S'science'
p576
sI575
S'currentAffairs'
p577
sI576
S'arts'
p578
sI577
S'arts'
p579
sI578
S'currentAffairs'
p580
sI579
S'currentAffairs'
p581
sI580
S'currentAffairs'
p582
sI581
S'currentAffairs'
p583
sI582
S'currentAffairs'
p584
sI583
S'currentAffairs'
p585
sI584
S'currentAffairs'
p586
sI585
S'currentAffairs'
p587
sI586
S'science'
p588
sI587
S'currentAffairs'
p589
sI588
S'currentAffairs'
p590
sI589
S'currentAffairs'
p591
sI590
S'currentAffairs'
p592
sI591
S'sports'
p593
sI592
S'arts'
p594
sI593
S'currentAffairs'
p595
sI594
S'currentAffairs'
p596
sI595
S'arts'
p597
sI596
S'currentAffairs'
p598
sI597
S'currentAffairs'
p599
sI598
S'currentAffairs'
p600
sI599
S'currentAffairs'
p601
sI600
S'arts'
p602
sI601
S'currentAffairs'
p603
sI602
S'currentAffairs'
p604
sI603
S'currentAffairs'
p605
sI604
S'business'
p606
sI605
S'arts'
p607
sI606
S'currentAffairs'
p608
sI607
S'currentAffairs'
p609
sI608
S'business'
p610
sI609
S'currentAffairs'
p611
sI610
S'currentAffairs'
p612
sI611
S'business'
p613
sI612
S'arts'
p614
sI613
S'currentAffairs'
p615
sI614
S'business'
p616
sI615
S'business'
p617
sI616
S'arts'
p618
sI617
S'currentAffairs'
p619
sI618
S'currentAffairs'
p620
sI619
S'currentAffairs'
p621
sI620
S'business'
p622
sI621
S'currentAffairs'
p623
sI622
S'arts'
p624
sI623
S'science'
p625
sI624
S'sports'
p626
sI625
S'sports'
p627
sI626
S'sports'
p628
sI627
S'science'
p629
sI628
S'arts'
p630
sI629
S'sports'
p631
sI630
S'currentAffairs'
p632
sI631
S'currentAffairs'
p633
sI632
S'currentAffairs'
p634
sI633
S'currentAffairs'
p635
sI634
S'currentAffairs'
p636
sI635
S'science'
p637
sI636
S'currentAffairs'
p638
sI637
S'science'
p639
sI638
S'currentAffairs'
p640
sI639
S'science'
p641
sI640
S'currentAffairs'
p642
sI641
S'currentAffairs'
p643
sI642
S'arts'
p644
sI643
S'arts'
p645
sI644
S'arts'
p646
sI645
S'arts'
p647
sI646
S'arts'
p648
sI647
S'arts'
p649
sI648
S'arts'
p650
sI649
S'science'
p651
sI650
S'sports'
p652
sI651
S'sports'
p653
sI652
S'business'
p654
sI653
S'sports'
p655
sI654
S'currentAffairs'
p656
sI655
S'sports'
p657
sI656
S'sports'
p658
sI657
S'science'
p659
sI658
S'arts'
p660
sI659
S'currentAffairs'
p661
sI660
S'currentAffairs'
p662
sI661
S'sports'
p663
sI662
S'business'
p664
sI663
S'arts'
p665
sI664
S'currentAffairs'
p666
sI665
S'currentAffairs'
p667
sI666
S'currentAffairs'
p668
sI667
S'currentAffairs'
p669
sI668
S'sports'
p670
sI669
S'arts'
p671
sI670
S'arts'
p672
sI671
S'currentAffairs'
p673
sI672
S'currentAffairs'
p674
sI673
S'business'
p675
sI674
S'arts'
p676
sI675
S'sports'
p677
sI676
S'science'
p678
sI677
S'arts'
p679
sI678
S'science'
p680
sI679
S'currentAffairs'
p681
sI680
S'arts'
p682
sI681
S'arts'
p683
sI682
S'currentAffairs'
p684
sI683
S'science'
p685
sI684
S'currentAffairs'
p686
sI685
S'currentAffairs'
p687
sI686
S'currentAffairs'
p688
sI687
S'currentAffairs'
p689
sI688
S'business'
p690
sI689
S'arts'
p691
sI690
S'arts'
p692
sI691
S'currentAffairs'
p693
sI692
S'currentAffairs'
p694
sI693
S'currentAffairs'
p695
sI694
S'currentAffairs'
p696
sI695
S'business'
p697
sI696
S'arts'
p698
sI697
S'sports'
p699
sI698
S'sports'
p700
sI699
S'science'
p701
sI700
S'currentAffairs'
p702
sI701
S'currentAffairs'
p703
sI702
S'sports'
p704
sI703
S'sports'
p705
sI704
S'currentAffairs'
p706
sI705
S'science'
p707
sI706
S'arts'
p708
sI707
S'business'
p709
sI708
S'arts'
p710
sI709
S'arts'
p711
sI710
S'science'
p712
sI711
S'currentAffairs'
p713
sI712
S'arts'
p714
sI713
S'sports'
p715
sI714
S'sports'
p716
sI715
S'currentAffairs'
p717
sI716
S'currentAffairs'
p718
sI717
S'business'
p719
sI718
S'currentAffairs'
p720
sI719
S'science'
p721
sI720
S'currentAffairs'
p722
sI721
S'currentAffairs'
p723
sI722
S'currentAffairs'
p724
sI723
S'currentAffairs'
p725
sI724
S'sports'
p726
sI725
S'sports'
p727
sI726
S'science'
p728
sI727
S'currentAffairs'
p729
sI728
S'currentAffairs'
p730
sI729
S'currentAffairs'
p731
sI730
S'currentAffairs'
p732
sI731
S'currentAffairs'
p733
sI732
S'currentAffairs'
p734
sI733
S'currentAffairs'
p735
sI734
S'currentAffairs'
p736
sI735
S'currentAffairs'
p737
sI736
S'currentAffairs'
p738
sI737
S'currentAffairs'
p739
sI738
S'currentAffairs'
p740
sI739
S'currentAffairs'
p741
sI740
S'currentAffairs'
p742
sI741
S'currentAffairs'
p743
sI742
S'currentAffairs'
p744
sI743
S'sports'
p745
sI744
S'sports'
p746
sI745
S'currentAffairs'
p747
sI746
S'currentAffairs'
p748
sI747
S'sports'
p749
sI748
S'currentAffairs'
p750
sI749
S'sports'
p751
sI750
S'arts'
p752
sI751
S'currentAffairs'
p753
sI752
S'sports'
p754
sI753
S'sports'
p755
sI754
S'science'
p756
sI755
S'science'
p757
sI756
S'currentAffairs'
p758
sI757
S'business'
p759
sI758
S'currentAffairs'
p760
sI759
S'science'
p761
sI760
S'science'
p762
sI761
S'sports'
p763
sI762
S'sports'
p764
sI763
S'sports'
p765
sI764
S'sports'
p766
sI765
S'arts'
p767
sI766
S'currentAffairs'
p768
sI767
S'currentAffairs'
p769
sI768
S'science'
p770
sI769
S'currentAffairs'
p771
sI770
S'currentAffairs'
p772
sI771
S'arts'
p773
sI772
S'sports'
p774
sI773
S'arts'
p775
sI774
S'arts'
p776
sI775
S'currentAffairs'
p777
sI776
S'currentAffairs'
p778
sI777
S'sports'
p779
sI778
S'sports'
p780
sI779
S'currentAffairs'
p781
sI780
S'sports'
p782
sI781
S'currentAffairs'
p783
sI782
S'currentAffairs'
p784
sI783
S'currentAffairs'
p785
sI784
S'science'
p786
sI785
S'currentAffairs'
p787
sI786
S'arts'
p788
sI787
S'currentAffairs'
p789
sI788
S'currentAffairs'
p790
sI789
S'currentAffairs'
p791
sI790
S'currentAffairs'
p792
sI791
S'arts'
p793
sI792
S'business'
p794
sI793
S'science'
p795
sI794
S'science'
p796
sI795
S'currentAffairs'
p797
sI796
S'science'
p798
sI797
S'science'
p799
sI798
S'business'
p800
sI799
S'currentAffairs'
p801
sI800
S'currentAffairs'
p802
sI801
S'currentAffairs'
p803
sI802
S'arts'
p804
sI803
S'currentAffairs'
p805
sI804
S'currentAffairs'
p806
sI805
S'sports'
p807
sI806
S'sports'
p808
sI807
S'currentAffairs'
p809
sI808
S'business'
p810
sI809
S'science'
p811
sI810
S'business'
p812
sI811
S'currentAffairs'
p813
sI812
S'currentAffairs'
p814
sI813
S'currentAffairs'
p815
sI814
S'currentAffairs'
p816
sI815
S'science'
p817
sI816
S'currentAffairs'
p818
sI817
S'arts'
p819
sI818
S'currentAffairs'
p820
sI819
S'currentAffairs'
p821
sI820
S'currentAffairs'
p822
sI821
S'arts'
p823
sI822
S'arts'
p824
sI823
S'currentAffairs'
p825
sI824
S'business'
p826
sI825
S'currentAffairs'
p827
sI826
S'currentAffairs'
p828
sI827
S'currentAffairs'
p829
sI828
S'business'
p830
sI829
S'currentAffairs'
p831
sI830
S'currentAffairs'
p832
sI831
S'currentAffairs'
p833
sI832
S'currentAffairs'
p834
sI833
S'currentAffairs'
p835
sI834
S'arts'
p836
sI835
S'business'
p837
sI836
S'currentAffairs'
p838
sI837
S'currentAffairs'
p839
sI838
S'currentAffairs'
p840
sI839
S'arts'
p841
sI840
S'currentAffairs'
p842
sI841
S'currentAffairs'
p843
sI842
S'currentAffairs'
p844
sI843
S'currentAffairs'
p845
sI844
S'currentAffairs'
p846
sI845
S'currentAffairs'
p847
sI846
S'currentAffairs'
p848
sI847
S'currentAffairs'
p849
sI848
S'currentAffairs'
p850
sI849
S'currentAffairs'
p851
sI850
S'currentAffairs'
p852
sI851
S'sports'
p853
sI852
S'business'
p854
sI853
S'currentAffairs'
p855
sI854
S'arts'
p856
sI855
S'currentAffairs'
p857
sI856
S'arts'
p858
sI857
S'currentAffairs'
p859
sI858
S'business'
p860
sI859
S'science'
p861
sI860
S'sports'
p862
sI861
S'currentAffairs'
p863
sI862
S'currentAffairs'
p864
sI863
S'arts'
p865
sI864
S'sports'
p866
sI865
S'science'
p867
sI866
S'science'
p868
sI867
S'arts'
p869
sI868
S'currentAffairs'
p870
sI869
S'currentAffairs'
p871
sI870
S'arts'
p872
sI871
S'currentAffairs'
p873
sI872
S'currentAffairs'
p874
sI873
S'sports'
p875
sI874
S'currentAffairs'
p876
sI875
S'currentAffairs'
p877
sI876
S'currentAffairs'
p878
sI877
S'arts'
p879
sI878
S'arts'
p880
sI879
S'sports'
p881
sI880
S'arts'
p882
sI881
S'business'
p883
sI882
S'currentAffairs'
p884
sI883
S'business'
p885
sI884
S'business'
p886
sI885
S'currentAffairs'
p887
sI886
S'arts'
p888
sI887
S'arts'
p889
sI888
S'currentAffairs'
p890
sI889
S'arts'
p891
sI890
S'currentAffairs'
p892
sI891
S'arts'
p893
sI892
S'currentAffairs'
p894
sI893
S'currentAffairs'
p895
sI894
S'currentAffairs'
p896
sI895
S'currentAffairs'
p897
sI896
S'currentAffairs'
p898
sI897
S'currentAffairs'
p899
sI898
S'science'
p900
sI899
S'currentAffairs'
p901
sI900
S'currentAffairs'
p902
sI901
S'currentAffairs'
p903
sI902
S'arts'
p904
sI903
S'currentAffairs'
p905
sI904
S'arts'
p906
sI905
S'currentAffairs'
p907
sI906
S'arts'
p908
sI907
S'sports'
p909
sI908
S'science'
p910
sI909
S'currentAffairs'
p911
sI910
S'sports'
p912
sI911
S'sports'
p913
sI912
S'currentAffairs'
p914
sI913
S'sports'
p915
sI914
S'science'
p916
sI915
S'currentAffairs'
p917
sI916
S'currentAffairs'
p918
sI917
S'currentAffairs'
p919
sI918
S'sports'
p920
sI919
S'currentAffairs'
p921
sI920
S'sports'
p922
sI921
S'science'
p923
sI922
S'sports'
p924
sI923
S'sports'
p925
sI924
S'currentAffairs'
p926
sI925
S'arts'
p927
sI926
S'business'
p928
sI927
S'currentAffairs'
p929
sI928
S'science'
p930
sI929
S'business'
p931
sI930
S'arts'
p932
sI931
S'currentAffairs'
p933
sI932
S'currentAffairs'
p934
sI933
S'business'
p935
sI934
S'currentAffairs'
p936
sI935
S'business'
p937
sI936
S'business'
p938
sI937
S'currentAffairs'
p939
sI938
S'sports'
p940
sI939
S'currentAffairs'
p941
sI940
S'currentAffairs'
p942
sI941
S'currentAffairs'
p943
sI942
S'currentAffairs'
p944
sI943
S'business'
p945
sI944
S'currentAffairs'
p946
sI945
S'arts'
p947
sI946
S'currentAffairs'
p948
sI947
S'arts'
p949
sI948
S'arts'
p950
sI949
S'arts'
p951
sI950
S'business'
p952
sI951
S'arts'
p953
sI952
S'currentAffairs'
p954
sI953
S'currentAffairs'
p955
sI954
S'currentAffairs'
p956
sI955
S'currentAffairs'
p957
sI956
S'currentAffairs'
p958
sI957
S'science'
p959
sI958
S'currentAffairs'
p960
sI959
S'currentAffairs'
p961
sI960
S'arts'
p962
sI961
S'business'
p963
sI962
S'arts'
p964
sI963
S'currentAffairs'
p965
sI964
S'arts'
p966
sI965
S'arts'
p967
sI966
S'currentAffairs'
p968
sI967
S'sports'
p969
sI968
S'arts'
p970
sI969
S'currentAffairs'
p971
sI970
S'business'
p972
sI971
S'science'
p973
sI972
S'arts'
p974
sI973
S'currentAffairs'
p975
sI974
S'sports'
p976
sI975
S'currentAffairs'
p977
sI976
S'sports'
p978
sI977
S'sports'
p979
sI978
S'sports'
p980
sI979
S'sports'
p981
sI980
S'sports'
p982
sI981
S'currentAffairs'
p983
sI982
S'sports'
p984
sI983
S'business'
p985
sI984
S'arts'
p986
sI985
S'currentAffairs'
p987
sI986
S'sports'
p988
sI987
S'currentAffairs'
p989
sI988
S'arts'
p990
sI989
S'arts'
p991
sI990
S'science'
p992
sI991
S'currentAffairs'
p993
sI992
S'science'
p994
sI993
S'currentAffairs'
p995
sI994
S'currentAffairs'
p996
sI995
S'currentAffairs'
p997
sI996
S'arts'
p998
sI997
S'currentAffairs'
p999
sI998
S'currentAffairs'
p1000
sI999
S'currentAffairs'
p1001
sI1000
S'currentAffairs'
p1002
sI1001
S'business'
p1003
sI1002
S'sports'
p1004
sI1003
S'sports'
p1005
sI1004
S'sports'
p1006
sI1005
S'currentAffairs'
p1007
sI1006
S'currentAffairs'
p1008
sI1007
S'sports'
p1009
sI1008
S'currentAffairs'
p1010
sI1009
S'sports'
p1011
sI1010
S'currentAffairs'
p1012
sI1011
S'science'
p1013
sI1012
S'currentAffairs'
p1014
sI1013
S'currentAffairs'
p1015
sI1014
S'sports'
p1016
sI1015
S'arts'
p1017
sI1016
S'currentAffairs'
p1018
sI1017
S'currentAffairs'
p1019
sI1018
S'arts'
p1020
sI1019
S'currentAffairs'
p1021
sI1020
S'currentAffairs'
p1022
sI1021
S'currentAffairs'
p1023
sI1022
S'business'
p1024
sI1023
S'business'
p1025
sI1024
S'currentAffairs'
p1026
sI1025
S'currentAffairs'
p1027
sI1026
S'currentAffairs'
p1028
sI1027
S'business'
p1029
sI1028
S'currentAffairs'
p1030
sI1029
S'currentAffairs'
p1031
sI1030
S'currentAffairs'
p1032
sI1031
S'currentAffairs'
p1033
sI1032
S'currentAffairs'
p1034
sI1033
S'currentAffairs'
p1035
sI1034
S'currentAffairs'
p1036
sI1035
S'arts'
p1037
sI1036
S'sports'
p1038
sI1037
S'sports'
p1039
sI1038
S'currentAffairs'
p1040
sI1039
S'science'
p1041
sI1040
S'business'
p1042
sI1041
S'currentAffairs'
p1043
sI1042
S'currentAffairs'
p1044
sI1043
S'science'
p1045
sI1044
S'sports'
p1046
sI1045
S'currentAffairs'
p1047
sI1046
S'science'
p1048
sI1047
S'business'
p1049
sI1048
S'sports'
p1050
sI1049
S'currentAffairs'
p1051
sI1050
S'business'
p1052
sI1051
S'currentAffairs'
p1053
sI1052
S'currentAffairs'
p1054
sI1053
S'arts'
p1055
sI1054
S'arts'
p1056
sI1055
S'science'
p1057
sI1056
S'business'
p1058
sI1057
S'business'
p1059
sI1058
S'currentAffairs'
p1060
sI1059
S'arts'
p1061
sI1060
S'arts'
p1062
sI1061
S'sports'
p1063
sI1062
S'arts'
p1064
sI1063
S'currentAffairs'
p1065
sI1064
S'currentAffairs'
p1066
sI1065
S'sports'
p1067
sI1066
S'sports'
p1068
sI1067
S'sports'
p1069
sI1068
S'sports'
p1070
sI1069
S'sports'
p1071
sI1070
S'sports'
p1072
sI1071
S'sports'
p1073
sI1072
S'sports'
p1074
sI1073
S'sports'
p1075
sI1074
S'sports'
p1076
sI1075
S'science'
p1077
sI1076
S'currentAffairs'
p1078
sI1077
S'currentAffairs'
p1079
sI1078
S'currentAffairs'
p1080
sI1079
S'sports'
p1081
sI1080
S'sports'
p1082
sI1081
S'currentAffairs'
p1083
sI1082
S'currentAffairs'
p1084
sI1083
S'currentAffairs'
p1085
sI1084
S'currentAffairs'
p1086
sI1085
S'currentAffairs'
p1087
sI1086
S'business'
p1088
sI1087
S'currentAffairs'
p1089
sI1088
S'currentAffairs'
p1090
sI1089
S'science'
p1091
sI1090
S'currentAffairs'
p1092
sI1091
S'sports'
p1093
sI1092
S'currentAffairs'
p1094
sI1093
S'business'
p1095
sI1094
S'science'
p1096
sI1095
S'currentAffairs'
p1097
sI1096
S'currentAffairs'
p1098
sI1097
S'currentAffairs'
p1099
sI1098
S'currentAffairs'
p1100
sI1099
S'currentAffairs'
p1101
sI1100
S'currentAffairs'
p1102
sI1101
S'currentAffairs'
p1103
sI1102
S'currentAffairs'
p1104
sI1103
S'business'
p1105
sI1104
S'currentAffairs'
p1106
sI1105
S'currentAffairs'
p1107
sI1106
S'arts'
p1108
sI1107
S'science'
p1109
sI1108
S'currentAffairs'
p1110
sI1109
S'arts'
p1111
sI1110
S'currentAffairs'
p1112
sI1111
S'sports'
p1113
sI1112
S'currentAffairs'
p1114
sI1113
S'currentAffairs'
p1115
sI1114
S'arts'
p1116
sI1115
S'arts'
p1117
sI1116
S'arts'
p1118
sI1117
S'currentAffairs'
p1119
sI1118
S'currentAffairs'
p1120
sI1119
S'currentAffairs'
p1121
sI1120
S'currentAffairs'
p1122
sI1121
S'currentAffairs'
p1123
sI1122
S'currentAffairs'
p1124
sI1123
S'business'
p1125
sI1124
S'currentAffairs'
p1126
sI1125
S'business'
p1127
sI1126
S'science'
p1128
sI1127
S'arts'
p1129
sI1128
S'sports'
p1130
sI1129
S'arts'
p1131
sI1130
S'currentAffairs'
p1132
sI1131
S'currentAffairs'
p1133
sI1132
S'currentAffairs'
p1134
sI1133
S'currentAffairs'
p1135
sI1134
S'business'
p1136
sI1135
S'currentAffairs'
p1137
sI1136
S'arts'
p1138
sI1137
S'currentAffairs'
p1139
sI1138
S'business'
p1140
sI1139
S'arts'
p1141
sI1140
S'sports'
p1142
sI1141
S'sports'
p1143
sI1142
S'science'
p1144
sI1143
S'currentAffairs'
p1145
sI1144
S'currentAffairs'
p1146
sI1145
S'currentAffairs'
p1147
sI1146
S'currentAffairs'
p1148
sI1147
S'currentAffairs'
p1149
sI1148
S'currentAffairs'
p1150
sI1149
S'currentAffairs'
p1151
sI1150
S'business'
p1152
sI1151
S'currentAffairs'
p1153
sI1152
S'sports'
p1154
sI1153
S'business'
p1155
sI1154
S'currentAffairs'
p1156
sI1155
S'business'
p1157
sI1156
S'science'
p1158
sI1157
S'currentAffairs'
p1159
sI1158
S'currentAffairs'
p1160
sI1159
S'currentAffairs'
p1161
sI1160
S'currentAffairs'
p1162
sI1161
S'arts'
p1163
sI1162
S'arts'
p1164
sI1163
S'business'
p1165
sI1164
S'currentAffairs'
p1166
sI1165
S'science'
p1167
sI1166
S'currentAffairs'
p1168
sI1167
S'currentAffairs'
p1169
sI1168
S'sports'
p1170
sI1169
S'currentAffairs'
p1171
sI1170
S'business'
p1172
sI1171
S'science'
p1173
sI1172
S'currentAffairs'
p1174
sI1173
S'arts'
p1175
sI1174
S'arts'
p1176
sI1175
S'business'
p1177
sI1176
S'currentAffairs'
p1178
sI1177
S'currentAffairs'
p1179
sI1178
S'arts'
p1180
sI1179
S'currentAffairs'
p1181
sI1180
S'sports'
p1182
sI1181
S'currentAffairs'
p1183
sI1182
S'currentAffairs'
p1184
sI1183
S'sports'
p1185
sI1184
S'currentAffairs'
p1186
sI1185
S'currentAffairs'
p1187
sI1186
S'business'
p1188
sI1187
S'science'
p1189
sI1188
S'arts'
p1190
sI1189
S'currentAffairs'
p1191
sI1190
S'currentAffairs'
p1192
sI1191
S'currentAffairs'
p1193
sI1192
S'business'
p1194
sI1193
S'currentAffairs'
p1195
sI1194
S'currentAffairs'
p1196
sI1195
S'currentAffairs'
p1197
sI1196
S'currentAffairs'
p1198
sI1197
S'currentAffairs'
p1199
sI1198
S'currentAffairs'
p1200
sI1199
S'arts'
p1201
sI1200
S'currentAffairs'
p1202
sI1201
S'business'
p1203
sI1202
S'business'
p1204
sI1203
S'currentAffairs'
p1205
sI1204
S'currentAffairs'
p1206
sI1205
S'currentAffairs'
p1207
sI1206
S'currentAffairs'
p1208
sI1207
S'currentAffairs'
p1209
sI1208
S'currentAffairs'
p1210
sI1209
S'currentAffairs'
p1211
sI1210
S'currentAffairs'
p1212
sI1211
S'sports'
p1213
sI1212
S'science'
p1214
sI1213
S'sports'
p1215
sI1214
S'science'
p1216
sI1215
S'sports'
p1217
sI1216
S'sports'
p1218
sI1217
S'sports'
p1219
sI1218
S'currentAffairs'
p1220
sI1219
S'sports'
p1221
sI1220
S'currentAffairs'
p1222
sI1221
S'currentAffairs'
p1223
sI1222
S'arts'
p1224
sI1223
S'arts'
p1225
sI1224
S'science'
p1226
sI1225
S'currentAffairs'
p1227
sI1226
S'currentAffairs'
p1228
sI1227
S'science'
p1229
sI1228
S'arts'
p1230
sI1229
S'business'
p1231
sI1230
S'currentAffairs'
p1232
sI1231
S'currentAffairs'
p1233
sI1232
S'currentAffairs'
p1234
sI1233
S'currentAffairs'
p1235
sI1234
S'science'
p1236
sI1235
S'currentAffairs'
p1237
sI1236
S'currentAffairs'
p1238
sI1237
S'currentAffairs'
p1239
sI1238
S'science'
p1240
sI1239
S'currentAffairs'
p1241
sI1240
S'currentAffairs'
p1242
sI1241
S'currentAffairs'
p1243
sI1242
S'science'
p1244
sI1243
S'currentAffairs'
p1245
sI1244
S'currentAffairs'
p1246
sI1245
S'currentAffairs'
p1247
sI1246
S'business'
p1248
sI1247
S'sports'
p1249
sI1248
S'business'
p1250
sI1249
S'currentAffairs'
p1251
sI1250
S'currentAffairs'
p1252
sI1251
S'currentAffairs'
p1253
sI1252
S'currentAffairs'
p1254
sI1253
S'sports'
p1255
sI1254
S'currentAffairs'
p1256
sI1255
S'sports'
p1257
sI1256
S'currentAffairs'
p1258
sI1257
S'currentAffairs'
p1259
sI1258
S'currentAffairs'
p1260
sI1259
S'sports'
p1261
sI1260
S'sports'
p1262
sI1261
S'currentAffairs'
p1263
sI1262
S'currentAffairs'
p1264
sI1263
S'currentAffairs'
p1265
sI1264
S'currentAffairs'
p1266
sI1265
S'business'
p1267
sI1266
S'sports'
p1268
sI1267
S'currentAffairs'
p1269
sI1268
S'currentAffairs'
p1270
sI1269
S'arts'
p1271
sI1270
S'sports'
p1272
sI1271
S'sports'
p1273
sI1272
S'science'
p1274
sI1273
S'business'
p1275
sI1274
S'currentAffairs'
p1276
sI1275
S'sports'
p1277
sI1276
S'currentAffairs'
p1278
sI1277
S'currentAffairs'
p1279
sI1278
S'business'
p1280
sI1279
S'currentAffairs'
p1281
sI1280
S'sports'
p1282
sI1281
S'currentAffairs'
p1283
sI1282
S'business'
p1284
sI1283
S'business'
p1285
sI1284
S'arts'
p1286
sI1285
S'business'
p1287
sI1286
S'currentAffairs'
p1288
sI1287
S'science'
p1289
sI1288
S'arts'
p1290
sI1289
S'currentAffairs'
p1291
sI1290
S'arts'
p1292
sI1291
S'sports'
p1293
sI1292
S'business'
p1294
sI1293
S'currentAffairs'
p1295
sI1294
S'currentAffairs'
p1296
sI1295
S'currentAffairs'
p1297
sI1296
S'science'
p1298
sI1297
S'business'
p1299
sI1298
S'arts'
p1300
sI1299
S'currentAffairs'
p1301
sI1300
S'arts'
p1302
sI1301
S'arts'
p1303
sI1302
S'currentAffairs'
p1304
sI1303
S'business'
p1305
sI1304
S'currentAffairs'
p1306
sI1305
S'business'
p1307
sI1306
S'currentAffairs'
p1308
sI1307
S'sports'
p1309
sI1308
S'sports'
p1310
sI1309
S'science'
p1311
sI1310
S'currentAffairs'
p1312
sI1311
S'currentAffairs'
p1313
sI1312
S'currentAffairs'
p1314
sI1313
S'sports'
p1315
sI1314
S'business'
p1316
sI1315
S'currentAffairs'
p1317
sI1316
S'currentAffairs'
p1318
sI1317
S'science'
p1319
sI1318
S'currentAffairs'
p1320
sI1319
S'sports'
p1321
sI1320
S'currentAffairs'
p1322
sI1321
S'arts'
p1323
sI1322
S'currentAffairs'
p1324
sI1323
S'currentAffairs'
p1325
sI1324
S'business'
p1326
sI1325
S'arts'
p1327
sI1326
S'sports'
p1328
sI1327
S'business'
p1329
sI1328
S'science'
p1330
sI1329
S'currentAffairs'
p1331
sI1330
S'currentAffairs'
p1332
sI1331
S'currentAffairs'
p1333
sI1332
S'currentAffairs'
p1334
sI1333
S'arts'
p1335
sI1334
S'arts'
p1336
sI1335
S'arts'
p1337
sI1336
S'arts'
p1338
sI1337
S'arts'
p1339
sI1338
S'arts'
p1340
sI1339
S'arts'
p1341
sI1340
S'currentAffairs'
p1342
sI1341
S'arts'
p1343
sI1342
S'sports'
p1344
sI1343
S'arts'
p1345
sI1344
S'currentAffairs'
p1346
sI1345
S'currentAffairs'
p1347
sI1346
S'sports'
p1348
sI1347
S'science'
p1349
sI1348
S'arts'
p1350
sI1349
S'currentAffairs'
p1351
sI1350
S'arts'
p1352
sI1351
S'arts'
p1353
sI1352
S'arts'
p1354
sI1353
S'arts'
p1355
sI1354
S'currentAffairs'
p1356
sI1355
S'arts'
p1357
sI1356
S'business'
p1358
sI1357
S'arts'
p1359
sI1358
S'arts'
p1360
sI1359
S'business'
p1361
sI1360
S'currentAffairs'
p1362
sI1361
S'arts'
p1363
sI1362
S'arts'
p1364
sI1363
S'arts'
p1365
sI1364
S'arts'
p1366
sI1365
S'arts'
p1367
sI1366
S'business'
p1368
sI1367
S'business'
p1369
sI1368
S'arts'
p1370
sI1369
S'arts'
p1371
sI1370
S'arts'
p1372
sI1371
S'currentAffairs'
p1373
sI1372
S'arts'
p1374
sI1373
S'arts'
p1375
sI1374
S'arts'
p1376
sI1375
S'arts'
p1377
sI1376
S'arts'
p1378
sI1377
S'arts'
p1379
sI1378
S'arts'
p1380
sI1379
S'currentAffairs'
p1381
sI1380
S'arts'
p1382
sI1381
S'arts'
p1383
sI1382
S'currentAffairs'
p1384
sI1383
S'currentAffairs'
p1385
sI1384
S'sports'
p1386
sI1385
S'science'
p1387
sI1386
S'science'
p1388
sI1387
S'arts'
p1389
sI1388
S'currentAffairs'
p1390
sI1389
S'business'
p1391
sI1390
S'arts'
p1392
sI1391
S'sports'
p1393
sI1392
S'business'
p1394
sI1393
S'currentAffairs'
p1395
sI1394
S'sports'
p1396
sI1395
S'currentAffairs'
p1397
sI1396
S'currentAffairs'
p1398
sI1397
S'arts'
p1399
sI1398
S'currentAffairs'
p1400
sI1399
S'currentAffairs'
p1401
sI1400
S'currentAffairs'
p1402
sI1401
S'science'
p1403
sI1402
S'currentAffairs'
p1404
sI1403
S'science'
p1405
sI1404
S'science'
p1406
sI1405
S'currentAffairs'
p1407
sI1406
S'science'
p1408
sI1407
S'currentAffairs'
p1409
sI1408
S'arts'
p1410
sI1409
S'currentAffairs'
p1411
sI1410
S'currentAffairs'
p1412
sI1411
S'currentAffairs'
p1413
sI1412
S'currentAffairs'
p1414
sI1413
S'arts'
p1415
sI1414
S'currentAffairs'
p1416
sI1415
S'currentAffairs'
p1417
sI1416
S'currentAffairs'
p1418
sI1417
S'currentAffairs'
p1419
sI1418
S'arts'
p1420
sI1419
S'currentAffairs'
p1421
sI1420
S'arts'
p1422
sI1421
S'currentAffairs'
p1423
sI1422
S'arts'
p1424
sI1423
S'currentAffairs'
p1425
sI1424
S'currentAffairs'
p1426
sI1425
S'currentAffairs'
p1427
sI1426
S'arts'
p1428
sI1427
S'sports'
p1429
sI1428
S'currentAffairs'
p1430
sI1429
S'currentAffairs'
p1431
sI1430
S'science'
p1432
sI1431
S'sports'
p1433
sI1432
S'currentAffairs'
p1434
sI1433
S'currentAffairs'
p1435
sI1434
S'currentAffairs'
p1436
sI1435
S'science'
p1437
sI1436
S'currentAffairs'
p1438
sI1437
S'sports'
p1439
sI1438
S'sports'
p1440
sI1439
S'business'
p1441
sI1440
S'sports'
p1442
sI1441
S'sports'
p1443
sI1442
S'science'
p1444
sI1443
S'currentAffairs'
p1445
sI1444
S'currentAffairs'
p1446
sI1445
S'business'
p1447
sI1446
S'currentAffairs'
p1448
sI1447
S'sports'
p1449
sI1448
S'currentAffairs'
p1450
sI1449
S'sports'
p1451
sI1450
S'currentAffairs'
p1452
sI1451
S'arts'
p1453
sI1452
S'business'
p1454
sI1453
S'science'
p1455
sI1454
S'currentAffairs'
p1456
sI1455
S'arts'
p1457
sI1456
S'science'
p1458
sI1457
S'currentAffairs'
p1459
sI1458
S'currentAffairs'
p1460
sI1459
S'currentAffairs'
p1461
sI1460
S'business'
p1462
sI1461
S'sports'
p1463
sI1462
S'arts'
p1464
sI1463
S'science'
p1465
sI1464
S'business'
p1466
sI1465
S'currentAffairs'
p1467
sI1466
S'sports'
p1468
sI1467
S'currentAffairs'
p1469
sI1468
S'sports'
p1470
sI1469
S'currentAffairs'
p1471
sI1470
S'business'
p1472
sI1471
S'currentAffairs'
p1473
sI1472
S'science'
p1474
sI1473
S'currentAffairs'
p1475
sI1474
S'currentAffairs'
p1476
sI1475
S'currentAffairs'
p1477
sI1476
S'currentAffairs'
p1478
sI1477
S'currentAffairs'
p1479
sI1478
S'currentAffairs'
p1480
sI1479
S'currentAffairs'
p1481
sI1480
S'currentAffairs'
p1482
sI1481
S'currentAffairs'
p1483
sI1482
S'currentAffairs'
p1484
sI1483
S'business'
p1485
sI1484
S'currentAffairs'
p1486
sI1485
S'science'
p1487
sI1486
S'currentAffairs'
p1488
sI1487
S'currentAffairs'
p1489
sI1488
S'currentAffairs'
p1490
sI1489
S'currentAffairs'
p1491
sI1490
S'science'
p1492
sI1491
S'currentAffairs'
p1493
sI1492
S'arts'
p1494
sI1493
S'currentAffairs'
p1495
sI1494
S'currentAffairs'
p1496
sI1495
S'science'
p1497
sI1496
S'currentAffairs'
p1498
sI1497
S'currentAffairs'
p1499
sI1498
S'currentAffairs'
p1500
sI1499
S'business'
p1501
sI1500
S'currentAffairs'
p1502
sI1501
S'science'
p1503
sI1502
S'sports'
p1504
sI1503
S'arts'
p1505
sI1504
S'currentAffairs'
p1506
sI1505
S'currentAffairs'
p1507
sI1506
S'arts'
p1508
sI1507
S'currentAffairs'
p1509
sI1508
S'currentAffairs'
p1510
sI1509
S'currentAffairs'
p1511
sI1510
S'currentAffairs'
p1512
sI1511
S'currentAffairs'
p1513
sI1512
S'currentAffairs'
p1514
sI1513
S'business'
p1515
sI1514
S'arts'
p1516
sI1515
S'currentAffairs'
p1517
sI1516
S'business'
p1518
sI1517
S'arts'
p1519
sI1518
S'business'
p1520
sI1519
S'currentAffairs'
p1521
sI1520
S'currentAffairs'
p1522
sI1521
S'currentAffairs'
p1523
sI1522
S'business'
p1524
sI1523
S'currentAffairs'
p1525
sI1524
S'currentAffairs'
p1526
sI1525
S'currentAffairs'
p1527
sI1526
S'science'
p1528
sI1527
S'science'
p1529
sI1528
S'business'
p1530
sI1529
S'currentAffairs'
p1531
sI1530
S'arts'
p1532
sI1531
S'science'
p1533
sI1532
S'currentAffairs'
p1534
sI1533
S'currentAffairs'
p1535
sI1534
S'currentAffairs'
p1536
sI1535
S'arts'
p1537
sI1536
S'sports'
p1538
sI1537
S'sports'
p1539
sI1538
S'currentAffairs'
p1540
sI1539
S'currentAffairs'
p1541
sI1540
S'currentAffairs'
p1542
sI1541
S'sports'
p1543
sI1542
S'currentAffairs'
p1544
sI1543
S'currentAffairs'
p1545
sI1544
S'sports'
p1546
sI1545
S'currentAffairs'
p1547
sI1546
S'currentAffairs'
p1548
sI1547
S'business'
p1549
sI1548
S'business'
p1550
sI1549
S'currentAffairs'
p1551
sI1550
S'currentAffairs'
p1552
sI1551
S'sports'
p1553
sI1552
S'currentAffairs'
p1554
sI1553
S'currentAffairs'
p1555
sI1554
S'business'
p1556
sI1555
S'business'
p1557
sI1556
S'arts'
p1558
sI1557
S'sports'
p1559
sI1558
S'currentAffairs'
p1560
sI1559
S'sports'
p1561
sI1560
S'sports'
p1562
sI1561
S'sports'
p1563
sI1562
S'arts'
p1564
sI1563
S'sports'
p1565
sI1564
S'sports'
p1566
sI1565
S'science'
p1567
sI1566
S'currentAffairs'
p1568
sI1567
S'science'
p1569
sI1568
S'currentAffairs'
p1570
sI1569
S'business'
p1571
sI1570
S'currentAffairs'
p1572
sI1571
S'currentAffairs'
p1573
sI1572
S'sports'
p1574
sI1573
S'business'
p1575
sI1574
S'currentAffairs'
p1576
sI1575
S'business'
p1577
sI1576
S'sports'
p1578
sI1577
S'currentAffairs'
p1579
sI1578
S'business'
p1580
sI1579
S'currentAffairs'
p1581
sI1580
S'currentAffairs'
p1582
sI1581
S'science'
p1583
sI1582
S'currentAffairs'
p1584
sI1583
S'business'
p1585
sI1584
S'business'
p1586
sI1585
S'currentAffairs'
p1587
sI1586
S'currentAffairs'
p1588
sI1587
S'currentAffairs'
p1589
sI1588
S'business'
p1590
sI1589
S'currentAffairs'
p1591
sI1590
S'currentAffairs'
p1592
sI1591
S'currentAffairs'
p1593
sI1592
S'arts'
p1594
sI1593
S'sports'
p1595
sI1594
S'sports'
p1596
sI1595
S'currentAffairs'
p1597
sI1596
S'arts'
p1598
sI1597
S'currentAffairs'
p1599
sI1598
S'business'
p1600
sI1599
S'currentAffairs'
p1601
sI1600
S'currentAffairs'
p1602
sI1601
S'business'
p1603
sI1602
S'currentAffairs'
p1604
sI1603
S'currentAffairs'
p1605
sI1604
S'business'
p1606
sI1605
S'arts'
p1607
sI1606
S'currentAffairs'
p1608
sI1607
S'arts'
p1609
sI1608
S'arts'
p1610
sI1609
S'arts'
p1611
sI1610
S'sports'
p1612
sI1611
S'arts'
p1613
sI1612
S'arts'
p1614
sI1613
S'arts'
p1615
sI1614
S'business'
p1616
sI1615
S'science'
p1617
sI1616
S'currentAffairs'
p1618
sI1617
S'currentAffairs'
p1619
sI1618
S'sports'
p1620
sI1619
S'currentAffairs'
p1621
sI1620
S'currentAffairs'
p1622
sI1621
S'business'
p1623
sI1622
S'currentAffairs'
p1624
sI1623
S'arts'
p1625
sI1624
S'currentAffairs'
p1626
sI1625
S'science'
p1627
sI1626
S'currentAffairs'
p1628
sI1627
S'sports'
p1629
sI1628
S'sports'
p1630
sI1629
S'currentAffairs'
p1631
sI1630
S'science'
p1632
sI1631
S'science'
p1633
sI1632
S'arts'
p1634
sI1633
S'currentAffairs'
p1635
sI1634
S'arts'
p1636
sI1635
S'currentAffairs'
p1637
sI1636
S'currentAffairs'
p1638
sI1637
S'sports'
p1639
sI1638
S'business'
p1640
sI1639
S'currentAffairs'
p1641
sI1640
S'currentAffairs'
p1642
sI1641
S'currentAffairs'
p1643
sI1642
S'currentAffairs'
p1644
sI1643
S'sports'
p1645
sI1644
S'business'
p1646
sI1645
S'currentAffairs'
p1647
sI1646
S'business'
p1648
sI1647
S'currentAffairs'
p1649
sI1648
S'sports'
p1650
sI1649
S'sports'
p1651
sI1650
S'sports'
p1652
sI1651
S'currentAffairs'
p1653
sI1652
S'science'
p1654
sI1653
S'sports'
p1655
sI1654
S'arts'
p1656
sI1655
S'currentAffairs'
p1657
sI1656
S'sports'
p1658
sI1657
S'currentAffairs'
p1659
sI1658
S'currentAffairs'
p1660
sI1659
S'currentAffairs'
p1661
sI1660
S'sports'
p1662
sI1661
S'currentAffairs'
p1663
sI1662
S'business'
p1664
sI1663
S'currentAffairs'
p1665
sI1664
S'currentAffairs'
p1666
sI1665
S'currentAffairs'
p1667
sI1666
S'currentAffairs'
p1668
sI1667
S'arts'
p1669
sI1668
S'business'
p1670
sI1669
S'sports'
p1671
sI1670
S'arts'
p1672
sI1671
S'sports'
p1673
sI1672
S'currentAffairs'
p1674
sI1673
S'sports'
p1675
sI1674
S'science'
p1676
sI1675
S'currentAffairs'
p1677
sI1676
S'science'
p1678
sI1677
S'currentAffairs'
p1679
sI1678
S'currentAffairs'
p1680
sI1679
S'currentAffairs'
p1681
sI1680
S'arts'
p1682
sI1681
S'science'
p1683
sI1682
S'currentAffairs'
p1684
sI1683
S'science'
p1685
sI1684
S'sports'
p1686
sI1685
S'arts'
p1687
sI1686
S'arts'
p1688
sI1687
S'currentAffairs'
p1689
sI1688
S'science'
p1690
sI1689
S'science'
p1691
sI1690
S'sports'
p1692
sI1691
S'currentAffairs'
p1693
sI1692
S'currentAffairs'
p1694
sI1693
S'currentAffairs'
p1695
sI1694
S'currentAffairs'
p1696
sI1695
S'sports'
p1697
sI1696
S'currentAffairs'
p1698
sI1697
S'sports'
p1699
sI1698
S'sports'
p1700
sI1699
S'currentAffairs'
p1701
sI1700
S'business'
p1702
sI1701
S'currentAffairs'
p1703
sI1702
S'arts'
p1704
sI1703
S'currentAffairs'
p1705
sI1704
S'currentAffairs'
p1706
sI1705
S'arts'
p1707
sI1706
S'currentAffairs'
p1708
sI1707
S'currentAffairs'
p1709
sI1708
S'arts'
p1710
sI1709
S'currentAffairs'
p1711
sI1710
S'arts'
p1712
sI1711
S'business'
p1713
sI1712
S'sports'
p1714
sI1713
S'sports'
p1715
sI1714
S'arts'
p1716
sI1715
S'currentAffairs'
p1717
sI1716
S'business'
p1718
sI1717
S'arts'
p1719
sI1718
S'currentAffairs'
p1720
sI1719
S'sports'
p1721
sI1720
S'currentAffairs'
p1722
sI1721
S'currentAffairs'
p1723
sI1722
S'currentAffairs'
p1724
sI1723
S'currentAffairs'
p1725
sI1724
S'currentAffairs'
p1726
sI1725
S'currentAffairs'
p1727
sI1726
S'currentAffairs'
p1728
sI1727
S'arts'
p1729
sI1728
S'arts'
p1730
sI1729
S'arts'
p1731
sI1730
S'sports'
p1732
sI1731
S'currentAffairs'
p1733
sI1732
S'currentAffairs'
p1734
sI1733
S'arts'
p1735
sI1734
S'sports'
p1736
sI1735
S'currentAffairs'
p1737
sI1736
S'business'
p1738
sI1737
S'arts'
p1739
sI1738
S'currentAffairs'
p1740
sI1739
S'currentAffairs'
p1741
sI1740
S'currentAffairs'
p1742
sI1741
S'currentAffairs'
p1743
sI1742
S'currentAffairs'
p1744
sI1743
S'currentAffairs'
p1745
sI1744
S'science'
p1746
sI1745
S'arts'
p1747
sI1746
S'business'
p1748
sI1747
S'currentAffairs'
p1749
sI1748
S'currentAffairs'
p1750
sI1749
S'currentAffairs'
p1751
sI1750
S'arts'
p1752
sI1751
S'currentAffairs'
p1753
sI1752
S'business'
p1754
sI1753
S'science'
p1755
sI1754
S'science'
p1756
sI1755
S'arts'
p1757
sI1756
S'business'
p1758
sI1757
S'currentAffairs'
p1759
sI1758
S'currentAffairs'
p1760
sI1759
S'currentAffairs'
p1761
sI1760
S'business'
p1762
sI1761
S'currentAffairs'
p1763
sI1762
S'currentAffairs'
p1764
sI1763
S'currentAffairs'
p1765
sI1764
S'business'
p1766
sI1765
S'science'
p1767
sI1766
S'currentAffairs'
p1768
sI1767
S'currentAffairs'
p1769
sI1768
S'currentAffairs'
p1770
sI1769
S'currentAffairs'
p1771
sI1770
S'science'
p1772
sI1771
S'currentAffairs'
p1773
sI1772
S'science'
p1774
sI1773
S'currentAffairs'
p1775
sI1774
S'currentAffairs'
p1776
sI1775
S'business'
p1777
sI1776
S'currentAffairs'
p1778
sI1777
S'science'
p1779
sI1778
S'currentAffairs'
p1780
sI1779
S'currentAffairs'
p1781
sI1780
S'currentAffairs'
p1782
sI1781
S'currentAffairs'
p1783
sI1782
S'currentAffairs'
p1784
sI1783
S'currentAffairs'
p1785
sI1784
S'science'
p1786
sI1785
S'science'
p1787
sI1786
S'science'
p1788
sI1787
S'currentAffairs'
p1789
sI1788
S'business'
p1790
sI1789
S'arts'
p1791
sI1790
S'arts'
p1792
sI1791
S'arts'
p1793
sI1792
S'currentAffairs'
p1794
sI1793
S'science'
p1795
sI1794
S'science'
p1796
sI1795
S'currentAffairs'
p1797
sI1796
S'sports'
p1798
sI1797
S'currentAffairs'
p1799
sI1798
S'currentAffairs'
p1800
sI1799
S'currentAffairs'
p1801
sI1800
S'currentAffairs'
p1802
sI1801
S'currentAffairs'
p1803
sI1802
S'business'
p1804
sI1803
S'business'
p1805
sI1804
S'currentAffairs'
p1806
sI1805
S'science'
p1807
sI1806
S'sports'
p1808
sI1807
S'sports'
p1809
sI1808
S'currentAffairs'
p1810
sI1809
S'sports'
p1811
sI1810
S'currentAffairs'
p1812
sI1811
S'currentAffairs'
p1813
sI1812
S'currentAffairs'
p1814
sI1813
S'arts'
p1815
sI1814
S'currentAffairs'
p1816
sI1815
S'currentAffairs'
p1817
sI1816
S'currentAffairs'
p1818
sI1817
S'currentAffairs'
p1819
sI1818
S'business'
p1820
sI1819
S'sports'
p1821
sI1820
S'business'
p1822
sI1821
S'science'
p1823
sI1822
S'arts'
p1824
sI1823
S'sports'
p1825
sI1824
S'sports'
p1826
sI1825
S'sports'
p1827
sI1826
S'sports'
p1828
sI1827
S'currentAffairs'
p1829
sI1828
S'currentAffairs'
p1830
sI1829
S'currentAffairs'
p1831
sI1830
S'currentAffairs'
p1832
sI1831
S'currentAffairs'
p1833
sI1832
S'currentAffairs'
p1834
sI1833
S'currentAffairs'
p1835
sI1834
S'currentAffairs'
p1836
sI1835
S'currentAffairs'
p1837
sI1836
S'currentAffairs'
p1838
sI1837
S'currentAffairs'
p1839
sI1838
S'sports'
p1840
sI1839
S'science'
p1841
sI1840
S'currentAffairs'
p1842
sI1841
S'currentAffairs'
p1843
sI1842
S'business'
p1844
sI1843
S'currentAffairs'
p1845
sI1844
S'currentAffairs'
p1846
sI1845
S'currentAffairs'
p1847
sI1846
S'arts'
p1848
sI1847
S'currentAffairs'
p1849
sI1848
S'currentAffairs'
p1850
sI1849
S'science'
p1851
sI1850
S'sports'
p1852
sI1851
S'business'
p1853
sI1852
S'currentAffairs'
p1854
sI1853
S'currentAffairs'
p1855
sI1854
S'business'
p1856
sI1855
S'currentAffairs'
p1857
sI1856
S'sports'
p1858
sI1857
S'arts'
p1859
sI1858
S'arts'
p1860
sI1859
S'arts'
p1861
sI1860
S'arts'
p1862
sI1861
S'currentAffairs'
p1863
sI1862
S'currentAffairs'
p1864
sI1863
S'business'
p1865
sI1864
S'currentAffairs'
p1866
sI1865
S'arts'
p1867
sI1866
S'currentAffairs'
p1868
sI1867
S'business'
p1869
sI1868
S'sports'
p1870
sI1869
S'arts'
p1871
sI1870
S'currentAffairs'
p1872
sI1871
S'currentAffairs'
p1873
sI1872
S'currentAffairs'
p1874
sI1873
S'currentAffairs'
p1875
sI1874
S'currentAffairs'
p1876
sI1875
S'currentAffairs'
p1877
sI1876
S'currentAffairs'
p1878
sI1877
S'business'
p1879
sI1878
S'business'
p1880
sI1879
S'arts'
p1881
sI1880
S'business'
p1882
sI1881
S'sports'
p1883
sI1882
S'arts'
p1884
sI1883
S'currentAffairs'
p1885
sI1884
S'arts'
p1886
sI1885
S'science'
p1887
sI1886
S'sports'
p1888
sI1887
S'sports'
p1889
sI1888
S'currentAffairs'
p1890
sI1889
S'currentAffairs'
p1891
sI1890
S'currentAffairs'
p1892
sI1891
S'currentAffairs'
p1893
sI1892
S'currentAffairs'
p1894
sI1893
S'currentAffairs'
p1895
sI1894
S'sports'
p1896
sI1895
S'currentAffairs'
p1897
sI1896
S'science'
p1898
sI1897
S'business'
p1899
sI1898
S'currentAffairs'
p1900
sI1899
S'currentAffairs'
p1901
sI1900
S'currentAffairs'
p1902
sI1901
S'currentAffairs'
p1903
sI1902
S'currentAffairs'
p1904
sI1903
S'science'
p1905
sI1904
S'currentAffairs'
p1906
sI1905
S'science'
p1907
sI1906
S'currentAffairs'
p1908
sI1907
S'currentAffairs'
p1909
sI1908
S'currentAffairs'
p1910
sI1909
S'business'
p1911
sI1910
S'currentAffairs'
p1912
sI1911
S'business'
p1913
sI1912
S'business'
p1914
sI1913
S'business'
p1915
sI1914
S'business'
p1916
sI1915
S'business'
p1917
sI1916
S'business'
p1918
sI1917
S'business'
p1919
sI1918
S'business'
p1920
sI1919
S'business'
p1921
sI1920
S'business'
p1922
sI1921
S'business'
p1923
sI1922
S'business'
p1924
sI1923
S'sports'
p1925
sI1924
S'science'
p1926
sI1925
S'sports'
p1927
sI1926
S'arts'
p1928
sI1927
S'sports'
p1929
sI1928
S'currentAffairs'
p1930
sI1929
S'currentAffairs'
p1931
sI1930
S'currentAffairs'
p1932
sI1931
S'currentAffairs'
p1933
sI1932
S'currentAffairs'
p1934
sI1933
S'business'
p1935
sI1934
S'arts'
p1936
sI1935
S'currentAffairs'
p1937
sI1936
S'arts'
p1938
sI1937
S'science'
p1939
sI1938
S'sports'
p1940
sI1939
S'business'
p1941
sI1940
S'arts'
p1942
sI1941
S'sports'
p1943
sI1942
S'sports'
p1944
sI1943
S'currentAffairs'
p1945
sI1944
S'currentAffairs'
p1946
sI1945
S'business'
p1947
sI1946
S'currentAffairs'
p1948
sI1947
S'business'
p1949
sI1948
S'currentAffairs'
p1950
sI1949
S'science'
p1951
sI1950
S'sports'
p1952
sI1951
S'arts'
p1953
sI1952
S'arts'
p1954
sI1953
S'science'
p1955
sI1954
S'science'
p1956
sI1955
S'business'
p1957
sI1956
S'arts'
p1958
sI1957
S'sports'
p1959
sI1958
S'science'
p1960
sI1959
S'sports'
p1961
sI1960
S'currentAffairs'
p1962
sI1961
S'science'
p1963
sI1962
S'currentAffairs'
p1964
sI1963
S'business'
p1965
sI1964
S'currentAffairs'
p1966
sI1965
S'sports'
p1967
sI1966
S'currentAffairs'
p1968
sI1967
S'business'
p1969
sI1968
S'currentAffairs'
p1970
sI1969
S'currentAffairs'
p1971
sI1970
S'currentAffairs'
p1972
sI1971
S'currentAffairs'
p1973
sI1972
S'currentAffairs'
p1974
sI1973
S'sports'
p1975
sI1974
S'business'
p1976
sI1975
S'arts'
p1977
sI1976
S'business'
p1978
sI1977
S'currentAffairs'
p1979
sI1978
S'currentAffairs'
p1980
sI1979
S'arts'
p1981
sI1980
S'science'
p1982
sI1981
S'business'
p1983
sI1982
S'currentAffairs'
p1984
sI1983
S'arts'
p1985
sI1984
S'arts'
p1986
sI1985
S'currentAffairs'
p1987
sI1986
S'business'
p1988
sI1987
S'currentAffairs'
p1989
sI1988
S'sports'
p1990
sI1989
S'science'
p1991
sI1990
S'sports'
p1992
sI1991
S'currentAffairs'
p1993
sI1992
S'arts'
p1994
sI1993
S'currentAffairs'
p1995
sI1994
S'currentAffairs'
p1996
sI1995
S'sports'
p1997
sI1996
S'arts'
p1998
sI1997
S'business'
p1999
sI1998
S'business'
p2000
sI1999
S'science'
p2001
sI2000
S'science'
p2002
sI2001
S'arts'
p2003
sI2002
S'currentAffairs'
p2004
sI2003
S'science'
p2005
sI2004
S'science'
p2006
sI2005
S'arts'
p2007
sI2006
S'arts'
p2008
sI2007
S'business'
p2009
sI2008
S'science'
p2010
sI2009
S'science'
p2011
sI2010
S'currentAffairs'
p2012
sI2011
S'arts'
p2013
sI2012
S'business'
p2014
sI2013
S'business'
p2015
sI2014
S'science'
p2016
sI2015
S'arts'
p2017
sI2016
S'sports'
p2018
sI2017
S'currentAffairs'
p2019
sI2018
S'currentAffairs'
p2020
sI2019
S'currentAffairs'
p2021
sI2020
S'currentAffairs'
p2022
sI2021
S'currentAffairs'
p2023
sI2022
S'currentAffairs'
p2024
sI2023
S'sports'
p2025
sI2024
S'business'
p2026
sI2025
S'currentAffairs'
p2027
sI2026
S'currentAffairs'
p2028
sI2027
S'arts'
p2029
sI2028
S'science'
p2030
sI2029
S'arts'
p2031
sI2030
S'currentAffairs'
p2032
sI2031
S'currentAffairs'
p2033
sI2032
S'business'
p2034
sI2033
S'currentAffairs'
p2035
sI2034
S'currentAffairs'
p2036
sI2035
S'currentAffairs'
p2037
sI2036
S'currentAffairs'
p2038
sI2037
S'science'
p2039
sI2038
S'sports'
p2040
sI2039
S'sports'
p2041
sI2040
S'business'
p2042
sI2041
S'currentAffairs'
p2043
sI2042
S'currentAffairs'
p2044
sI2043
S'currentAffairs'
p2045
sI2044
S'business'
p2046
sI2045
S'currentAffairs'
p2047
sI2046
S'arts'
p2048
sI2047
S'currentAffairs'
p2049
sI2048
S'business'
p2050
sI2049
S'currentAffairs'
p2051
sI2050
S'science'
p2052
sI2051
S'currentAffairs'
p2053
sI2052
S'currentAffairs'
p2054
sI2053
S'arts'
p2055
sI2054
S'currentAffairs'
p2056
sI2055
S'science'
p2057
sI2056
S'currentAffairs'
p2058
sI2057
S'currentAffairs'
p2059
sI2058
S'currentAffairs'
p2060
sI2059
S'currentAffairs'
p2061
sI2060
S'currentAffairs'
p2062
sI2061
S'arts'
p2063
sI2062
S'currentAffairs'
p2064
sI2063
S'science'
p2065
sI2064
S'arts'
p2066
sI2065
S'business'
p2067
sI2066
S'arts'
p2068
sI2067
S'currentAffairs'
p2069
sI2068
S'arts'
p2070
sI2069
S'currentAffairs'
p2071
sI2070
S'science'
p2072
sI2071
S'business'
p2073
sI2072
S'business'
p2074
sI2073
S'currentAffairs'
p2075
sI2074
S'currentAffairs'
p2076
sI2075
S'business'
p2077
sI2076
S'business'
p2078
sI2077
S'currentAffairs'
p2079
sI2078
S'sports'
p2080
sI2079
S'sports'
p2081
sI2080
S'sports'
p2082
sI2081
S'sports'
p2083
sI2082
S'business'
p2084
sI2083
S'sports'
p2085
sI2084
S'currentAffairs'
p2086
sI2085
S'currentAffairs'
p2087
sI2086
S'business'
p2088
sI2087
S'currentAffairs'
p2089
sI2088
S'arts'
p2090
sI2089
S'business'
p2091
sI2090
S'arts'
p2092
sI2091
S'currentAffairs'
p2093
sI2092
S'arts'
p2094
sI2093
S'arts'
p2095
sI2094
S'currentAffairs'
p2096
sI2095
S'currentAffairs'
p2097
sI2096
S'currentAffairs'
p2098
sI2097
S'science'
p2099
sI2098
S'currentAffairs'
p2100
sI2099
S'arts'
p2101
sI2100
S'currentAffairs'
p2102
sI2101
S'currentAffairs'
p2103
sI2102
S'currentAffairs'
p2104
sI2103
S'sports'
p2105
sI2104
S'business'
p2106
sI2105
S'arts'
p2107
sI2106
S'currentAffairs'
p2108
sI2107
S'science'
p2109
sI2108
S'science'
p2110
sI2109
S'currentAffairs'
p2111
sI2110
S'business'
p2112
sI2111
S'science'
p2113
sI2112
S'currentAffairs'
p2114
sI2113
S'sports'
p2115
sI2114
S'currentAffairs'
p2116
sI2115
S'arts'
p2117
sI2116
S'currentAffairs'
p2118
sI2117
S'currentAffairs'
p2119
sI2118
S'currentAffairs'
p2120
sI2119
S'arts'
p2121
sI2120
S'business'
p2122
sI2121
S'currentAffairs'
p2123
sI2122
S'arts'
p2124
sI2123
S'sports'
p2125
sI2124
S'currentAffairs'
p2126
sI2125
S'currentAffairs'
p2127
sI2126
S'arts'
p2128
sI2127
S'business'
p2129
sI2128
S'arts'
p2130
sI2129
S'sports'
p2131
sI2130
S'currentAffairs'
p2132
sI2131
S'currentAffairs'
p2133
sI2132
S'science'
p2134
sI2133
S'arts'
p2135
sI2134
S'currentAffairs'
p2136
sI2135
S'arts'
p2137
sI2136
S'arts'
p2138
sI2137
S'business'
p2139
sI2138
S'currentAffairs'
p2140
sI2139
S'arts'
p2141
sI2140
S'arts'
p2142
sI2141
S'sports'
p2143
sI2142
S'sports'
p2144
sI2143
S'sports'
p2145
sI2144
S'currentAffairs'
p2146
sI2145
S'currentAffairs'
p2147
sI2146
S'science'
p2148
sI2147
S'currentAffairs'
p2149
sI2148
S'currentAffairs'
p2150
sI2149
S'currentAffairs'
p2151
sI2150
S'currentAffairs'
p2152
sI2151
S'science'
p2153
sI2152
S'arts'
p2154
sI2153
S'currentAffairs'
p2155
sI2154
S'sports'
p2156
sI2155
S'business'
p2157
sI2156
S'sports'
p2158
sI2157
S'currentAffairs'
p2159
sI2158
S'business'
p2160
sI2159
S'arts'
p2161
sI2160
S'arts'
p2162
sI2161
S'arts'
p2163
sI2162
S'business'
p2164
sI2163
S'currentAffairs'
p2165
sI2164
S'currentAffairs'
p2166
sI2165
S'currentAffairs'
p2167
sI2166
S'sports'
p2168
sI2167
S'arts'
p2169
sI2168
S'currentAffairs'
p2170
sI2169
S'currentAffairs'
p2171
sI2170
S'sports'
p2172
sI2171
S'arts'
p2173
sI2172
S'science'
p2174
sI2173
S'currentAffairs'
p2175
sI2174
S'currentAffairs'
p2176
sI2175
S'sports'
p2177
sI2176
S'currentAffairs'
p2178
sI2177
S'business'
p2179
sI2178
S'sports'
p2180
sI2179
S'sports'
p2181
sI2180
S'sports'
p2182
sI2181
S'business'
p2183
sI2182
S'sports'
p2184
sI2183
S'sports'
p2185
sI2184
S'sports'
p2186
sI2185
S'sports'
p2187
sI2186
S'currentAffairs'
p2188
sI2187
S'sports'
p2189
sI2188
S'sports'
p2190
sI2189
S'sports'
p2191
sI2190
S'sports'
p2192
sI2191
S'sports'
p2193
sI2192
S'sports'
p2194
sI2193
S'sports'
p2195
sI2194
S'sports'
p2196
sI2195
S'sports'
p2197
sI2196
S'sports'
p2198
sI2197
S'currentAffairs'
p2199
sI2198
S'sports'
p2200
sI2199
S'sports'
p2201
sI2200
S'sports'
p2202
sI2201
S'sports'
p2203
sI2202
S'currentAffairs'
p2204
sI2203
S'sports'
p2205
sI2204
S'sports'
p2206
sI2205
S'sports'
p2207
sI2206
S'sports'
p2208
sI2207
S'arts'
p2209
sI2208
S'currentAffairs'
p2210
sI2209
S'arts'
p2211
sI2210
S'sports'
p2212
sI2211
S'sports'
p2213
sI2212
S'currentAffairs'
p2214
sI2213
S'sports'
p2215
sI2214
S'sports'
p2216
sI2215
S'currentAffairs'
p2217
sI2216
S'sports'
p2218
sI2217
S'sports'
p2219
sI2218
S'business'
p2220
sI2219
S'business'
p2221
sI2220
S'currentAffairs'
p2222
sI2221
S'science'
p2223
sI2222
S'currentAffairs'
p2224
sI2223
S'arts'
p2225
sI2224
S'business'
p2226
sI2225
S'arts'
p2227
sI2226
S'arts'
p2228
sI2227
S'currentAffairs'
p2229
sI2228
S'science'
p2230
sI2229
S'science'
p2231
sI2230
S'currentAffairs'
p2232
sI2231
S'science'
p2233
sI2232
S'science'
p2234
sI2233
S'sports'
p2235
sI2234
S'currentAffairs'
p2236
sI2235
S'currentAffairs'
p2237
sI2236
S'currentAffairs'
p2238
sI2237
S'currentAffairs'
p2239
sI2238
S'currentAffairs'
p2240
sI2239
S'arts'
p2241
sI2240
S'currentAffairs'
p2242
sI2241
S'currentAffairs'
p2243
sI2242
S'science'
p2244
sI2243
S'sports'
p2245
sI2244
S'currentAffairs'
p2246
sI2245
S'science'
p2247
sI2246
S'currentAffairs'
p2248
sI2247
S'arts'
p2249
sI2248
S'arts'
p2250
sI2249
S'arts'
p2251
sI2250
S'arts'
p2252
sI2251
S'arts'
p2253
sI2252
S'currentAffairs'
p2254
sI2253
S'currentAffairs'
p2255
sI2254
S'currentAffairs'
p2256
sI2255
S'sports'
p2257
sI2256
S'sports'
p2258
sI2257
S'sports'
p2259
sI2258
S'sports'
p2260
sI2259
S'currentAffairs'
p2261
sI2260
S'sports'
p2262
sI2261
S'business'
p2263
sI2262
S'arts'
p2264
sI2263
S'business'
p2265
sI2264
S'currentAffairs'
p2266
sI2265
S'science'
p2267
sI2266
S'business'
p2268
sI2267
S'currentAffairs'
p2269
sI2268
S'currentAffairs'
p2270
sI2269
S'currentAffairs'
p2271
sI2270
S'currentAffairs'
p2272
sI2271
S'arts'
p2273
sI2272
S'currentAffairs'
p2274
sI2273
S'business'
p2275
sI2274
S'business'
p2276
sI2275
S'currentAffairs'
p2277
sI2276
S'business'
p2278
sI2277
S'currentAffairs'
p2279
sI2278
S'business'
p2280
sI2279
S'currentAffairs'
p2281
sI2280
S'currentAffairs'
p2282
sI2281
S'currentAffairs'
p2283
sI2282
S'sports'
p2284
sI2283
S'currentAffairs'
p2285
sI2284
S'science'
p2286
sI2285
S'arts'
p2287
sI2286
S'arts'
p2288
sI2287
S'business'
p2289
sI2288
S'business'
p2290
sI2289
S'business'
p2291
sI2290
S'business'
p2292
sI2291
S'currentAffairs'
p2293
sI2292
S'business'
p2294
sI2293
S'business'
p2295
sI2294
S'business'
p2296
sI2295
S'business'
p2297
sI2296
S'currentAffairs'
p2298
sI2297
S'arts'
p2299
sI2298
S'business'
p2300
sI2299
S'science'
p2301
sI2300
S'business'
p2302
sI2301
S'business'
p2303
sI2302
S'business'
p2304
sI2303
S'currentAffairs'
p2305
sI2304
S'arts'
p2306
sI2305
S'arts'
p2307
sI2306
S'currentAffairs'
p2308
sI2307
S'currentAffairs'
p2309
sI2308
S'sports'
p2310
sI2309
S'currentAffairs'
p2311
sI2310
S'science'
p2312
sI2311
S'science'
p2313
sI2312
S'science'
p2314
sI2313
S'science'
p2315
sI2314
S'business'
p2316
sI2315
S'sports'
p2317
sI2316
S'currentAffairs'
p2318
sI2317
S'science'
p2319
sI2318
S'currentAffairs'
p2320
sI2319
S'arts'
p2321
sI2320
S'sports'
p2322
sI2321
S'science'
p2323
sI2322
S'science'
p2324
sI2323
S'business'
p2325
sI2324
S'science'
p2326
sI2325
S'science'
p2327
sI2326
S'currentAffairs'
p2328
sI2327
S'currentAffairs'
p2329
sI2328
S'currentAffairs'
p2330
sI2329
S'currentAffairs'
p2331
sI2330
S'arts'
p2332
sI2331
S'currentAffairs'
p2333
sI2332
S'business'
p2334
sI2333
S'currentAffairs'
p2335
sI2334
S'business'
p2336
sI2335
S'business'
p2337
sI2336
S'business'
p2338
sI2337
S'business'
p2339
sI2338
S'business'
p2340
sI2339
S'currentAffairs'
p2341
sI2340
S'science'
p2342
sI2341
S'currentAffairs'
p2343
sI2342
S'currentAffairs'
p2344
sI2343
S'currentAffairs'
p2345
sI2344
S'currentAffairs'
p2346
sI2345
S'business'
p2347
sI2346
S'arts'
p2348
sI2347
S'business'
p2349
sI2348
S'arts'
p2350
sI2349
S'science'
p2351
sI2350
S'currentAffairs'
p2352
sI2351
S'currentAffairs'
p2353
sI2352
S'currentAffairs'
p2354
sI2353
S'currentAffairs'
p2355
sI2354
S'currentAffairs'
p2356
sI2355
S'currentAffairs'
p2357
sI2356
S'currentAffairs'
p2358
sI2357
S'currentAffairs'
p2359
sI2358
S'currentAffairs'
p2360
sI2359
S'currentAffairs'
p2361
sI2360
S'currentAffairs'
p2362
sI2361
S'currentAffairs'
p2363
sI2362
S'arts'
p2364
sI2363
S'currentAffairs'
p2365
sI2364
S'currentAffairs'
p2366
sI2365
S'business'
p2367
sI2366
S'currentAffairs'
p2368
sI2367
S'arts'
p2369
sI2368
S'currentAffairs'
p2370
sI2369
S'currentAffairs'
p2371
sI2370
S'arts'
p2372
sI2371
S'arts'
p2373
sI2372
S'currentAffairs'
p2374
sI2373
S'sports'
p2375
sI2374
S'science'
p2376
sI2375
S'arts'
p2377
sI2376
S'currentAffairs'
p2378
sI2377
S'arts'
p2379
sI2378
S'business'
p2380
sI2379
S'currentAffairs'
p2381
sI2380
S'currentAffairs'
p2382
sI2381
S'currentAffairs'
p2383
sI2382
S'arts'
p2384
sI2383
S'business'
p2385
sI2384
S'sports'
p2386
sI2385
S'science'
p2387
sI2386
S'business'
p2388
sI2387
S'business'
p2389
sI2388
S'arts'
p2390
sI2389
S'currentAffairs'
p2391
sI2390
S'science'
p2392
sI2391
S'sports'
p2393
sI2392
S'business'
p2394
sI2393
S'arts'
p2395
sI2394
S'currentAffairs'
p2396
sI2395
S'currentAffairs'
p2397
sI2396
S'business'
p2398
sI2397
S'currentAffairs'
p2399
sI2398
S'currentAffairs'
p2400
sI2399
S'science'
p2401
sI2400
S'currentAffairs'
p2402
sI2401
S'business'
p2403
sI2402
S'currentAffairs'
p2404
sI2403
S'arts'
p2405
sI2404
S'business'
p2406
sI2405
S'science'
p2407
sI2406
S'science'
p2408
sI2407
S'science'
p2409
sI2408
S'currentAffairs'
p2410
sI2409
S'science'
p2411
sI2410
S'currentAffairs'
p2412
sI2411
S'sports'
p2413
sI2412
S'science'
p2414
sI2413
S'currentAffairs'
p2415
sI2414
S'science'
p2416
sI2415
S'business'
p2417
sI2416
S'sports'
p2418
sI2417
S'sports'
p2419
sI2418
S'sports'
p2420
sI2419
S'sports'
p2421
sI2420
S'science'
p2422
sI2421
S'science'
p2423
sI2422
S'sports'
p2424
sI2423
S'science'
p2425
sI2424
S'currentAffairs'
p2426
sI2425
S'currentAffairs'
p2427
sI2426
S'currentAffairs'
p2428
sI2427
S'arts'
p2429
sI2428
S'currentAffairs'
p2430
sI2429
S'currentAffairs'
p2431
sI2430
S'business'
p2432
sI2431
S'currentAffairs'
p2433
sI2432
S'science'
p2434
sI2433
S'science'
p2435
sI2434
S'business'
p2436
sI2435
S'science'
p2437
sI2436
S'arts'
p2438
sI2437
S'sports'
p2439
sI2438
S'science'
p2440
sI2439
S'currentAffairs'
p2441
sI2440
S'science'
p2442
sI2441
S'currentAffairs'
p2443
sI2442
S'business'
p2444
sI2443
S'currentAffairs'
p2445
sI2444
S'science'
p2446
sI2445
S'currentAffairs'
p2447
sI2446
S'business'
p2448
sI2447
S'currentAffairs'
p2449
sI2448
S'arts'
p2450
sI2449
S'currentAffairs'
p2451
sI2450
S'business'
p2452
sI2451
S'science'
p2453
sI2452
S'currentAffairs'
p2454
sI2453
S'currentAffairs'
p2455
sI2454
S'business'
p2456
sI2455
S'currentAffairs'
p2457
sI2456
S'currentAffairs'
p2458
sI2457
S'currentAffairs'
p2459
sI2458
S'sports'
p2460
sI2459
S'currentAffairs'
p2461
sI2460
S'currentAffairs'
p2462
sI2461
S'arts'
p2463
sI2462
S'arts'
p2464
sI2463
S'currentAffairs'
p2465
sI2464
S'sports'
p2466
sI2465
S'currentAffairs'
p2467
sI2466
S'currentAffairs'
p2468
sI2467
S'currentAffairs'
p2469
sI2468
S'currentAffairs'
p2470
sI2469
S'currentAffairs'
p2471
sI2470
S'currentAffairs'
p2472
sI2471
S'sports'
p2473
sI2472
S'business'
p2474
sI2473
S'currentAffairs'
p2475
sI2474
S'currentAffairs'
p2476
sI2475
S'business'
p2477
sI2476
S'currentAffairs'
p2478
sI2477
S'sports'
p2479
sI2478
S'arts'
p2480
sI2479
S'currentAffairs'
p2481
sI2480
S'arts'
p2482
sI2481
S'business'
p2483
sI2482
S'arts'
p2484
sI2483
S'science'
p2485
sI2484
S'arts'
p2486
sI2485
S'business'
p2487
sI2486
S'currentAffairs'
p2488
sI2487
S'currentAffairs'
p2489
sI2488
S'currentAffairs'
p2490
sI2489
S'business'
p2491
sI2490
S'currentAffairs'
p2492
sI2491
S'currentAffairs'
p2493
sI2492
S'currentAffairs'
p2494
sI2493
S'currentAffairs'
p2495
sI2494
S'sports'
p2496
sI2495
S'science'
p2497
sI2496
S'currentAffairs'
p2498
sI2497
S'science'
p2499
sI2498
S'business'
p2500
sI2499
S'sports'
p2501
sI2500
S'currentAffairs'
p2502
sI2501
S'currentAffairs'
p2503
sI2502
S'currentAffairs'
p2504
sI2503
S'arts'
p2505
sI2504
S'arts'
p2506
sI2505
S'science'
p2507
sI2506
S'business'
p2508
sI2507
S'currentAffairs'
p2509
sI2508
S'business'
p2510
sI2509
S'business'
p2511
sI2510
S'business'
p2512
sI2511
S'business'
p2513
sI2512
S'currentAffairs'
p2514
sI2513
S'sports'
p2515
sI2514
S'currentAffairs'
p2516
sI2515
S'sports'
p2517
sI2516
S'arts'
p2518
sI2517
S'science'
p2519
sI2518
S'currentAffairs'
p2520
sI2519
S'currentAffairs'
p2521
sI2520
S'sports'
p2522
sI2521
S'sports'
p2523
sI2522
S'business'
p2524
sI2523
S'sports'
p2525
sI2524
S'currentAffairs'
p2526
sI2525
S'sports'
p2527
sI2526
S'science'
p2528
sI2527
S'currentAffairs'
p2529
sI2528
S'currentAffairs'
p2530
sI2529
S'currentAffairs'
p2531
sI2530
S'arts'
p2532
sI2531
S'arts'
p2533
sI2532
S'currentAffairs'
p2534
sI2533
S'currentAffairs'
p2535
sI2534
S'currentAffairs'
p2536
sI2535
S'currentAffairs'
p2537
sI2536
S'sports'
p2538
sI2537
S'science'
p2539
sI2538
S'currentAffairs'
p2540
sI2539
S'science'
p2541
sI2540
S'sports'
p2542
sI2541
S'business'
p2543
sI2542
S'currentAffairs'
p2544
sI2543
S'currentAffairs'
p2545
sI2544
S'arts'
p2546
sI2545
S'currentAffairs'
p2547
sI2546
S'arts'
p2548
sI2547
S'science'
p2549
sI2548
S'science'
p2550
sI2549
S'business'
p2551
sI2550
S'science'
p2552
sI2551
S'business'
p2553
sI2552
S'science'
p2554
sI2553
S'arts'
p2555
sI2554
S'sports'
p2556
sI2555
S'currentAffairs'
p2557
sI2556
S'currentAffairs'
p2558
sI2557
S'science'
p2559
sI2558
S'arts'
p2560
sI2559
S'sports'
p2561
sI2560
S'science'
p2562
sI2561
S'currentAffairs'
p2563
sI2562
S'science'
p2564
sI2563
S'currentAffairs'
p2565
sI2564
S'science'
p2566
sI2565
S'science'
p2567
sI2566
S'science'
p2568
sI2567
S'currentAffairs'
p2569
sI2568
S'business'
p2570
sI2569
S'currentAffairs'
p2571
sI2570
S'business'
p2572
sI2571
S'currentAffairs'
p2573
sI2572
S'currentAffairs'
p2574
sI2573
S'science'
p2575
sI2574
S'sports'
p2576
sI2575
S'business'
p2577
sI2576
S'currentAffairs'
p2578
sI2577
S'currentAffairs'
p2579
sI2578
S'currentAffairs'
p2580
sI2579
S'science'
p2581
sI2580
S'business'
p2582
sI2581
S'science'
p2583
sI2582
S'currentAffairs'
p2584
sI2583
S'currentAffairs'
p2585
sI2584
S'business'
p2586
sI2585
S'currentAffairs'
p2587
sI2586
S'currentAffairs'
p2588
sI2587
S'currentAffairs'
p2589
sI2588
S'currentAffairs'
p2590
sI2589
S'currentAffairs'
p2591
sI2590
S'science'
p2592
sI2591
S'arts'
p2593
sI2592
S'currentAffairs'
p2594
sI2593
S'business'
p2595
sI2594
S'science'
p2596
sI2595
S'arts'
p2597
sI2596
S'currentAffairs'
p2598
sI2597
S'science'
p2599
sI2598
S'currentAffairs'
p2600
sI2599
S'currentAffairs'
p2601
sI2600
S'currentAffairs'
p2602
sI2601
S'currentAffairs'
p2603
sI2602
S'arts'
p2604
sI2603
S'business'
p2605
sI2604
S'currentAffairs'
p2606
sI2605
S'science'
p2607
sI2606
S'science'
p2608
sI2607
S'currentAffairs'
p2609
sI2608
S'business'
p2610
sI2609
S'currentAffairs'
p2611
sI2610
S'currentAffairs'
p2612
sI2611
S'business'
p2613
sI2612
S'arts'
p2614
sI2613
S'currentAffairs'
p2615
sI2614
S'sports'
p2616
sI2615
S'currentAffairs'
p2617
sI2616
S'currentAffairs'
p2618
sI2617
S'currentAffairs'
p2619
sI2618
S'currentAffairs'
p2620
sI2619
S'sports'
p2621
sI2620
S'currentAffairs'
p2622
sI2621
S'business'
p2623
sI2622
S'currentAffairs'
p2624
sI2623
S'currentAffairs'
p2625
sI2624
S'currentAffairs'
p2626
sI2625
S'currentAffairs'
p2627
sI2626
S'currentAffairs'
p2628
sI2627
S'currentAffairs'
p2629
sI2628
S'currentAffairs'
p2630
sI2629
S'currentAffairs'
p2631
sI2630
S'currentAffairs'
p2632
sI2631
S'currentAffairs'
p2633
sI2632
S'science'
p2634
sI2633
S'currentAffairs'
p2635
sI2634
S'currentAffairs'
p2636
sI2635
S'currentAffairs'
p2637
sI2636
S'currentAffairs'
p2638
sI2637
S'arts'
p2639
sI2638
S'sports'
p2640
sI2639
S'currentAffairs'
p2641
sI2640
S'sports'
p2642
sI2641
S'business'
p2643
sI2642
S'currentAffairs'
p2644
sI2643
S'currentAffairs'
p2645
sI2644
S'business'
p2646
sI2645
S'business'
p2647
sI2646
S'arts'
p2648
sI2647
S'currentAffairs'
p2649
sI2648
S'arts'
p2650
sI2649
S'arts'
p2651
sI2650
S'currentAffairs'
p2652
sI2651
S'arts'
p2653
sI2652
S'currentAffairs'
p2654
sI2653
S'sports'
p2655
sI2654
S'business'
p2656
sI2655
S'currentAffairs'
p2657
sI2656
S'science'
p2658
sI2657
S'arts'
p2659
sI2658
S'currentAffairs'
p2660
sI2659
S'business'
p2661
sI2660
S'currentAffairs'
p2662
sI2661
S'arts'
p2663
sI2662
S'currentAffairs'
p2664
sI2663
S'currentAffairs'
p2665
sI2664
S'arts'
p2666
sI2665
S'arts'
p2667
sI2666
S'currentAffairs'
p2668
sI2667
S'arts'
p2669
sI2668
S'currentAffairs'
p2670
sI2669
S'currentAffairs'
p2671
sI2670
S'currentAffairs'
p2672
sI2671
S'business'
p2673
sI2672
S'arts'
p2674
sI2673
S'currentAffairs'
p2675
sI2674
S'currentAffairs'
p2676
sI2675
S'currentAffairs'
p2677
sI2676
S'currentAffairs'
p2678
sI2677
S'arts'
p2679
sI2678
S'currentAffairs'
p2680
sI2679
S'currentAffairs'
p2681
sI2680
S'currentAffairs'
p2682
sI2681
S'currentAffairs'
p2683
sI2682
S'science'
p2684
sI2683
S'science'
p2685
sI2684
S'business'
p2686
sI2685
S'currentAffairs'
p2687
sI2686
S'arts'
p2688
sI2687
S'currentAffairs'
p2689
sI2688
S'currentAffairs'
p2690
sI2689
S'currentAffairs'
p2691
sI2690
S'currentAffairs'
p2692
sI2691
S'currentAffairs'
p2693
sI2692
S'business'
p2694
sI2693
S'business'
p2695
sI2694
S'arts'
p2696
sI2695
S'currentAffairs'
p2697
sI2696
S'currentAffairs'
p2698
sI2697
S'currentAffairs'
p2699
sI2698
S'science'
p2700
sI2699
S'currentAffairs'
p2701
sI2700
S'currentAffairs'
p2702
sI2701
S'currentAffairs'
p2703
sI2702
S'business'
p2704
sI2703
S'currentAffairs'
p2705
sI2704
S'currentAffairs'
p2706
sI2705
S'currentAffairs'
p2707
sI2706
S'currentAffairs'
p2708
sI2707
S'business'
p2709
sI2708
S'business'
p2710
sI2709
S'currentAffairs'
p2711
sI2710
S'currentAffairs'
p2712
sI2711
S'science'
p2713
sI2712
S'currentAffairs'
p2714
sI2713
S'science'
p2715
sI2714
S'sports'
p2716
sI2715
S'currentAffairs'
p2717
sI2716
S'business'
p2718
sI2717
S'currentAffairs'
p2719
sI2718
S'arts'
p2720
sI2719
S'currentAffairs'
p2721
sI2720
S'currentAffairs'
p2722
sI2721
S'science'
p2723
sI2722
S'arts'
p2724
sI2723
S'currentAffairs'
p2725
sI2724
S'currentAffairs'
p2726
sI2725
S'currentAffairs'
p2727
sI2726
S'currentAffairs'
p2728
sI2727
S'currentAffairs'
p2729
sI2728
S'currentAffairs'
p2730
sI2729
S'currentAffairs'
p2731
sI2730
S'arts'
p2732
sI2731
S'currentAffairs'
p2733
sI2732
S'currentAffairs'
p2734
sI2733
S'currentAffairs'
p2735
sI2734
S'currentAffairs'
p2736
sI2735
S'business'
p2737
sI2736
S'currentAffairs'
p2738
sI2737
S'currentAffairs'
p2739
sI2738
S'currentAffairs'
p2740
sI2739
S'business'
p2741
sI2740
S'science'
p2742
sI2741
S'currentAffairs'
p2743
sI2742
S'arts'
p2744
sI2743
S'currentAffairs'
p2745
sI2744
S'business'
p2746
sI2745
S'sports'
p2747
sI2746
S'business'
p2748
sI2747
S'currentAffairs'
p2749
sI2748
S'science'
p2750
sI2749
S'currentAffairs'
p2751
sI2750
S'business'
p2752
sI2751
S'science'
p2753
sI2752
S'currentAffairs'
p2754
sI2753
S'sports'
p2755
sI2754
S'business'
p2756
sI2755
S'business'
p2757
sI2756
S'business'
p2758
sI2757
S'currentAffairs'
p2759
sI2758
S'currentAffairs'
p2760
sI2759
S'currentAffairs'
p2761
sI2760
S'currentAffairs'
p2762
sI2761
S'currentAffairs'
p2763
sI2762
S'arts'
p2764
sI2763
S'business'
p2765
sI2764
S'currentAffairs'
p2766
sI2765
S'currentAffairs'
p2767
sI2766
S'science'
p2768
sI2767
S'sports'
p2769
sI2768
S'sports'
p2770
sI2769
S'currentAffairs'
p2771
sI2770
S'business'
p2772
sI2771
S'business'
p2773
sI2772
S'currentAffairs'
p2774
sI2773
S'business'
p2775
sI2774
S'arts'
p2776
sI2775
S'sports'
p2777
sI2776
S'arts'
p2778
sI2777
S'science'
p2779
sI2778
S'currentAffairs'
p2780
sI2779
S'science'
p2781
sI2780
S'currentAffairs'
p2782
sI2781
S'currentAffairs'
p2783
sI2782
S'currentAffairs'
p2784
sI2783
S'currentAffairs'
p2785
sI2784
S'currentAffairs'
p2786
sI2785
S'currentAffairs'
p2787
sI2786
S'currentAffairs'
p2788
sI2787
S'arts'
p2789
sI2788
S'currentAffairs'
p2790
sI2789
S'currentAffairs'
p2791
sI2790
S'science'
p2792
sI2791
S'arts'
p2793
sI2792
S'sports'
p2794
sI2793
S'science'
p2795
sI2794
S'business'
p2796
sI2795
S'sports'
p2797
sI2796
S'currentAffairs'
p2798
sI2797
S'sports'
p2799
sI2798
S'sports'
p2800
sI2799
S'currentAffairs'
p2801
sI2800
S'arts'
p2802
sI2801
S'science'
p2803
sI2802
S'science'
p2804
sI2803
S'arts'
p2805
sI2804
S'currentAffairs'
p2806
sI2805
S'currentAffairs'
p2807
sI2806
S'currentAffairs'
p2808
sI2807
S'arts'
p2809
sI2808
S'business'
p2810
sI2809
S'currentAffairs'
p2811
sI2810
S'business'
p2812
sI2811
S'currentAffairs'
p2813
sI2812
S'business'
p2814
sI2813
S'sports'
p2815
sI2814
S'currentAffairs'
p2816
sI2815
S'science'
p2817
sI2816
S'currentAffairs'
p2818
sI2817
S'currentAffairs'
p2819
sI2818
S'sports'
p2820
sI2819
S'business'
p2821
sI2820
S'science'
p2822
sI2821
S'currentAffairs'
p2823
sI2822
S'currentAffairs'
p2824
sI2823
S'currentAffairs'
p2825
sI2824
S'science'
p2826
sI2825
S'currentAffairs'
p2827
sI2826
S'business'
p2828
sI2827
S'currentAffairs'
p2829
sI2828
S'currentAffairs'
p2830
sI2829
S'currentAffairs'
p2831
sI2830
S'business'
p2832
sI2831
S'currentAffairs'
p2833
sI2832
S'sports'
p2834
sI2833
S'currentAffairs'
p2835
sI2834
S'currentAffairs'
p2836
sI2835
S'currentAffairs'
p2837
sI2836
S'currentAffairs'
p2838
sI2837
S'sports'
p2839
sI2838
S'currentAffairs'
p2840
sI2839
S'business'
p2841
sI2840
S'arts'
p2842
sI2841
S'currentAffairs'
p2843
sI2842
S'currentAffairs'
p2844
sI2843
S'sports'
p2845
sI2844
S'currentAffairs'
p2846
sI2845
S'sports'
p2847
sI2846
S'science'
p2848
sI2847
S'currentAffairs'
p2849
sI2848
S'arts'
p2850
sI2849
S'arts'
p2851
sI2850
S'currentAffairs'
p2852
sI2851
S'currentAffairs'
p2853
sI2852
S'currentAffairs'
p2854
sI2853
S'currentAffairs'
p2855
sI2854
S'currentAffairs'
p2856
sI2855
S'business'
p2857
sI2856
S'business'
p2858
sI2857
S'currentAffairs'
p2859
sI2858
S'currentAffairs'
p2860
sI2859
S'currentAffairs'
p2861
sI2860
S'currentAffairs'
p2862
sI2861
S'science'
p2863
sI2862
S'sports'
p2864
sI2863
S'business'
p2865
sI2864
S'science'
p2866
sI2865
S'arts'
p2867
sI2866
S'arts'
p2868
sI2867
S'arts'
p2869
sI2868
S'science'
p2870
sI2869
S'arts'
p2871
sI2870
S'arts'
p2872
sI2871
S'arts'
p2873
sI2872
S'arts'
p2874
sI2873
S'arts'
p2875
sI2874
S'arts'
p2876
sI2875
S'science'
p2877
sI2876
S'arts'
p2878
sI2877
S'currentAffairs'
p2879
sI2878
S'business'
p2880
sI2879
S'arts'
p2881
sI2880
S'arts'
p2882
sI2881
S'currentAffairs'
p2883
sI2882
S'science'
p2884
sI2883
S'currentAffairs'
p2885
sI2884
S'currentAffairs'
p2886
sI2885
S'arts'
p2887
sI2886
S'sports'
p2888
sI2887
S'science'
p2889
sI2888
S'business'
p2890
sI2889
S'currentAffairs'
p2891
sI2890
S'sports'
p2892
sI2891
S'currentAffairs'
p2893
sI2892
S'currentAffairs'
p2894
sI2893
S'business'
p2895
sI2894
S'currentAffairs'
p2896
sI2895
S'business'
p2897
sI2896
S'currentAffairs'
p2898
sI2897
S'currentAffairs'
p2899
sI2898
S'business'
p2900
sI2899
S'sports'
p2901
sI2900
S'currentAffairs'
p2902
sI2901
S'business'
p2903
sI2902
S'currentAffairs'
p2904
sI2903
S'science'
p2905
sI2904
S'currentAffairs'
p2906
sI2905
S'arts'
p2907
sI2906
S'sports'
p2908
sI2907
S'currentAffairs'
p2909
sI2908
S'currentAffairs'
p2910
sI2909
S'currentAffairs'
p2911
sI2910
S'currentAffairs'
p2912
sI2911
S'currentAffairs'
p2913
sI2912
S'currentAffairs'
p2914
sI2913
S'arts'
p2915
sI2914
S'currentAffairs'
p2916
sI2915
S'currentAffairs'
p2917
sI2916
S'currentAffairs'
p2918
sI2917
S'currentAffairs'
p2919
sI2918
S'arts'
p2920
sI2919
S'currentAffairs'
p2921
sI2920
S'science'
p2922
sI2921
S'business'
p2923
sI2922
S'arts'
p2924
sI2923
S'business'
p2925
sI2924
S'currentAffairs'
p2926
sI2925
S'science'
p2927
sI2926
S'currentAffairs'
p2928
sI2927
S'arts'
p2929
sI2928
S'currentAffairs'
p2930
sI2929
S'currentAffairs'
p2931
sI2930
S'sports'
p2932
sI2931
S'sports'
p2933
sI2932
S'sports'
p2934
sI2933
S'sports'
p2935
sI2934
S'business'
p2936
sI2935
S'science'
p2937
sI2936
S'currentAffairs'
p2938
sI2937
S'science'
p2939
sI2938
S'arts'
p2940
sI2939
S'sports'
p2941
sI2940
S'currentAffairs'
p2942
sI2941
S'business'
p2943
sI2942
S'arts'
p2944
sI2943
S'arts'
p2945
sI2944
S'business'
p2946
sI2945
S'sports'
p2947
sI2946
S'currentAffairs'
p2948
sI2947
S'currentAffairs'
p2949
sI2948
S'currentAffairs'
p2950
sI2949
S'arts'
p2951
sI2950
S'currentAffairs'
p2952
sI2951
S'arts'
p2953
sI2952
S'business'
p2954
sI2953
S'currentAffairs'
p2955
sI2954
S'currentAffairs'
p2956
sI2955
S'currentAffairs'
p2957
sI2956
S'science'
p2958
sI2957
S'sports'
p2959
sI2958
S'business'
p2960
sI2959
S'arts'
p2961
sI2960
S'currentAffairs'
p2962
sI2961
S'business'
p2963
sI2962
S'currentAffairs'
p2964
sI2963
S'currentAffairs'
p2965
sI2964
S'business'
p2966
sI2965
S'currentAffairs'
p2967
sI2966
S'business'
p2968
sI2967
S'science'
p2969
sI2968
S'currentAffairs'
p2970
sI2969
S'science'
p2971
sI2970
S'currentAffairs'
p2972
sI2971
S'science'
p2973
sI2972
S'currentAffairs'
p2974
sI2973
S'currentAffairs'
p2975
sI2974
S'currentAffairs'
p2976
sI2975
S'arts'
p2977
sI2976
S'arts'
p2978
sI2977
S'business'
p2979
sI2978
S'currentAffairs'
p2980
sI2979
S'arts'
p2981
sI2980
S'arts'
p2982
sI2981
S'science'
p2983
sI2982
S'arts'
p2984
sI2983
S'sports'
p2985
sI2984
S'business'
p2986
sI2985
S'sports'
p2987
sI2986
S'business'
p2988
sI2987
S'business'
p2989
sI2988
S'science'
p2990
sI2989
S'currentAffairs'
p2991
sI2990
S'business'
p2992
sI2991
S'arts'
p2993
sI2992
S'currentAffairs'
p2994
sI2993
S'sports'
p2995
sI2994
S'currentAffairs'
p2996
sI2995
S'arts'
p2997
sI2996
S'currentAffairs'
p2998
sI2997
S'arts'
p2999
sI2998
S'currentAffairs'
p3000
sI2999
S'currentAffairs'
p3001
sI3000
S'currentAffairs'
p3002
sI3001
S'currentAffairs'
p3003
sI3002
S'currentAffairs'
p3004
sI3003
S'business'
p3005
sI3004
S'sports'
p3006
sI3005
S'sports'
p3007
sI3006
S'sports'
p3008
sI3007
S'arts'
p3009
sI3008
S'currentAffairs'
p3010
sI3009
S'currentAffairs'
p3011
sI3010
S'business'
p3012
sI3011
S'sports'
p3013
sI3012
S'arts'
p3014
sI3013
S'arts'
p3015
sI3014
S'arts'
p3016
sI3015
S'arts'
p3017
sI3016
S'arts'
p3018
sI3017
S'arts'
p3019
sI3018
S'arts'
p3020
sI3019
S'business'
p3021
sI3020
S'arts'
p3022
sI3021
S'arts'
p3023
sI3022
S'arts'
p3024
sI3023
S'arts'
p3025
sI3024
S'arts'
p3026
sI3025
S'arts'
p3027
sI3026
S'arts'
p3028
sI3027
S'arts'
p3029
sI3028
S'currentAffairs'
p3030
sI3029
S'sports'
p3031
sI3030
S'arts'
p3032
sI3031
S'arts'
p3033
sI3032
S'arts'
p3034
sI3033
S'currentAffairs'
p3035
sI3034
S'arts'
p3036
sI3035
S'science'
p3037
sI3036
S'arts'
p3038
sI3037
S'arts'
p3039
sI3038
S'arts'
p3040
sI3039
S'arts'
p3041
sI3040
S'arts'
p3042
sI3041
S'arts'
p3043
sI3042
S'arts'
p3044
sI3043
S'arts'
p3045
sI3044
S'arts'
p3046
sI3045
S'arts'
p3047
sI3046
S'arts'
p3048
sI3047
S'arts'
p3049
sI3048
S'arts'
p3050
sI3049
S'arts'
p3051
sI3050
S'arts'
p3052
sI3051
S'arts'
p3053
sI3052
S'arts'
p3054
sI3053
S'arts'
p3055
sI3054
S'arts'
p3056
sI3055
S'arts'
p3057
sI3056
S'arts'
p3058
sI3057
S'arts'
p3059
sI3058
S'currentAffairs'
p3060
sI3059
S'arts'
p3061
sI3060
S'arts'
p3062
sI3061
S'arts'
p3063
sI3062
S'arts'
p3064
sI3063
S'business'
p3065
sI3064
S'currentAffairs'
p3066
sI3065
S'business'
p3067
sI3066
S'arts'
p3068
sI3067
S'science'
p3069
sI3068
S'currentAffairs'
p3070
sI3069
S'currentAffairs'
p3071
sI3070
S'currentAffairs'
p3072
sI3071
S'currentAffairs'
p3073
sI3072
S'arts'
p3074
sI3073
S'currentAffairs'
p3075
sI3074
S'business'
p3076
sI3075
S'currentAffairs'
p3077
sI3076
S'currentAffairs'
p3078
sI3077
S'arts'
p3079
sI3078
S'currentAffairs'
p3080
sI3079
S'arts'
p3081
sI3080
S'business'
p3082
sI3081
S'currentAffairs'
p3083
sI3082
S'currentAffairs'
p3084
sI3083
S'business'
p3085
sI3084
S'sports'
p3086
sI3085
S'business'
p3087
sI3086
S'arts'
p3088
sI3087
S'currentAffairs'
p3089
sI3088
S'business'
p3090
sI3089
S'currentAffairs'
p3091
sI3090
S'arts'
p3092
sI3091
S'currentAffairs'
p3093
sI3092
S'business'
p3094
sI3093
S'currentAffairs'
p3095
sI3094
S'currentAffairs'
p3096
sI3095
S'currentAffairs'
p3097
sI3096
S'currentAffairs'
p3098
sI3097
S'currentAffairs'
p3099
sI3098
S'currentAffairs'
p3100
sI3099
S'currentAffairs'
p3101
sI3100
S'science'
p3102
sI3101
S'currentAffairs'
p3103
sI3102
S'currentAffairs'
p3104
sI3103
S'currentAffairs'
p3105
sI3104
S'currentAffairs'
p3106
sI3105
S'currentAffairs'
p3107
sI3106
S'arts'
p3108
sI3107
S'business'
p3109
sI3108
S'currentAffairs'
p3110
sI3109
S'arts'
p3111
sI3110
S'arts'
p3112
sI3111
S'currentAffairs'
p3113
sI3112
S'business'
p3114
sI3113
S'currentAffairs'
p3115
sI3114
S'science'
p3116
sI3115
S'currentAffairs'
p3117
sI3116
S'currentAffairs'
p3118
sI3117
S'currentAffairs'
p3119
sI3118
S'currentAffairs'
p3120
sI3119
S'currentAffairs'
p3121
sI3120
S'currentAffairs'
p3122
sI3121
S'currentAffairs'
p3123
sI3122
S'science'
p3124
sI3123
S'science'
p3125
sI3124
S'currentAffairs'
p3126
sI3125
S'arts'
p3127
sI3126
S'currentAffairs'
p3128
sI3127
S'currentAffairs'
p3129
sI3128
S'currentAffairs'
p3130
sI3129
S'arts'
p3131
sI3130
S'sports'
p3132
sI3131
S'business'
p3133
sI3132
S'business'
p3134
sI3133
S'business'
p3135
sI3134
S'currentAffairs'
p3136
sI3135
S'currentAffairs'
p3137
sI3136
S'currentAffairs'
p3138
sI3137
S'business'
p3139
sI3138
S'arts'
p3140
sI3139
S'business'
p3141
sI3140
S'arts'
p3142
sI3141
S'currentAffairs'
p3143
sI3142
S'currentAffairs'
p3144
sI3143
S'currentAffairs'
p3145
sI3144
S'currentAffairs'
p3146
sI3145
S'currentAffairs'
p3147
sI3146
S'business'
p3148
sI3147
S'currentAffairs'
p3149
sI3148
S'currentAffairs'
p3150
sI3149
S'currentAffairs'
p3151
sI3150
S'currentAffairs'
p3152
sI3151
S'currentAffairs'
p3153
sI3152
S'arts'
p3154
sI3153
S'currentAffairs'
p3155
sI3154
S'currentAffairs'
p3156
sI3155
S'currentAffairs'
p3157
sI3156
S'business'
p3158
sI3157
S'currentAffairs'
p3159
sI3158
S'currentAffairs'
p3160
sI3159
S'currentAffairs'
p3161
sI3160
S'currentAffairs'
p3162
sI3161
S'science'
p3163
sI3162
S'currentAffairs'
p3164
sI3163
S'science'
p3165
sI3164
S'sports'
p3166
sI3165
S'currentAffairs'
p3167
sI3166
S'sports'
p3168
sI3167
S'currentAffairs'
p3169
sI3168
S'currentAffairs'
p3170
sI3169
S'currentAffairs'
p3171
sI3170
S'business'
p3172
sI3171
S'business'
p3173
sI3172
S'currentAffairs'
p3174
sI3173
S'sports'
p3175
sI3174
S'currentAffairs'
p3176
sI3175
S'currentAffairs'
p3177
sI3176
S'business'
p3178
sI3177
S'currentAffairs'
p3179
sI3178
S'business'
p3180
sI3179
S'business'
p3181
sI3180
S'currentAffairs'
p3182
sI3181
S'currentAffairs'
p3183
sI3182
S'currentAffairs'
p3184
sI3183
S'currentAffairs'
p3185
sI3184
S'currentAffairs'
p3186
sI3185
S'business'
p3187
sI3186
S'currentAffairs'
p3188
sI3187
S'currentAffairs'
p3189
sI3188
S'business'
p3190
sI3189
S'currentAffairs'
p3191
sI3190
S'currentAffairs'
p3192
sI3191
S'currentAffairs'
p3193
sI3192
S'currentAffairs'
p3194
sI3193
S'sports'
p3195
sI3194
S'currentAffairs'
p3196
sI3195
S'currentAffairs'
p3197
sI3196
S'currentAffairs'
p3198
sI3197
S'currentAffairs'
p3199
sI3198
S'currentAffairs'
p3200
sI3199
S'currentAffairs'
p3201
sI3200
S'arts'
p3202
sI3201
S'currentAffairs'
p3203
sI3202
S'currentAffairs'
p3204
sI3203
S'currentAffairs'
p3205
sI3204
S'sports'
p3206
sI3205
S'currentAffairs'
p3207
sI3206
S'sports'
p3208
sI3207
S'currentAffairs'
p3209
sI3208
S'currentAffairs'
p3210
sI3209
S'business'
p3211
sI3210
S'currentAffairs'
p3212
sI3211
S'business'
p3213
sI3212
S'currentAffairs'
p3214
sI3213
S'business'
p3215
sI3214
S'currentAffairs'
p3216
sI3215
S'currentAffairs'
p3217
sI3216
S'sports'
p3218
sI3217
S'currentAffairs'
p3219
sI3218
S'business'
p3220
sI3219
S'sports'
p3221
sI3220
S'currentAffairs'
p3222
sI3221
S'currentAffairs'
p3223
sI3222
S'business'
p3224
sI3223
S'currentAffairs'
p3225
sI3224
S'arts'
p3226
sI3225
S'currentAffairs'
p3227
sI3226
S'currentAffairs'
p3228
sI3227
S'currentAffairs'
p3229
sI3228
S'business'
p3230
sI3229
S'currentAffairs'
p3231
sI3230
S'currentAffairs'
p3232
sI3231
S'currentAffairs'
p3233
sI3232
S'sports'
p3234
sI3233
S'currentAffairs'
p3235
sI3234
S'currentAffairs'
p3236
sI3235
S'currentAffairs'
p3237
sI3236
S'currentAffairs'
p3238
sI3237
S'arts'
p3239
sI3238
S'currentAffairs'
p3240
sI3239
S'arts'
p3241
sI3240
S'arts'
p3242
sI3241
S'currentAffairs'
p3243
sI3242
S'currentAffairs'
p3244
sI3243
S'currentAffairs'
p3245
sI3244
S'currentAffairs'
p3246
sI3245
S'sports'
p3247
sI3246
S'currentAffairs'
p3248
sI3247
S'currentAffairs'
p3249
sI3248
S'business'
p3250
sI3249
S'currentAffairs'
p3251
sI3250
S'arts'
p3252
sI3251
S'currentAffairs'
p3253
sI3252
S'science'
p3254
sI3253
S'currentAffairs'
p3255
sI3254
S'currentAffairs'
p3256
sI3255
S'business'
p3257
sI3256
S'business'
p3258
sI3257
S'currentAffairs'
p3259
sI3258
S'currentAffairs'
p3260
sI3259
S'currentAffairs'
p3261
sI3260
S'currentAffairs'
p3262
sI3261
S'sports'
p3263
sI3262
S'currentAffairs'
p3264
sI3263
S'business'
p3265
sI3264
S'sports'
p3266
sI3265
S'currentAffairs'
p3267
sI3266
S'business'
p3268
sI3267
S'currentAffairs'
p3269
sI3268
S'currentAffairs'
p3270
sI3269
S'currentAffairs'
p3271
sI3270
S'currentAffairs'
p3272
sI3271
S'business'
p3273
sI3272
S'currentAffairs'
p3274
sI3273
S'currentAffairs'
p3275
sI3274
S'business'
p3276
sI3275
S'currentAffairs'
p3277
sI3276
S'currentAffairs'
p3278
sI3277
S'sports'
p3279
sI3278
S'currentAffairs'
p3280
sI3279
S'currentAffairs'
p3281
sI3280
S'currentAffairs'
p3282
sI3281
S'currentAffairs'
p3283
sI3282
S'business'
p3284
sI3283
S'science'
p3285
sI3284
S'currentAffairs'
p3286
sI3285
S'science'
p3287
sI3286
S'currentAffairs'
p3288
sI3287
S'currentAffairs'
p3289
sI3288
S'currentAffairs'
p3290
sI3289
S'currentAffairs'
p3291
sI3290
S'business'
p3292
sI3291
S'currentAffairs'
p3293
sI3292
S'arts'
p3294
sI3293
S'currentAffairs'
p3295
sI3294
S'science'
p3296
sI3295
S'arts'
p3297
sI3296
S'arts'
p3298
sI3297
S'sports'
p3299
sI3298
S'currentAffairs'
p3300
sI3299
S'currentAffairs'
p3301
sI3300
S'currentAffairs'
p3302
sI3301
S'currentAffairs'
p3303
sI3302
S'currentAffairs'
p3304
sI3303
S'currentAffairs'
p3305
sI3304
S'currentAffairs'
p3306
sI3305
S'currentAffairs'
p3307
sI3306
S'currentAffairs'
p3308
sI3307
S'currentAffairs'
p3309
sI3308
S'currentAffairs'
p3310
sI3309
S'currentAffairs'
p3311
sI3310
S'business'
p3312
sI3311
S'science'
p3313
sI3312
S'currentAffairs'
p3314
sI3313
S'business'
p3315
sI3314
S'currentAffairs'
p3316
sI3315
S'science'
p3317
sI3316
S'currentAffairs'
p3318
sI3317
S'currentAffairs'
p3319
sI3318
S'currentAffairs'
p3320
sI3319
S'sports'
p3321
sI3320
S'currentAffairs'
p3322
sI3321
S'currentAffairs'
p3323
sI3322
S'currentAffairs'
p3324
sI3323
S'currentAffairs'
p3325
sI3324
S'currentAffairs'
p3326
sI3325
S'currentAffairs'
p3327
sI3326
S'currentAffairs'
p3328
sI3327
S'currentAffairs'
p3329
sI3328
S'business'
p3330
sI3329
S'business'
p3331
sI3330
S'sports'
p3332
sI3331
S'currentAffairs'
p3333
sI3332
S'currentAffairs'
p3334
sI3333
S'currentAffairs'
p3335
sI3334
S'currentAffairs'
p3336
sI3335
S'business'
p3337
sI3336
S'currentAffairs'
p3338
sI3337
S'currentAffairs'
p3339
sI3338
S'sports'
p3340
sI3339
S'arts'
p3341
sI3340
S'currentAffairs'
p3342
sI3341
S'business'
p3343
sI3342
S'science'
p3344
sI3343
S'currentAffairs'
p3345
sI3344
S'currentAffairs'
p3346
sI3345
S'sports'
p3347
sI3346
S'science'
p3348
sI3347
S'currentAffairs'
p3349
sI3348
S'currentAffairs'
p3350
sI3349
S'sports'
p3351
sI3350
S'currentAffairs'
p3352
sI3351
S'currentAffairs'
p3353
sI3352
S'currentAffairs'
p3354
sI3353
S'currentAffairs'
p3355
sI3354
S'currentAffairs'
p3356
sI3355
S'business'
p3357
sI3356
S'currentAffairs'
p3358
sI3357
S'currentAffairs'
p3359
sI3358
S'currentAffairs'
p3360
sI3359
S'currentAffairs'
p3361
sI3360
S'currentAffairs'
p3362
sI3361
S'currentAffairs'
p3363
sI3362
S'arts'
p3364
sI3363
S'arts'
p3365
sI3364
S'currentAffairs'
p3366
sI3365
S'arts'
p3367
sI3366
S'currentAffairs'
p3368
sI3367
S'arts'
p3369
sI3368
S'arts'
p3370
sI3369
S'arts'
p3371
sI3370
S'currentAffairs'
p3372
sI3371
S'science'
p3373
sI3372
S'arts'
p3374
sI3373
S'currentAffairs'
p3375
sI3374
S'currentAffairs'
p3376
sI3375
S'currentAffairs'
p3377
sI3376
S'arts'
p3378
sI3377
S'science'
p3379
sI3378
S'science'
p3380
sI3379
S'business'
p3381
sI3380
S'currentAffairs'
p3382
sI3381
S'currentAffairs'
p3383
sI3382
S'business'
p3384
sI3383
S'currentAffairs'
p3385
sI3384
S'currentAffairs'
p3386
sI3385
S'currentAffairs'
p3387
sI3386
S'science'
p3388
sI3387
S'arts'
p3389
sI3388
S'currentAffairs'
p3390
sI3389
S'arts'
p3391
sI3390
S'science'
p3392
sI3391
S'arts'
p3393
sI3392
S'currentAffairs'
p3394
sI3393
S'currentAffairs'
p3395
sI3394
S'science'
p3396
sI3395
S'business'
p3397
sI3396
S'currentAffairs'
p3398
sI3397
S'currentAffairs'
p3399
sI3398
S'science'
p3400
sI3399
S'currentAffairs'
p3401
sI3400
S'currentAffairs'
p3402
sI3401
S'arts'
p3403
sI3402
S'currentAffairs'
p3404
sI3403
S'sports'
p3405
sI3404
S'science'
p3406
sI3405
S'science'
p3407
sI3406
S'currentAffairs'
p3408
sI3407
S'currentAffairs'
p3409
sI3408
S'currentAffairs'
p3410
sI3409
S'arts'
p3411
sI3410
S'arts'
p3412
sI3411
S'arts'
p3413
sI3412
S'sports'
p3414
sI3413
S'arts'
p3415
sI3414
S'currentAffairs'
p3416
sI3415
S'currentAffairs'
p3417
sI3416
S'arts'
p3418
sI3417
S'currentAffairs'
p3419
sI3418
S'currentAffairs'
p3420
sI3419
S'arts'
p3421
sI3420
S'arts'
p3422
sI3421
S'sports'
p3423
sI3422
S'currentAffairs'
p3424
sI3423
S'arts'
p3425
sI3424
S'currentAffairs'
p3426
sI3425
S'currentAffairs'
p3427
sI3426
S'currentAffairs'
p3428
sI3427
S'currentAffairs'
p3429
sI3428
S'currentAffairs'
p3430
sI3429
S'currentAffairs'
p3431
sI3430
S'business'
p3432
sI3431
S'science'
p3433
sI3432
S'currentAffairs'
p3434
sI3433
S'currentAffairs'
p3435
sI3434
S'sports'
p3436
sI3435
S'sports'
p3437
sI3436
S'science'
p3438
sI3437
S'arts'
p3439
sI3438
S'business'
p3440
sI3439
S'business'
p3441
sI3440
S'currentAffairs'
p3442
sI3441
S'business'
p3443
sI3442
S'arts'
p3444
sI3443
S'science'
p3445
sI3444
S'arts'
p3446
sI3445
S'science'
p3447
sI3446
S'currentAffairs'
p3448
sI3447
S'arts'
p3449
sI3448
S'currentAffairs'
p3450
sI3449
S'currentAffairs'
p3451
sI3450
S'science'
p3452
sI3451
S'currentAffairs'
p3453
sI3452
S'currentAffairs'
p3454
sI3453
S'science'
p3455
sI3454
S'business'
p3456
sI3455
S'science'
p3457
sI3456
S'currentAffairs'
p3458
sI3457
S'arts'
p3459
sI3458
S'science'
p3460
sI3459
S'currentAffairs'
p3461
sI3460
S'science'
p3462
sI3461
S'science'
p3463
sI3462
S'currentAffairs'
p3464
sI3463
S'currentAffairs'
p3465
sI3464
S'currentAffairs'
p3466
sI3465
S'arts'
p3467
sI3466
S'science'
p3468
sI3467
S'science'
p3469
sI3468
S'currentAffairs'
p3470
sI3469
S'science'
p3471
sI3470
S'science'
p3472
sI3471
S'currentAffairs'
p3473
sI3472
S'arts'
p3474
sI3473
S'currentAffairs'
p3475
sI3474
S'arts'
p3476
sI3475
S'sports'
p3477
sI3476
S'currentAffairs'
p3478
sI3477
S'arts'
p3479
sI3478
S'arts'
p3480
sI3479
S'currentAffairs'
p3481
sI3480
S'arts'
p3482
sI3481
S'arts'
p3483
sI3482
S'arts'
p3484
sI3483
S'arts'
p3485
sI3484
S'business'
p3486
sI3485
S'currentAffairs'
p3487
sI3486
S'currentAffairs'
p3488
sI3487
S'science'
p3489
sI3488
S'sports'
p3490
sI3489
S'currentAffairs'
p3491
sI3490
S'arts'
p3492
sI3491
S'arts'
p3493
sI3492
S'sports'
p3494
sI3493
S'sports'
p3495
sI3494
S'sports'
p3496
sI3495
S'sports'
p3497
sI3496
S'sports'
p3498
sI3497
S'sports'
p3499
sI3498
S'sports'
p3500
sI3499
S'sports'
p3501
sI3500
S'currentAffairs'
p3502
sI3501
S'sports'
p3503
sI3502
S'sports'
p3504
sI3503
S'business'
p3505
sI3504
S'arts'
p3506
sI3505
S'business'
p3507
sI3506
S'arts'
p3508
sI3507
S'sports'
p3509
sI3508
S'currentAffairs'
p3510
sI3509
S'currentAffairs'
p3511
sI3510
S'science'
p3512
sI3511
S'currentAffairs'
p3513
sI3512
S'arts'
p3514
sI3513
S'currentAffairs'
p3515
sI3514
S'currentAffairs'
p3516
sI3515
S'science'
p3517
sI3516
S'sports'
p3518
sI3517
S'business'
p3519
sI3518
S'currentAffairs'
p3520
sI3519
S'business'
p3521
sI3520
S'business'
p3522
sI3521
S'currentAffairs'
p3523
sI3522
S'currentAffairs'
p3524
sI3523
S'currentAffairs'
p3525
sI3524
S'currentAffairs'
p3526
sI3525
S'currentAffairs'
p3527
sI3526
S'arts'
p3528
sI3527
S'arts'
p3529
sI3528
S'currentAffairs'
p3530
sI3529
S'science'
p3531
sI3530
S'currentAffairs'
p3532
sI3531
S'currentAffairs'
p3533
sI3532
S'currentAffairs'
p3534
sI3533
S'currentAffairs'
p3535
sI3534
S'currentAffairs'
p3536
sI3535
S'currentAffairs'
p3537
sI3536
S'currentAffairs'
p3538
sI3537
S'arts'
p3539
sI3538
S'science'
p3540
sI3539
S'currentAffairs'
p3541
sI3540
S'currentAffairs'
p3542
sI3541
S'arts'
p3543
sI3542
S'arts'
p3544
sI3543
S'science'
p3545
sI3544
S'currentAffairs'
p3546
sI3545
S'currentAffairs'
p3547
sI3546
S'sports'
p3548
sI3547
S'sports'
p3549
sI3548
S'currentAffairs'
p3550
sI3549
S'currentAffairs'
p3551
sI3550
S'business'
p3552
sI3551
S'business'
p3553
sI3552
S'currentAffairs'
p3554
sI3553
S'currentAffairs'
p3555
sI3554
S'science'
p3556
sI3555
S'currentAffairs'
p3557
sI3556
S'sports'
p3558
sI3557
S'currentAffairs'
p3559
sI3558
S'business'
p3560
sI3559
S'currentAffairs'
p3561
sI3560
S'currentAffairs'
p3562
sI3561
S'arts'
p3563
sI3562
S'currentAffairs'
p3564
sI3563
S'business'
p3565
sI3564
S'science'
p3566
sI3565
S'currentAffairs'
p3567
sI3566
S'sports'
p3568
sI3567
S'currentAffairs'
p3569
sI3568
S'currentAffairs'
p3570
sI3569
S'business'
p3571
sI3570
S'currentAffairs'
p3572
sI3571
S'currentAffairs'
p3573
sI3572
S'currentAffairs'
p3574
sI3573
S'business'
p3575
sI3574
S'currentAffairs'
p3576
sI3575
S'currentAffairs'
p3577
sI3576
S'currentAffairs'
p3578
sI3577
S'currentAffairs'
p3579
sI3578
S'currentAffairs'
p3580
sI3579
S'currentAffairs'
p3581
sI3580
S'currentAffairs'
p3582
sI3581
S'business'
p3583
sI3582
S'currentAffairs'
p3584
sI3583
S'currentAffairs'
p3585
sI3584
S'currentAffairs'
p3586
sI3585
S'currentAffairs'
p3587
sI3586
S'currentAffairs'
p3588
sI3587
S'currentAffairs'
p3589
sI3588
S'currentAffairs'
p3590
sI3589
S'business'
p3591
sI3590
S'currentAffairs'
p3592
sI3591
S'science'
p3593
sI3592
S'currentAffairs'
p3594
sI3593
S'currentAffairs'
p3595
sI3594
S'currentAffairs'
p3596
sI3595
S'sports'
p3597
sI3596
S'currentAffairs'
p3598
sI3597
S'sports'
p3599
sI3598
S'currentAffairs'
p3600
sI3599
S'currentAffairs'
p3601
sI3600
S'currentAffairs'
p3602
sI3601
S'currentAffairs'
p3603
sI3602
S'business'
p3604
sI3603
S'currentAffairs'
p3605
sI3604
S'science'
p3606
sI3605
S'business'
p3607
sI3606
S'currentAffairs'
p3608
sI3607
S'currentAffairs'
p3609
sI3608
S'currentAffairs'
p3610
sI3609
S'arts'
p3611
sI3610
S'business'
p3612
sI3611
S'currentAffairs'
p3613
sI3612
S'currentAffairs'
p3614
sI3613
S'currentAffairs'
p3615
sI3614
S'arts'
p3616
sI3615
S'currentAffairs'
p3617
sI3616
S'currentAffairs'
p3618
sI3617
S'arts'
p3619
sI3618
S'science'
p3620
sI3619
S'currentAffairs'
p3621
sI3620
S'currentAffairs'
p3622
sI3621
S'sports'
p3623
sI3622
S'science'
p3624
sI3623
S'arts'
p3625
sI3624
S'business'
p3626
sI3625
S'currentAffairs'
p3627
sI3626
S'currentAffairs'
p3628
sI3627
S'currentAffairs'
p3629
sI3628
S'currentAffairs'
p3630
sI3629
S'sports'
p3631
sI3630
S'currentAffairs'
p3632
sI3631
S'currentAffairs'
p3633
sI3632
S'currentAffairs'
p3634
sI3633
S'arts'
p3635
sI3634
S'business'
p3636
sI3635
S'currentAffairs'
p3637
sI3636
S'arts'
p3638
sI3637
S'arts'
p3639
sI3638
S'arts'
p3640
sI3639
S'science'
p3641
sI3640
S'arts'
p3642
sI3641
S'sports'
p3643
sI3642
S'currentAffairs'
p3644
sI3643
S'business'
p3645
sI3644
S'business'
p3646
sI3645
S'business'
p3647
sI3646
S'sports'
p3648
sI3647
S'currentAffairs'
p3649
sI3648
S'science'
p3650
sI3649
S'business'
p3651
sI3650
S'business'
p3652
sI3651
S'business'
p3653
sI3652
S'currentAffairs'
p3654
sI3653
S'currentAffairs'
p3655
sI3654
S'business'
p3656
sI3655
S'business'
p3657
sI3656
S'arts'
p3658
sI3657
S'currentAffairs'
p3659
sI3658
S'science'
p3660
sI3659
S'currentAffairs'
p3661
sI3660
S'arts'
p3662
sI3661
S'science'
p3663
sI3662
S'currentAffairs'
p3664
sI3663
S'currentAffairs'
p3665
sI3664
S'currentAffairs'
p3666
sI3665
S'currentAffairs'
p3667
sI3666
S'currentAffairs'
p3668
sI3667
S'currentAffairs'
p3669
sI3668
S'sports'
p3670
sI3669
S'currentAffairs'
p3671
sI3670
S'arts'
p3672
sI3671
S'currentAffairs'
p3673
sI3672
S'arts'
p3674
sI3673
S'arts'
p3675
sI3674
S'sports'
p3676
sI3675
S'currentAffairs'
p3677
sI3676
S'sports'
p3678
sI3677
S'currentAffairs'
p3679
sI3678
S'sports'
p3680
sI3679
S'currentAffairs'
p3681
sI3680
S'business'
p3682
sI3681
S'currentAffairs'
p3683
sI3682
S'currentAffairs'
p3684
sI3683
S'currentAffairs'
p3685
sI3684
S'science'
p3686
sI3685
S'currentAffairs'
p3687
sI3686
S'sports'
p3688
sI3687
S'business'
p3689
sI3688
S'currentAffairs'
p3690
sI3689
S'business'
p3691
sI3690
S'arts'
p3692
sI3691
S'currentAffairs'
p3693
sI3692
S'arts'
p3694
sI3693
S'currentAffairs'
p3695
sI3694
S'sports'
p3696
sI3695
S'currentAffairs'
p3697
sI3696
S'currentAffairs'
p3698
sI3697
S'sports'
p3699
sI3698
S'currentAffairs'
p3700
sI3699
S'currentAffairs'
p3701
sI3700
S'business'
p3702
sI3701
S'business'
p3703
sI3702
S'currentAffairs'
p3704
sI3703
S'currentAffairs'
p3705
sI3704
S'currentAffairs'
p3706
sI3705
S'currentAffairs'
p3707
sI3706
S'arts'
p3708
sI3707
S'currentAffairs'
p3709
sI3708
S'arts'
p3710
sI3709
S'arts'
p3711
sI3710
S'currentAffairs'
p3712
sI3711
S'business'
p3713
sI3712
S'currentAffairs'
p3714
sI3713
S'currentAffairs'
p3715
sI3714
S'business'
p3716
sI3715
S'arts'
p3717
sI3716
S'currentAffairs'
p3718
sI3717
S'arts'
p3719
sI3718
S'business'
p3720
sI3719
S'currentAffairs'
p3721
sI3720
S'arts'
p3722
sI3721
S'currentAffairs'
p3723
sI3722
S'arts'
p3724
sI3723
S'business'
p3725
sI3724
S'currentAffairs'
p3726
sI3725
S'arts'
p3727
sI3726
S'sports'
p3728
sI3727
S'arts'
p3729
sI3728
S'business'
p3730
sI3729
S'sports'
p3731
sI3730
S'business'
p3732
sI3731
S'currentAffairs'
p3733
sI3732
S'sports'
p3734
sI3733
S'currentAffairs'
p3735
sI3734
S'currentAffairs'
p3736
sI3735
S'science'
p3737
sI3736
S'currentAffairs'
p3738
sI3737
S'science'
p3739
sI3738
S'sports'
p3740
sI3739
S'currentAffairs'
p3741
sI3740
S'currentAffairs'
p3742
sI3741
S'currentAffairs'
p3743
sI3742
S'currentAffairs'
p3744
sI3743
S'business'
p3745
sI3744
S'currentAffairs'
p3746
sI3745
S'science'
p3747
sI3746
S'arts'
p3748
sI3747
S'currentAffairs'
p3749
sI3748
S'currentAffairs'
p3750
sI3749
S'currentAffairs'
p3751
sI3750
S'sports'
p3752
sI3751
S'sports'
p3753
sI3752
S'sports'
p3754
sI3753
S'sports'
p3755
sI3754
S'sports'
p3756
sI3755
S'sports'
p3757
sI3756
S'sports'
p3758
sI3757
S'sports'
p3759
sI3758
S'sports'
p3760
sI3759
S'sports'
p3761
sI3760
S'currentAffairs'
p3762
sI3761
S'sports'
p3763
sI3762
S'sports'
p3764
sI3763
S'sports'
p3765
sI3764
S'sports'
p3766
sI3765
S'sports'
p3767
sI3766
S'sports'
p3768
sI3767
S'sports'
p3769
sI3768
S'sports'
p3770
sI3769
S'sports'
p3771
sI3770
S'sports'
p3772
sI3771
S'sports'
p3773
sI3772
S'sports'
p3774
sI3773
S'sports'
p3775
sI3774
S'currentAffairs'
p3776
sI3775
S'sports'
p3777
sI3776
S'sports'
p3778
sI3777
S'sports'
p3779
sI3778
S'sports'
p3780
sI3779
S'currentAffairs'
p3781
sI3780
S'currentAffairs'
p3782
sI3781
S'arts'
p3783
sI3782
S'currentAffairs'
p3784
sI3783
S'currentAffairs'
p3785
sI3784
S'currentAffairs'
p3786
sI3785
S'currentAffairs'
p3787
sI3786
S'science'
p3788
sI3787
S'currentAffairs'
p3789
sI3788
S'currentAffairs'
p3790
sI3789
S'sports'
p3791
sI3790
S'science'
p3792
sI3791
S'sports'
p3793
sI3792
S'sports'
p3794
sI3793
S'currentAffairs'
p3795
sI3794
S'currentAffairs'
p3796
sI3795
S'sports'
p3797
sI3796
S'currentAffairs'
p3798
sI3797
S'currentAffairs'
p3799
sI3798
S'sports'
p3800
sI3799
S'science'
p3801
sI3800
S'currentAffairs'
p3802
sI3801
S'currentAffairs'
p3803
sI3802
S'arts'
p3804
sI3803
S'sports'
p3805
sI3804
S'arts'
p3806
sI3805
S'arts'
p3807
sI3806
S'currentAffairs'
p3808
sI3807
S'currentAffairs'
p3809
sI3808
S'business'
p3810
sI3809
S'currentAffairs'
p3811
sI3810
S'currentAffairs'
p3812
sI3811
S'currentAffairs'
p3813
sI3812
S'sports'
p3814
sI3813
S'sports'
p3815
sI3814
S'arts'
p3816
sI3815
S'business'
p3817
sI3816
S'currentAffairs'
p3818
sI3817
S'business'
p3819
sI3818
S'sports'
p3820
sI3819
S'currentAffairs'
p3821
sI3820
S'business'
p3822
sI3821
S'sports'
p3823
sI3822
S'currentAffairs'
p3824
sI3823
S'currentAffairs'
p3825
sI3824
S'arts'
p3826
sI3825
S'currentAffairs'
p3827
sI3826
S'arts'
p3828
sI3827
S'currentAffairs'
p3829
sI3828
S'currentAffairs'
p3830
sI3829
S'currentAffairs'
p3831
sI3830
S'sports'
p3832
sI3831
S'business'
p3833
sI3832
S'currentAffairs'
p3834
sI3833
S'currentAffairs'
p3835
sI3834
S'currentAffairs'
p3836
sI3835
S'currentAffairs'
p3837
sI3836
S'currentAffairs'
p3838
sI3837
S'currentAffairs'
p3839
sI3838
S'currentAffairs'
p3840
sI3839
S'sports'
p3841
sI3840
S'currentAffairs'
p3842
sI3841
S'sports'
p3843
sI3842
S'currentAffairs'
p3844
sI3843
S'science'
p3845
sI3844
S'science'
p3846
sI3845
S'currentAffairs'
p3847
sI3846
S'arts'
p3848
sI3847
S'currentAffairs'
p3849
sI3848
S'currentAffairs'
p3850
sI3849
S'currentAffairs'
p3851
sI3850
S'currentAffairs'
p3852
sI3851
S'currentAffairs'
p3853
sI3852
S'currentAffairs'
p3854
sI3853
S'currentAffairs'
p3855
sI3854
S'currentAffairs'
p3856
sI3855
S'currentAffairs'
p3857
sI3856
S'currentAffairs'
p3858
sI3857
S'currentAffairs'
p3859
sI3858
S'currentAffairs'
p3860
sI3859
S'sports'
p3861
sI3860
S'currentAffairs'
p3862
sI3861
S'science'
p3863
sI3862
S'currentAffairs'
p3864
sI3863
S'currentAffairs'
p3865
sI3864
S'sports'
p3866
sI3865
S'currentAffairs'
p3867
sI3866
S'currentAffairs'
p3868
sI3867
S'currentAffairs'
p3869
sI3868
S'currentAffairs'
p3870
sI3869
S'currentAffairs'
p3871
sI3870
S'currentAffairs'
p3872
sI3871
S'currentAffairs'
p3873
sI3872
S'sports'
p3874
sI3873
S'sports'
p3875
sI3874
S'sports'
p3876
sI3875
S'currentAffairs'
p3877
sI3876
S'currentAffairs'
p3878
sI3877
S'arts'
p3879
sI3878
S'arts'
p3880
sI3879
S'currentAffairs'
p3881
sI3880
S'currentAffairs'
p3882
sI3881
S'currentAffairs'
p3883
sI3882
S'currentAffairs'
p3884
sI3883
S'currentAffairs'
p3885
sI3884
S'currentAffairs'
p3886
sI3885
S'currentAffairs'
p3887
sI3886
S'business'
p3888
sI3887
S'currentAffairs'
p3889
sI3888
S'currentAffairs'
p3890
sI3889
S'business'
p3891
sI3890
S'currentAffairs'
p3892
sI3891
S'sports'
p3893
sI3892
S'business'
p3894
sI3893
S'science'
p3895
sI3894
S'arts'
p3896
sI3895
S'business'
p3897
sI3896
S'currentAffairs'
p3898
sI3897
S'currentAffairs'
p3899
sI3898
S'currentAffairs'
p3900
sI3899
S'arts'
p3901
sI3900
S'currentAffairs'
p3902
sI3901
S'business'
p3903
sI3902
S'sports'
p3904
sI3903
S'currentAffairs'
p3905
sI3904
S'business'
p3906
sI3905
S'sports'
p3907
sI3906
S'arts'
p3908
sI3907
S'sports'
p3909
sI3908
S'science'
p3910
sI3909
S'arts'
p3911
sI3910
S'currentAffairs'
p3912
sI3911
S'business'
p3913
sI3912
S'currentAffairs'
p3914
sI3913
S'currentAffairs'
p3915
sI3914
S'currentAffairs'
p3916
sI3915
S'currentAffairs'
p3917
sI3916
S'business'
p3918
sI3917
S'currentAffairs'
p3919
sI3918
S'currentAffairs'
p3920
sI3919
S'currentAffairs'
p3921
sI3920
S'currentAffairs'
p3922
sI3921
S'currentAffairs'
p3923
sI3922
S'business'
p3924
sI3923
S'business'
p3925
sI3924
S'arts'
p3926
sI3925
S'sports'
p3927
sI3926
S'science'
p3928
sI3927
S'currentAffairs'
p3929
sI3928
S'science'
p3930
sI3929
S'currentAffairs'
p3931
sI3930
S'arts'
p3932
sI3931
S'currentAffairs'
p3933
sI3932
S'currentAffairs'
p3934
sI3933
S'currentAffairs'
p3935
sI3934
S'currentAffairs'
p3936
sI3935
S'business'
p3937
sI3936
S'sports'
p3938
sI3937
S'currentAffairs'
p3939
sI3938
S'currentAffairs'
p3940
sI3939
S'currentAffairs'
p3941
sI3940
S'sports'
p3942
sI3941
S'currentAffairs'
p3943
sI3942
S'business'
p3944
sI3943
S'business'
p3945
sI3944
S'currentAffairs'
p3946
sI3945
S'sports'
p3947
sI3946
S'currentAffairs'
p3948
sI3947
S'currentAffairs'
p3949
sI3948
S'currentAffairs'
p3950
sI3949
S'arts'
p3951
sI3950
S'business'
p3952
sI3951
S'science'
p3953
sI3952
S'science'
p3954
sI3953
S'currentAffairs'
p3955
sI3954
S'arts'
p3956
sI3955
S'science'
p3957
sI3956
S'currentAffairs'
p3958
sI3957
S'science'
p3959
sI3958
S'business'
p3960
sI3959
S'currentAffairs'
p3961
sI3960
S'arts'
p3962
sI3961
S'currentAffairs'
p3963
sI3962
S'business'
p3964
sI3963
S'sports'
p3965
sI3964
S'sports'
p3966
sI3965
S'currentAffairs'
p3967
sI3966
S'business'
p3968
sI3967
S'arts'
p3969
sI3968
S'science'
p3970
sI3969
S'currentAffairs'
p3971
sI3970
S'currentAffairs'
p3972
sI3971
S'business'
p3973
sI3972
S'currentAffairs'
p3974
sI3973
S'business'
p3975
sI3974
S'currentAffairs'
p3976
sI3975
S'business'
p3977
sI3976
S'arts'
p3978
sI3977
S'arts'
p3979
sI3978
S'currentAffairs'
p3980
sI3979
S'currentAffairs'
p3981
sI3980
S'currentAffairs'
p3982
sI3981
S'currentAffairs'
p3983
sI3982
S'business'
p3984
sI3983
S'science'
p3985
sI3984
S'currentAffairs'
p3986
sI3985
S'science'
p3987
sI3986
S'arts'
p3988
sI3987
S'science'
p3989
sI3988
S'business'
p3990
sI3989
S'currentAffairs'
p3991
sI3990
S'business'
p3992
sI3991
S'arts'
p3993
sI3992
S'business'
p3994
sI3993
S'arts'
p3995
sI3994
S'arts'
p3996
sI3995
S'currentAffairs'
p3997
sI3996
S'business'
p3998
sI3997
S'currentAffairs'
p3999
sI3998
S'currentAffairs'
p4000
sI3999
S'currentAffairs'
p4001
sI4000
S'currentAffairs'
p4002
sI4001
S'arts'
p4003
sI4002
S'currentAffairs'
p4004
sI4003
S'business'
p4005
sI4004
S'business'
p4006
sI4005
S'business'
p4007
sI4006
S'business'
p4008
sI4007
S'science'
p4009
sI4008
S'currentAffairs'
p4010
sI4009
S'business'
p4011
sI4010
S'business'
p4012
sI4011
S'business'
p4013
sI4012
S'business'
p4014
sI4013
S'currentAffairs'
p4015
sI4014
S'currentAffairs'
p4016
sI4015
S'business'
p4017
sI4016
S'business'
p4018
sI4017
S'business'
p4019
sI4018
S'sports'
p4020
sI4019
S'business'
p4021
sI4020
S'sports'
p4022
sI4021
S'business'
p4023
sI4022
S'sports'
p4024
sI4023
S'sports'
p4025
sI4024
S'business'
p4026
sI4025
S'currentAffairs'
p4027
sI4026
S'business'
p4028
sI4027
S'business'
p4029
sI4028
S'business'
p4030
sI4029
S'business'
p4031
sI4030
S'business'
p4032
sI4031
S'business'
p4033
sI4032
S'business'
p4034
sI4033
S'business'
p4035
sI4034
S'business'
p4036
sI4035
S'business'
p4037
sI4036
S'currentAffairs'
p4038
sI4037
S'business'
p4039
sI4038
S'currentAffairs'
p4040
sI4039
S'currentAffairs'
p4041
sI4040
S'arts'
p4042
sI4041
S'currentAffairs'
p4043
sI4042
S'sports'
p4044
sI4043
S'sports'
p4045
sI4044
S'science'
p4046
sI4045
S'currentAffairs'
p4047
sI4046
S'currentAffairs'
p4048
sI4047
S'currentAffairs'
p4049
sI4048
S'business'
p4050
sI4049
S'arts'
p4051
sI4050
S'arts'
p4052
sI4051
S'currentAffairs'
p4053
sI4052
S'currentAffairs'
p4054
sI4053
S'arts'
p4055
sI4054
S'science'
p4056
sI4055
S'arts'
p4057
sI4056
S'currentAffairs'
p4058
sI4057
S'currentAffairs'
p4059
sI4058
S'sports'
p4060
sI4059
S'currentAffairs'
p4061
sI4060
S'business'
p4062
sI4061
S'currentAffairs'
p4063
sI4062
S'currentAffairs'
p4064
sI4063
S'arts'
p4065
sI4064
S'business'
p4066
sI4065
S'business'
p4067
sI4066
S'currentAffairs'
p4068
sI4067
S'currentAffairs'
p4069
sI4068
S'currentAffairs'
p4070
sI4069
S'sports'
p4071
sI4070
S'currentAffairs'
p4072
sI4071
S'currentAffairs'
p4073
sI4072
S'currentAffairs'
p4074
sI4073
S'currentAffairs'
p4075
sI4074
S'currentAffairs'
p4076
sI4075
S'business'
p4077
sI4076
S'business'
p4078
sI4077
S'arts'
p4079
sI4078
S'business'
p4080
sI4079
S'currentAffairs'
p4081
sI4080
S'currentAffairs'
p4082
sI4081
S'currentAffairs'
p4083
sI4082
S'business'
p4084
sI4083
S'business'
p4085
sI4084
S'business'
p4086
sI4085
S'currentAffairs'
p4087
sI4086
S'currentAffairs'
p4088
sI4087
S'currentAffairs'
p4089
sI4088
S'currentAffairs'
p4090
sI4089
S'business'
p4091
sI4090
S'sports'
p4092
sI4091
S'currentAffairs'
p4093
sI4092
S'currentAffairs'
p4094
sI4093
S'currentAffairs'
p4095
sI4094
S'arts'
p4096
sI4095
S'sports'
p4097
sI4096
S'sports'
p4098
sI4097
S'sports'
p4099
sI4098
S'sports'
p4100
sI4099
S'sports'
p4101
sI4100
S'sports'
p4102
sI4101
S'arts'
p4103
sI4102
S'currentAffairs'
p4104
sI4103
S'currentAffairs'
p4105
sI4104
S'sports'
p4106
sI4105
S'arts'
p4107
sI4106
S'business'
p4108
sI4107
S'currentAffairs'
p4109
sI4108
S'arts'
p4110
sI4109
S'business'
p4111
sI4110
S'currentAffairs'
p4112
sI4111
S'currentAffairs'
p4113
sI4112
S'currentAffairs'
p4114
sI4113
S'currentAffairs'
p4115
sI4114
S'currentAffairs'
p4116
sI4115
S'currentAffairs'
p4117
sI4116
S'currentAffairs'
p4118
sI4117
S'currentAffairs'
p4119
sI4118
S'business'
p4120
sI4119
S'sports'
p4121
sI4120
S'arts'
p4122
sI4121
S'currentAffairs'
p4123
sI4122
S'currentAffairs'
p4124
sI4123
S'business'
p4125
sI4124
S'science'
p4126
sI4125
S'arts'
p4127
sI4126
S'sports'
p4128
sI4127
S'business'
p4129
sI4128
S'arts'
p4130
sI4129
S'currentAffairs'
p4131
sI4130
S'currentAffairs'
p4132
sI4131
S'arts'
p4133
sI4132
S'science'
p4134
sI4133
S'science'
p4135
sI4134
S'currentAffairs'
p4136
sI4135
S'business'
p4137
sI4136
S'currentAffairs'
p4138
sI4137
S'business'
p4139
sI4138
S'currentAffairs'
p4140
sI4139
S'business'
p4141
sI4140
S'science'
p4142
sI4141
S'currentAffairs'
p4143
sI4142
S'currentAffairs'
p4144
sI4143
S'arts'
p4145
sI4144
S'science'
p4146
sI4145
S'science'
p4147
sI4146
S'business'
p4148
sI4147
S'arts'
p4149
sI4148
S'science'
p4150
sI4149
S'sports'
p4151
sI4150
S'sports'
p4152
sI4151
S'sports'
p4153
sI4152
S'sports'
p4154
sI4153
S'sports'
p4155
sI4154
S'sports'
p4156
sI4155
S'sports'
p4157
sI4156
S'sports'
p4158
sI4157
S'sports'
p4159
sI4158
S'sports'
p4160
sI4159
S'sports'
p4161
sI4160
S'sports'
p4162
sI4161
S'sports'
p4163
sI4162
S'currentAffairs'
p4164
sI4163
S'sports'
p4165
sI4164
S'sports'
p4166
sI4165
S'sports'
p4167
sI4166
S'sports'
p4168
sI4167
S'sports'
p4169
sI4168
S'currentAffairs'
p4170
sI4169
S'sports'
p4171
sI4170
S'sports'
p4172
sI4171
S'sports'
p4173
sI4172
S'sports'
p4174
sI4173
S'sports'
p4175
sI4174
S'sports'
p4176
sI4175
S'sports'
p4177
sI4176
S'currentAffairs'
p4178
sI4177
S'currentAffairs'
p4179
sI4178
S'currentAffairs'
p4180
sI4179
S'currentAffairs'
p4181
sI4180
S'science'
p4182
sI4181
S'sports'
p4183
sI4182
S'science'
p4184
sI4183
S'currentAffairs'
p4185
sI4184
S'currentAffairs'
p4186
sI4185
S'currentAffairs'
p4187
sI4186
S'currentAffairs'
p4188
sI4187
S'currentAffairs'
p4189
sI4188
S'currentAffairs'
p4190
sI4189
S'arts'
p4191
sI4190
S'arts'
p4192
sI4191
S'business'
p4193
sI4192
S'currentAffairs'
p4194
sI4193
S'currentAffairs'
p4195
sI4194
S'business'
p4196
sI4195
S'sports'
p4197
sI4196
S'currentAffairs'
p4198
sI4197
S'currentAffairs'
p4199
sI4198
S'currentAffairs'
p4200
sI4199
S'currentAffairs'
p4201
sI4200
S'currentAffairs'
p4202
sI4201
S'sports'
p4203
sI4202
S'currentAffairs'
p4204
sI4203
S'currentAffairs'
p4205
sI4204
S'currentAffairs'
p4206
sI4205
S'currentAffairs'
p4207
sI4206
S'currentAffairs'
p4208
sI4207
S'business'
p4209
sI4208
S'currentAffairs'
p4210
sI4209
S'business'
p4211
sI4210
S'currentAffairs'
p4212
sI4211
S'arts'
p4213
sI4212
S'currentAffairs'
p4214
sI4213
S'currentAffairs'
p4215
sI4214
S'currentAffairs'
p4216
sI4215
S'currentAffairs'
p4217
sI4216
S'currentAffairs'
p4218
sI4217
S'business'
p4219
sI4218
S'business'
p4220
sI4219
S'currentAffairs'
p4221
sI4220
S'arts'
p4222
sI4221
S'arts'
p4223
sI4222
S'currentAffairs'
p4224
sI4223
S'sports'
p4225
sI4224
S'science'
p4226
sI4225
S'business'
p4227
sI4226
S'science'
p4228
sI4227
S'currentAffairs'
p4229
sI4228
S'currentAffairs'
p4230
sI4229
S'sports'
p4231
sI4230
S'currentAffairs'
p4232
sI4231
S'business'
p4233
sI4232
S'science'
p4234
sI4233
S'currentAffairs'
p4235
sI4234
S'currentAffairs'
p4236
sI4235
S'business'
p4237
sI4236
S'currentAffairs'
p4238
sI4237
S'currentAffairs'
p4239
sI4238
S'currentAffairs'
p4240
sI4239
S'business'
p4241
sI4240
S'business'
p4242
sI4241
S'business'
p4243
sI4242
S'currentAffairs'
p4244
sI4243
S'sports'
p4245
sI4244
S'sports'
p4246
sI4245
S'sports'
p4247
sI4246
S'currentAffairs'
p4248
sI4247
S'currentAffairs'
p4249
sI4248
S'currentAffairs'
p4250
sI4249
S'currentAffairs'
p4251
sI4250
S'currentAffairs'
p4252
sI4251
S'currentAffairs'
p4253
sI4252
S'sports'
p4254
sI4253
S'science'
p4255
sI4254
S'currentAffairs'
p4256
sI4255
S'arts'
p4257
sI4256
S'sports'
p4258
sI4257
S'currentAffairs'
p4259
sI4258
S'science'
p4260
sI4259
S'science'
p4261
sI4260
S'arts'
p4262
sI4261
S'currentAffairs'
p4263
sI4262
S'business'
p4264
sI4263
S'currentAffairs'
p4265
sI4264
S'sports'
p4266
sI4265
S'business'
p4267
sI4266
S'business'
p4268
sI4267
S'currentAffairs'
p4269
sI4268
S'business'
p4270
sI4269
S'science'
p4271
sI4270
S'currentAffairs'
p4272
sI4271
S'currentAffairs'
p4273
sI4272
S'currentAffairs'
p4274
sI4273
S'business'
p4275
sI4274
S'currentAffairs'
p4276
sI4275
S'business'
p4277
sI4276
S'business'
p4278
sI4277
S'currentAffairs'
p4279
sI4278
S'business'
p4280
sI4279
S'currentAffairs'
p4281
sI4280
S'currentAffairs'
p4282
sI4281
S'sports'
p4283
sI4282
S'science'
p4284
sI4283
S'currentAffairs'
p4285
sI4284
S'science'
p4286
sI4285
S'currentAffairs'
p4287
sI4286
S'arts'
p4288
sI4287
S'science'
p4289
sI4288
S'currentAffairs'
p4290
sI4289
S'business'
p4291
sI4290
S'arts'
p4292
sI4291
S'arts'
p4293
sI4292
S'currentAffairs'
p4294
sI4293
S'business'
p4295
sI4294
S'currentAffairs'
p4296
sI4295
S'currentAffairs'
p4297
sI4296
S'currentAffairs'
p4298
sI4297
S'arts'
p4299
sI4298
S'arts'
p4300
sI4299
S'business'
p4301
sI4300
S'business'
p4302
sI4301
S'sports'
p4303
sI4302
S'currentAffairs'
p4304
sI4303
S'business'
p4305
sI4304
S'currentAffairs'
p4306
sI4305
S'currentAffairs'
p4307
sI4306
S'currentAffairs'
p4308
sI4307
S'sports'
p4309
sI4308
S'currentAffairs'
p4310
sI4309
S'currentAffairs'
p4311
sI4310
S'currentAffairs'
p4312
sI4311
S'currentAffairs'
p4313
sI4312
S'currentAffairs'
p4314
sI4313
S'currentAffairs'
p4315
sI4314
S'arts'
p4316
sI4315
S'currentAffairs'
p4317
sI4316
S'currentAffairs'
p4318
sI4317
S'currentAffairs'
p4319
sI4318
S'currentAffairs'
p4320
sI4319
S'currentAffairs'
p4321
sI4320
S'arts'
p4322
sI4321
S'currentAffairs'
p4323
sI4322
S'business'
p4324
sI4323
S'arts'
p4325
sI4324
S'arts'
p4326
sI4325
S'arts'
p4327
sI4326
S'business'
p4328
sI4327
S'arts'
p4329
sI4328
S'science'
p4330
sI4329
S'currentAffairs'
p4331
sI4330
S'currentAffairs'
p4332
sI4331
S'science'
p4333
sI4332
S'science'
p4334
sI4333
S'currentAffairs'
p4335
sI4334
S'currentAffairs'
p4336
sI4335
S'currentAffairs'
p4337
sI4336
S'currentAffairs'
p4338
sI4337
S'science'
p4339
sI4338
S'currentAffairs'
p4340
sI4339
S'arts'
p4341
sI4340
S'currentAffairs'
p4342
sI4341
S'currentAffairs'
p4343
sI4342
S'currentAffairs'
p4344
sI4343
S'currentAffairs'
p4345
sI4344
S'currentAffairs'
p4346
sI4345
S'business'
p4347
sI4346
S'science'
p4348
sI4347
S'sports'
p4349
sI4348
S'business'
p4350
sI4349
S'currentAffairs'
p4351
sI4350
S'currentAffairs'
p4352
sI4351
S'currentAffairs'
p4353
sI4352
S'business'
p4354
sI4353
S'currentAffairs'
p4355
sI4354
S'currentAffairs'
p4356
sI4355
S'arts'
p4357
sI4356
S'sports'
p4358
sI4357
S'currentAffairs'
p4359
sI4358
S'business'
p4360
sI4359
S'currentAffairs'
p4361
sI4360
S'arts'
p4362
sI4361
S'arts'
p4363
sI4362
S'currentAffairs'
p4364
sI4363
S'arts'
p4365
sI4364
S'business'
p4366
sI4365
S'currentAffairs'
p4367
sI4366
S'currentAffairs'
p4368
sI4367
S'currentAffairs'
p4369
sI4368
S'science'
p4370
sI4369
S'currentAffairs'
p4371
sI4370
S'business'
p4372
sI4371
S'business'
p4373
sI4372
S'business'
p4374
sI4373
S'currentAffairs'
p4375
sI4374
S'arts'
p4376
sI4375
S'currentAffairs'
p4377
sI4376
S'currentAffairs'
p4378
sI4377
S'business'
p4379
sI4378
S'currentAffairs'
p4380
sI4379
S'business'
p4381
sI4380
S'business'
p4382
sI4381
S'business'
p4383
sI4382
S'currentAffairs'
p4384
sI4383
S'currentAffairs'
p4385
sI4384
S'science'
p4386
sI4385
S'currentAffairs'
p4387
sI4386
S'currentAffairs'
p4388
sI4387
S'business'
p4389
sI4388
S'currentAffairs'
p4390
sI4389
S'currentAffairs'
p4391
sI4390
S'arts'
p4392
sI4391
S'currentAffairs'
p4393
sI4392
S'arts'
p4394
sI4393
S'currentAffairs'
p4395
sI4394
S'science'
p4396
sI4395
S'currentAffairs'
p4397
sI4396
S'currentAffairs'
p4398
sI4397
S'currentAffairs'
p4399
sI4398
S'science'
p4400
sI4399
S'currentAffairs'
p4401
sI4400
S'currentAffairs'
p4402
sI4401
S'currentAffairs'
p4403
sI4402
S'arts'
p4404
sI4403
S'currentAffairs'
p4405
sI4404
S'currentAffairs'
p4406
sI4405
S'currentAffairs'
p4407
sI4406
S'sports'
p4408
sI4407
S'currentAffairs'
p4409
sI4408
S'arts'
p4410
sI4409
S'arts'
p4411
sI4410
S'sports'
p4412
sI4411
S'currentAffairs'
p4413
sI4412
S'currentAffairs'
p4414
sI4413
S'currentAffairs'
p4415
sI4414
S'science'
p4416
sI4415
S'currentAffairs'
p4417
sI4416
S'currentAffairs'
p4418
sI4417
S'currentAffairs'
p4419
sI4418
S'currentAffairs'
p4420
sI4419
S'currentAffairs'
p4421
sI4420
S'sports'
p4422
sI4421
S'currentAffairs'
p4423
sI4422
S'science'
p4424
sI4423
S'science'
p4425
sI4424
S'currentAffairs'
p4426
sI4425
S'currentAffairs'
p4427
sI4426
S'currentAffairs'
p4428
sI4427
S'currentAffairs'
p4429
sI4428
S'arts'
p4430
sI4429
S'business'
p4431
sI4430
S'currentAffairs'
p4432
sI4431
S'currentAffairs'
p4433
sI4432
S'currentAffairs'
p4434
sI4433
S'currentAffairs'
p4435
sI4434
S'currentAffairs'
p4436
sI4435
S'currentAffairs'
p4437
sI4436
S'currentAffairs'
p4438
sI4437
S'currentAffairs'
p4439
sI4438
S'sports'
p4440
sI4439
S'arts'
p4441
sI4440
S'arts'
p4442
sI4441
S'currentAffairs'
p4443
sI4442
S'currentAffairs'
p4444
sI4443
S'currentAffairs'
p4445
sI4444
S'currentAffairs'
p4446
sI4445
S'currentAffairs'
p4447
sI4446
S'currentAffairs'
p4448
sI4447
S'currentAffairs'
p4449
sI4448
S'currentAffairs'
p4450
sI4449
S'currentAffairs'
p4451
sI4450
S'currentAffairs'
p4452
sI4451
S'science'
p4453
sI4452
S'currentAffairs'
p4454
sI4453
S'currentAffairs'
p4455
sI4454
S'currentAffairs'
p4456
sI4455
S'business'
p4457
sI4456
S'currentAffairs'
p4458
sI4457
S'science'
p4459
sI4458
S'currentAffairs'
p4460
sI4459
S'arts'
p4461
sI4460
S'currentAffairs'
p4462
sI4461
S'currentAffairs'
p4463
sI4462
S'currentAffairs'
p4464
sI4463
S'currentAffairs'
p4465
sI4464
S'arts'
p4466
sI4465
S'business'
p4467
sI4466
S'currentAffairs'
p4468
sI4467
S'currentAffairs'
p4469
sI4468
S'science'
p4470
sI4469
S'currentAffairs'
p4471
sI4470
S'business'
p4472
sI4471
S'science'
p4473
sI4472
S'sports'
p4474
sI4473
S'currentAffairs'
p4475
sI4474
S'currentAffairs'
p4476
sI4475
S'arts'
p4477
sI4476
S'science'
p4478
sI4477
S'currentAffairs'
p4479
sI4478
S'currentAffairs'
p4480
sI4479
S'science'
p4481
sI4480
S'science'
p4482
sI4481
S'currentAffairs'
p4483
sI4482
S'science'
p4484
sI4483
S'currentAffairs'
p4485
sI4484
S'sports'
p4486
sI4485
S'sports'
p4487
sI4486
S'science'
p4488
sI4487
S'currentAffairs'
p4489
sI4488
S'arts'
p4490
sI4489
S'business'
p4491
sI4490
S'arts'
p4492
sI4491
S'arts'
p4493
sI4492
S'currentAffairs'
p4494
sI4493
S'arts'
p4495
sI4494
S'currentAffairs'
p4496
sI4495
S'sports'
p4497
sI4496
S'arts'
p4498
sI4497
S'sports'
p4499
sI4498
S'sports'
p4500
sI4499
S'sports'
p4501
sI4500
S'sports'
p4502
sI4501
S'sports'
p4503
sI4502
S'sports'
p4504
sI4503
S'sports'
p4505
sI4504
S'business'
p4506
sI4505
S'business'
p4507
sI4506
S'business'
p4508
sI4507
S'currentAffairs'
p4509
sI4508
S'science'
p4510
sI4509
S'sports'
p4511
sI4510
S'currentAffairs'
p4512
sI4511
S'business'
p4513
sI4512
S'currentAffairs'
p4514
sI4513
S'currentAffairs'
p4515
sI4514
S'business'
p4516
sI4515
S'currentAffairs'
p4517
sI4516
S'currentAffairs'
p4518
sI4517
S'currentAffairs'
p4519
sI4518
S'currentAffairs'
p4520
sI4519
S'sports'
p4521
sI4520
S'arts'
p4522
sI4521
S'currentAffairs'
p4523
sI4522
S'business'
p4524
sI4523
S'business'
p4525
sI4524
S'currentAffairs'
p4526
sI4525
S'currentAffairs'
p4527
sI4526
S'business'
p4528
sI4527
S'sports'
p4529
sI4528
S'sports'
p4530
sI4529
S'business'
p4531
sI4530
S'currentAffairs'
p4532
sI4531
S'business'
p4533
sI4532
S'science'
p4534
sI4533
S'arts'
p4535
sI4534
S'currentAffairs'
p4536
sI4535
S'arts'
p4537
sI4536
S'arts'
p4538
sI4537
S'business'
p4539
sI4538
S'currentAffairs'
p4540
sI4539
S'arts'
p4541
sI4540
S'sports'
p4542
sI4541
S'currentAffairs'
p4543
sI4542
S'arts'
p4544
sI4543
S'business'
p4545
sI4544
S'science'
p4546
sI4545
S'science'
p4547
sI4546
S'currentAffairs'
p4548
sI4547
S'currentAffairs'
p4549
sI4548
S'currentAffairs'
p4550
sI4549
S'currentAffairs'
p4551
sI4550
S'currentAffairs'
p4552
sI4551
S'currentAffairs'
p4553
sI4552
S'arts'
p4554
sI4553
S'currentAffairs'
p4555
sI4554
S'currentAffairs'
p4556
sI4555
S'currentAffairs'
p4557
sI4556
S'arts'
p4558
sI4557
S'business'
p4559
sI4558
S'currentAffairs'
p4560
sI4559
S'currentAffairs'
p4561
sI4560
S'business'
p4562
sI4561
S'science'
p4563
sI4562
S'arts'
p4564
sI4563
S'business'
p4565
sI4564
S'currentAffairs'
p4566
sI4565
S'arts'
p4567
sI4566
S'currentAffairs'
p4568
sI4567
S'business'
p4569
sI4568
S'currentAffairs'
p4570
sI4569
S'currentAffairs'
p4571
sI4570
S'currentAffairs'
p4572
sI4571
S'arts'
p4573
sI4572
S'sports'
p4574
sI4573
S'currentAffairs'
p4575
sI4574
S'science'
p4576
sI4575
S'science'
p4577
sI4576
S'science'
p4578
sI4577
S'currentAffairs'
p4579
sI4578
S'currentAffairs'
p4580
sI4579
S'currentAffairs'
p4581
sI4580
S'currentAffairs'
p4582
sI4581
S'currentAffairs'
p4583
sI4582
S'currentAffairs'
p4584
sI4583
S'currentAffairs'
p4585
sI4584
S'sports'
p4586
sI4585
S'business'
p4587
sI4586
S'business'
p4588
sI4587
S'currentAffairs'
p4589
sI4588
S'currentAffairs'
p4590
sI4589
S'currentAffairs'
p4591
sI4590
S'business'
p4592
sI4591
S'currentAffairs'
p4593
sI4592
S'business'
p4594
sI4593
S'currentAffairs'
p4595
sI4594
S'sports'
p4596
sI4595
S'currentAffairs'
p4597
sI4596
S'arts'
p4598
sI4597
S'currentAffairs'
p4599
sI4598
S'currentAffairs'
p4600
sI4599
S'currentAffairs'
p4601
sI4600
S'currentAffairs'
p4602
sI4601
S'currentAffairs'
p4603
sI4602
S'currentAffairs'
p4604
sI4603
S'currentAffairs'
p4605
sI4604
S'currentAffairs'
p4606
sI4605
S'currentAffairs'
p4607
sI4606
S'currentAffairs'
p4608
sI4607
S'business'
p4609
sI4608
S'currentAffairs'
p4610
sI4609
S'arts'
p4611
sI4610
S'currentAffairs'
p4612
sI4611
S'currentAffairs'
p4613
sI4612
S'currentAffairs'
p4614
sI4613
S'currentAffairs'
p4615
sI4614
S'currentAffairs'
p4616
sI4615
S'currentAffairs'
p4617
sI4616
S'sports'
p4618
sI4617
S'currentAffairs'
p4619
sI4618
S'currentAffairs'
p4620
sI4619
S'arts'
p4621
sI4620
S'sports'
p4622
sI4621
S'arts'
p4623
sI4622
S'currentAffairs'
p4624
sI4623
S'currentAffairs'
p4625
sI4624
S'currentAffairs'
p4626
sI4625
S'arts'
p4627
sI4626
S'currentAffairs'
p4628
sI4627
S'sports'
p4629
sI4628
S'business'
p4630
sI4629
S'arts'
p4631
sI4630
S'arts'
p4632
sI4631
S'currentAffairs'
p4633
sI4632
S'sports'
p4634
sI4633
S'sports'
p4635
sI4634
S'sports'
p4636
sI4635
S'currentAffairs'
p4637
sI4636
S'currentAffairs'
p4638
sI4637
S'currentAffairs'
p4639
sI4638
S'currentAffairs'
p4640
sI4639
S'business'
p4641
sI4640
S'currentAffairs'
p4642
sI4641
S'currentAffairs'
p4643
sI4642
S'currentAffairs'
p4644
sI4643
S'business'
p4645
sI4644
S'currentAffairs'
p4646
sI4645
S'currentAffairs'
p4647
sI4646
S'currentAffairs'
p4648
sI4647
S'currentAffairs'
p4649
sI4648
S'sports'
p4650
sI4649
S'business'
p4651
sI4650
S'arts'
p4652
sI4651
S'arts'
p4653
sI4652
S'currentAffairs'
p4654
sI4653
S'currentAffairs'
p4655
sI4654
S'arts'
p4656
sI4655
S'science'
p4657
sI4656
S'currentAffairs'
p4658
sI4657
S'currentAffairs'
p4659
sI4658
S'currentAffairs'
p4660
sI4659
S'arts'
p4661
sI4660
S'arts'
p4662
sI4661
S'currentAffairs'
p4663
sI4662
S'currentAffairs'
p4664
sI4663
S'currentAffairs'
p4665
sI4664
S'currentAffairs'
p4666
sI4665
S'science'
p4667
sI4666
S'currentAffairs'
p4668
sI4667
S'science'
p4669
sI4668
S'business'
p4670
sI4669
S'arts'
p4671
sI4670
S'business'
p4672
sI4671
S'currentAffairs'
p4673
sI4672
S'science'
p4674
sI4673
S'currentAffairs'
p4675
sI4674
S'arts'
p4676
sI4675
S'currentAffairs'
p4677
sI4676
S'currentAffairs'
p4678
sI4677
S'sports'
p4679
sI4678
S'currentAffairs'
p4680
sI4679
S'currentAffairs'
p4681
sI4680
S'currentAffairs'
p4682
sI4681
S'currentAffairs'
p4683
sI4682
S'currentAffairs'
p4684
sI4683
S'currentAffairs'
p4685
sI4684
S'business'
p4686
sI4685
S'currentAffairs'
p4687
sI4686
S'currentAffairs'
p4688
sI4687
S'currentAffairs'
p4689
sI4688
S'currentAffairs'
p4690
sI4689
S'currentAffairs'
p4691
sI4690
S'currentAffairs'
p4692
sI4691
S'arts'
p4693
sI4692
S'arts'
p4694
sI4693
S'currentAffairs'
p4695
sI4694
S'currentAffairs'
p4696
sI4695
S'sports'
p4697
sI4696
S'currentAffairs'
p4698
sI4697
S'currentAffairs'
p4699
sI4698
S'currentAffairs'
p4700
sI4699
S'science'
p4701
sI4700
S'currentAffairs'
p4702
sI4701
S'science'
p4703
sI4702
S'business'
p4704
sI4703
S'arts'
p4705
sI4704
S'business'
p4706
sI4705
S'business'
p4707
sI4706
S'science'
p4708
sI4707
S'currentAffairs'
p4709
sI4708
S'currentAffairs'
p4710
sI4709
S'currentAffairs'
p4711
sI4710
S'currentAffairs'
p4712
sI4711
S'currentAffairs'
p4713
sI4712
S'science'
p4714
sI4713
S'science'
p4715
sI4714
S'currentAffairs'
p4716
sI4715
S'currentAffairs'
p4717
sI4716
S'arts'
p4718
sI4717
S'science'
p4719
sI4718
S'arts'
p4720
sI4719
S'currentAffairs'
p4721
sI4720
S'currentAffairs'
p4722
sI4721
S'currentAffairs'
p4723
sI4722
S'currentAffairs'
p4724
sI4723
S'sports'
p4725
sI4724
S'currentAffairs'
p4726
sI4725
S'sports'
p4727
sI4726
S'business'
p4728
sI4727
S'science'
p4729
sI4728
S'currentAffairs'
p4730
sI4729
S'business'
p4731
sI4730
S'arts'
p4732
sI4731
S'arts'
p4733
sI4732
S'currentAffairs'
p4734
sI4733
S'business'
p4735
sI4734
S'sports'
p4736
sI4735
S'business'
p4737
sI4736
S'sports'
p4738
sI4737
S'science'
p4739
sI4738
S'sports'
p4740
sI4739
S'currentAffairs'
p4741
sI4740
S'currentAffairs'
p4742
sI4741
S'currentAffairs'
p4743
sI4742
S'currentAffairs'
p4744
sI4743
S'business'
p4745
sI4744
S'arts'
p4746
sI4745
S'arts'
p4747
sI4746
S'arts'
p4748
sI4747
S'currentAffairs'
p4749
sI4748
S'arts'
p4750
sI4749
S'currentAffairs'
p4751
sI4750
S'science'
p4752
sI4751
S'sports'
p4753
sI4752
S'currentAffairs'
p4754
sI4753
S'sports'
p4755
sI4754
S'currentAffairs'
p4756
sI4755
S'science'
p4757
sI4756
S'arts'
p4758
sI4757
S'currentAffairs'
p4759
sI4758
S'currentAffairs'
p4760
sI4759
S'currentAffairs'
p4761
sI4760
S'currentAffairs'
p4762
sI4761
S'arts'
p4763
sI4762
S'business'
p4764
sI4763
S'science'
p4765
sI4764
S'sports'
p4766
sI4765
S'science'
p4767
sI4766
S'currentAffairs'
p4768
sI4767
S'currentAffairs'
p4769
sI4768
S'arts'
p4770
sI4769
S'currentAffairs'
p4771
sI4770
S'arts'
p4772
sI4771
S'arts'
p4773
sI4772
S'currentAffairs'
p4774
sI4773
S'arts'
p4775
sI4774
S'currentAffairs'
p4776
sI4775
S'currentAffairs'
p4777
sI4776
S'currentAffairs'
p4778
sI4777
S'currentAffairs'
p4779
sI4778
S'business'
p4780
sI4779
S'currentAffairs'
p4781
sI4780
S'arts'
p4782
sI4781
S'currentAffairs'
p4783
sI4782
S'science'
p4784
sI4783
S'arts'
p4785
sI4784
S'currentAffairs'
p4786
sI4785
S'currentAffairs'
p4787
sI4786
S'currentAffairs'
p4788
sI4787
S'business'
p4789
sI4788
S'science'
p4790
sI4789
S'business'
p4791
sI4790
S'science'
p4792
sI4791
S'currentAffairs'
p4793
sI4792
S'currentAffairs'
p4794
sI4793
S'currentAffairs'
p4795
sI4794
S'business'
p4796
sI4795
S'sports'
p4797
sI4796
S'sports'
p4798
sI4797
S'sports'
p4799
sI4798
S'sports'
p4800
sI4799
S'sports'
p4801
sI4800
S'arts'
p4802
sI4801
S'sports'
p4803
sI4802
S'currentAffairs'
p4804
sI4803
S'currentAffairs'
p4805
sI4804
S'currentAffairs'
p4806
sI4805
S'currentAffairs'
p4807
sI4806
S'currentAffairs'
p4808
sI4807
S'currentAffairs'
p4809
sI4808
S'currentAffairs'
p4810
sI4809
S'sports'
p4811
sI4810
S'currentAffairs'
p4812
sI4811
S'currentAffairs'
p4813
sI4812
S'currentAffairs'
p4814
sI4813
S'currentAffairs'
p4815
sI4814
S'currentAffairs'
p4816
sI4815
S'currentAffairs'
p4817
sI4816
S'currentAffairs'
p4818
sI4817
S'business'
p4819
sI4818
S'arts'
p4820
sI4819
S'currentAffairs'
p4821
sI4820
S'currentAffairs'
p4822
sI4821
S'sports'
p4823
sI4822
S'sports'
p4824
sI4823
S'currentAffairs'
p4825
sI4824
S'currentAffairs'
p4826
sI4825
S'currentAffairs'
p4827
sI4826
S'currentAffairs'
p4828
sI4827
S'currentAffairs'
p4829
sI4828
S'currentAffairs'
p4830
sI4829
S'currentAffairs'
p4831
sI4830
S'currentAffairs'
p4832
sI4831
S'currentAffairs'
p4833
sI4832
S'currentAffairs'
p4834
sI4833
S'currentAffairs'
p4835
sI4834
S'currentAffairs'
p4836
sI4835
S'business'
p4837
sI4836
S'currentAffairs'
p4838
sI4837
S'currentAffairs'
p4839
sI4838
S'sports'
p4840
sI4839
S'sports'
p4841
sI4840
S'arts'
p4842
sI4841
S'arts'
p4843
sI4842
S'business'
p4844
sI4843
S'sports'
p4845
sI4844
S'business'
p4846
sI4845
S'business'
p4847
sI4846
S'currentAffairs'
p4848
sI4847
S'currentAffairs'
p4849
sI4848
S'currentAffairs'
p4850
sI4849
S'sports'
p4851
sI4850
S'currentAffairs'
p4852
sI4851
S'business'
p4853
sI4852
S'currentAffairs'
p4854
sI4853
S'science'
p4855
sI4854
S'business'
p4856
sI4855
S'arts'
p4857
sI4856
S'business'
p4858
sI4857
S'currentAffairs'
p4859
sI4858
S'currentAffairs'
p4860
sI4859
S'science'
p4861
sI4860
S'arts'
p4862
sI4861
S'arts'
p4863
sI4862
S'science'
p4864
sI4863
S'currentAffairs'
p4865
sI4864
S'sports'
p4866
sI4865
S'currentAffairs'
p4867
sI4866
S'currentAffairs'
p4868
sI4867
S'business'
p4869
sI4868
S'arts'
p4870
sI4869
S'science'
p4871
sI4870
S'currentAffairs'
p4872
sI4871
S'currentAffairs'
p4873
sI4872
S'currentAffairs'
p4874
sI4873
S'currentAffairs'
p4875
sI4874
S'arts'
p4876
sI4875
S'currentAffairs'
p4877
sI4876
S'currentAffairs'
p4878
sI4877
S'currentAffairs'
p4879
sI4878
S'currentAffairs'
p4880
sI4879
S'currentAffairs'
p4881
sI4880
S'currentAffairs'
p4882
sI4881
S'currentAffairs'
p4883
sI4882
S'currentAffairs'
p4884
sI4883
S'currentAffairs'
p4885
sI4884
S'currentAffairs'
p4886
sI4885
S'currentAffairs'
p4887
sI4886
S'currentAffairs'
p4888
sI4887
S'currentAffairs'
p4889
sI4888
S'business'
p4890
sI4889
S'currentAffairs'
p4891
sI4890
S'currentAffairs'
p4892
sI4891
S'currentAffairs'
p4893
sI4892
S'business'
p4894
sI4893
S'business'
p4895
sI4894
S'currentAffairs'
p4896
sI4895
S'arts'
p4897
sI4896
S'science'
p4898
sI4897
S'science'
p4899
sI4898
S'science'
p4900
sI4899
S'currentAffairs'
p4901
sI4900
S'business'
p4902
sI4901
S'sports'
p4903
sI4902
S'business'
p4904
sI4903
S'currentAffairs'
p4905
sI4904
S'currentAffairs'
p4906
sI4905
S'currentAffairs'
p4907
sI4906
S'currentAffairs'
p4908
sI4907
S'currentAffairs'
p4909
sI4908
S'sports'
p4910
sI4909
S'business'
p4911
sI4910
S'currentAffairs'
p4912
sI4911
S'currentAffairs'
p4913
sI4912
S'business'
p4914
sI4913
S'business'
p4915
sI4914
S'business'
p4916
sI4915
S'business'
p4917
sI4916
S'currentAffairs'
p4918
sI4917
S'currentAffairs'
p4919
sI4918
S'arts'
p4920
sI4919
S'currentAffairs'
p4921
sI4920
S'currentAffairs'
p4922
sI4921
S'science'
p4923
sI4922
S'science'
p4924
sI4923
S'science'
p4925
sI4924
S'science'
p4926
sI4925
S'science'
p4927
sI4926
S'science'
p4928
sI4927
S'sports'
p4929
sI4928
S'science'
p4930
sI4929
S'currentAffairs'
p4931
sI4930
S'currentAffairs'
p4932
sI4931
S'science'
p4933
sI4932
S'currentAffairs'
p4934
sI4933
S'science'
p4935
sI4934
S'business'
p4936
sI4935
S'business'
p4937
sI4936
S'currentAffairs'
p4938
sI4937
S'currentAffairs'
p4939
sI4938
S'currentAffairs'
p4940
sI4939
S'sports'
p4941
sI4940
S'science'
p4942
sI4941
S'currentAffairs'
p4943
sI4942
S'currentAffairs'
p4944
sI4943
S'arts'
p4945
sI4944
S'currentAffairs'
p4946
sI4945
S'currentAffairs'
p4947
sI4946
S'arts'
p4948
sI4947
S'science'
p4949
sI4948
S'currentAffairs'
p4950
sI4949
S'currentAffairs'
p4951
sI4950
S'business'
p4952
sI4951
S'sports'
p4953
sI4952
S'currentAffairs'
p4954
sI4953
S'sports'
p4955
sI4954
S'currentAffairs'
p4956
sI4955
S'business'
p4957
sI4956
S'science'
p4958
sI4957
S'sports'
p4959
sI4958
S'currentAffairs'
p4960
sI4959
S'currentAffairs'
p4961
sI4960
S'currentAffairs'
p4962
sI4961
S'currentAffairs'
p4963
sI4962
S'currentAffairs'
p4964
sI4963
S'business'
p4965
sI4964
S'arts'
p4966
sI4965
S'arts'
p4967
sI4966
S'business'
p4968
sI4967
S'currentAffairs'
p4969
sI4968
S'arts'
p4970
sI4969
S'arts'
p4971
sI4970
S'currentAffairs'
p4972
sI4971
S'arts'
p4973
sI4972
S'currentAffairs'
p4974
sI4973
S'arts'
p4975
sI4974
S'business'
p4976
sI4975
S'science'
p4977
sI4976
S'currentAffairs'
p4978
sI4977
S'arts'
p4979
sI4978
S'currentAffairs'
p4980
sI4979
S'science'
p4981
sI4980
S'arts'
p4982
sI4981
S'science'
p4983
sI4982
S'science'
p4984
sI4983
S'currentAffairs'
p4985
sI4984
S'currentAffairs'
p4986
sI4985
S'currentAffairs'
p4987
sI4986
S'currentAffairs'
p4988
sI4987
S'currentAffairs'
p4989
sI4988
S'currentAffairs'
p4990
sI4989
S'currentAffairs'
p4991
sI4990
S'currentAffairs'
p4992
sI4991
S'currentAffairs'
p4993
sI4992
S'arts'
p4994
sI4993
S'currentAffairs'
p4995
sI4994
S'arts'
p4996
sI4995
S'currentAffairs'
p4997
sI4996
S'business'
p4998
sI4997
S'science'
p4999
sI4998
S'arts'
p5000
sI4999
S'arts'
p5001
sI5000
S'arts'
p5002
sI5001
S'currentAffairs'
p5003
sI5002
S'arts'
p5004
sI5003
S'arts'
p5005
sI5004
S'currentAffairs'
p5006
sI5005
S'currentAffairs'
p5007
sI5006
S'science'
p5008
sI5007
S'currentAffairs'
p5009
sI5008
S'business'
p5010
sI5009
S'science'
p5011
sI5010
S'business'
p5012
sI5011
S'sports'
p5013
sI5012
S'currentAffairs'
p5014
sI5013
S'currentAffairs'
p5015
sI5014
S'business'
p5016
sI5015
S'currentAffairs'
p5017
sI5016
S'currentAffairs'
p5018
sI5017
S'currentAffairs'
p5019
sI5018
S'arts'
p5020
sI5019
S'currentAffairs'
p5021
sI5020
S'currentAffairs'
p5022
sI5021
S'currentAffairs'
p5023
sI5022
S'science'
p5024
sI5023
S'sports'
p5025
sI5024
S'arts'
p5026
sI5025
S'arts'
p5027
sI5026
S'currentAffairs'
p5028
sI5027
S'currentAffairs'
p5029
sI5028
S'currentAffairs'
p5030
sI5029
S'currentAffairs'
p5031
sI5030
S'science'
p5032
sI5031
S'currentAffairs'
p5033
sI5032
S'arts'
p5034
sI5033
S'currentAffairs'
p5035
sI5034
S'currentAffairs'
p5036
sI5035
S'sports'
p5037
sI5036
S'arts'
p5038
sI5037
S'business'
p5039
sI5038
S'arts'
p5040
sI5039
S'currentAffairs'
p5041
sI5040
S'currentAffairs'
p5042
sI5041
S'science'
p5043
sI5042
S'sports'
p5044
sI5043
S'currentAffairs'
p5045
sI5044
S'currentAffairs'
p5046
sI5045
S'sports'
p5047
sI5046
S'currentAffairs'
p5048
sI5047
S'arts'
p5049
sI5048
S'arts'
p5050
sI5049
S'business'
p5051
sI5050
S'science'
p5052
sI5051
S'currentAffairs'
p5053
sI5052
S'science'
p5054
sI5053
S'sports'
p5055
sI5054
S'arts'
p5056
sI5055
S'arts'
p5057
sI5056
S'business'
p5058
sI5057
S'business'
p5059
sI5058
S'currentAffairs'
p5060
sI5059
S'currentAffairs'
p5061
sI5060
S'currentAffairs'
p5062
sI5061
S'currentAffairs'
p5063
sI5062
S'currentAffairs'
p5064
sI5063
S'arts'
p5065
sI5064
S'currentAffairs'
p5066
sI5065
S'arts'
p5067
sI5066
S'business'
p5068
sI5067
S'currentAffairs'
p5069
sI5068
S'science'
p5070
sI5069
S'sports'
p5071
sI5070
S'currentAffairs'
p5072
sI5071
S'business'
p5073
sI5072
S'arts'
p5074
sI5073
S'business'
p5075
sI5074
S'science'
p5076
sI5075
S'arts'
p5077
sI5076
S'currentAffairs'
p5078
sI5077
S'currentAffairs'
p5079
sI5078
S'currentAffairs'
p5080
sI5079
S'currentAffairs'
p5081
sI5080
S'arts'
p5082
sI5081
S'currentAffairs'
p5083
sI5082
S'currentAffairs'
p5084
sI5083
S'business'
p5085
sI5084
S'business'
p5086
sI5085
S'currentAffairs'
p5087
sI5086
S'currentAffairs'
p5088
sI5087
S'sports'
p5089
sI5088
S'currentAffairs'
p5090
sI5089
S'arts'
p5091
sI5090
S'business'
p5092
sI5091
S'science'
p5093
sI5092
S'currentAffairs'
p5094
sI5093
S'currentAffairs'
p5095
sI5094
S'currentAffairs'
p5096
sI5095
S'sports'
p5097
sI5096
S'business'
p5098
sI5097
S'science'
p5099
sI5098
S'currentAffairs'
p5100
sI5099
S'currentAffairs'
p5101
sI5100
S'currentAffairs'
p5102
sI5101
S'science'
p5103
sI5102
S'business'
p5104
sI5103
S'currentAffairs'
p5105
sI5104
S'sports'
p5106
sI5105
S'arts'
p5107
sI5106
S'sports'
p5108
sI5107
S'business'
p5109
sI5108
S'currentAffairs'
p5110
sI5109
S'currentAffairs'
p5111
sI5110
S'science'
p5112
sI5111
S'currentAffairs'
p5113
sI5112
S'sports'
p5114
sI5113
S'science'
p5115
sI5114
S'currentAffairs'
p5116
sI5115
S'currentAffairs'
p5117
sI5116
S'business'
p5118
sI5117
S'currentAffairs'
p5119
sI5118
S'sports'
p5120
sI5119
S'science'
p5121
sI5120
S'currentAffairs'
p5122
sI5121
S'science'
p5123
sI5122
S'science'
p5124
sI5123
S'science'
p5125
sI5124
S'science'
p5126
sI5125
S'currentAffairs'
p5127
sI5126
S'business'
p5128
sI5127
S'currentAffairs'
p5129
sI5128
S'currentAffairs'
p5130
sI5129
S'arts'
p5131
sI5130
S'currentAffairs'
p5132
sI5131
S'currentAffairs'
p5133
sI5132
S'arts'
p5134
sI5133
S'sports'
p5135
sI5134
S'sports'
p5136
sI5135
S'business'
p5137
sI5136
S'currentAffairs'
p5138
sI5137
S'currentAffairs'
p5139
sI5138
S'business'
p5140
sI5139
S'currentAffairs'
p5141
sI5140
S'currentAffairs'
p5142
sI5141
S'business'
p5143
sI5142
S'business'
p5144
sI5143
S'currentAffairs'
p5145
sI5144
S'science'
p5146
sI5145
S'arts'
p5147
sI5146
S'business'
p5148
sI5147
S'currentAffairs'
p5149
sI5148
S'currentAffairs'
p5150
sI5149
S'business'
p5151
sI5150
S'currentAffairs'
p5152
sI5151
S'currentAffairs'
p5153
sI5152
S'science'
p5154
sI5153
S'currentAffairs'
p5155
sI5154
S'currentAffairs'
p5156
sI5155
S'currentAffairs'
p5157
sI5156
S'currentAffairs'
p5158
sI5157
S'currentAffairs'
p5159
sI5158
S'currentAffairs'
p5160
sI5159
S'currentAffairs'
p5161
sI5160
S'currentAffairs'
p5162
sI5161
S'currentAffairs'
p5163
sI5162
S'business'
p5164
sI5163
S'arts'
p5165
sI5164
S'currentAffairs'
p5166
sI5165
S'currentAffairs'
p5167
sI5166
S'currentAffairs'
p5168
sI5167
S'arts'
p5169
sI5168
S'currentAffairs'
p5170
sI5169
S'arts'
p5171
sI5170
S'currentAffairs'
p5172
sI5171
S'arts'
p5173
sI5172
S'currentAffairs'
p5174
sI5173
S'arts'
p5175
sI5174
S'currentAffairs'
p5176
sI5175
S'currentAffairs'
p5177
sI5176
S'currentAffairs'
p5178
sI5177
S'arts'
p5179
sI5178
S'business'
p5180
sI5179
S'currentAffairs'
p5181
sI5180
S'currentAffairs'
p5182
sI5181
S'sports'
p5183
sI5182
S'arts'
p5184
sI5183
S'currentAffairs'
p5185
sI5184
S'sports'
p5186
sI5185
S'currentAffairs'
p5187
sI5186
S'currentAffairs'
p5188
sI5187
S'arts'
p5189
sI5188
S'currentAffairs'
p5190
sI5189
S'sports'
p5191
sI5190
S'arts'
p5192
sI5191
S'arts'
p5193
sI5192
S'business'
p5194
sI5193
S'business'
p5195
sI5194
S'sports'
p5196
sI5195
S'currentAffairs'
p5197
sI5196
S'science'
p5198
sI5197
S'sports'
p5199
sI5198
S'currentAffairs'
p5200
sI5199
S'business'
p5201
sI5200
S'science'
p5202
sI5201
S'arts'
p5203
sI5202
S'science'
p5204
sI5203
S'currentAffairs'
p5205
sI5204
S'currentAffairs'
p5206
sI5205
S'currentAffairs'
p5207
sI5206
S'currentAffairs'
p5208
sI5207
S'currentAffairs'
p5209
sI5208
S'science'
p5210
sI5209
S'currentAffairs'
p5211
sI5210
S'arts'
p5212
sI5211
S'business'
p5213
sI5212
S'science'
p5214
sI5213
S'arts'
p5215
sI5214
S'currentAffairs'
p5216
sI5215
S'business'
p5217
sI5216
S'currentAffairs'
p5218
sI5217
S'currentAffairs'
p5219
sI5218
S'arts'
p5220
sI5219
S'currentAffairs'
p5221
sI5220
S'science'
p5222
sI5221
S'currentAffairs'
p5223
sI5222
S'science'
p5224
sI5223
S'sports'
p5225
sI5224
S'currentAffairs'
p5226
sI5225
S'arts'
p5227
sI5226
S'sports'
p5228
sI5227
S'business'
p5229
sI5228
S'currentAffairs'
p5230
sI5229
S'science'
p5231
sI5230
S'currentAffairs'
p5232
sI5231
S'business'
p5233
sI5232
S'currentAffairs'
p5234
sI5233
S'currentAffairs'
p5235
sI5234
S'currentAffairs'
p5236
sI5235
S'currentAffairs'
p5237
sI5236
S'science'
p5238
sI5237
S'science'
p5239
sI5238
S'sports'
p5240
sI5239
S'currentAffairs'
p5241
sI5240
S'sports'
p5242
sI5241
S'currentAffairs'
p5243
sI5242
S'arts'
p5244
sI5243
S'currentAffairs'
p5245
sI5244
S'business'
p5246
sI5245
S'science'
p5247
sI5246
S'business'
p5248
sI5247
S'science'
p5249
sI5248
S'business'
p5250
sI5249
S'business'
p5251
sI5250
S'currentAffairs'
p5252
sI5251
S'currentAffairs'
p5253
sI5252
S'currentAffairs'
p5254
sI5253
S'arts'
p5255
sI5254
S'sports'
p5256
sI5255
S'currentAffairs'
p5257
sI5256
S'currentAffairs'
p5258
sI5257
S'currentAffairs'
p5259
sI5258
S'arts'
p5260
sI5259
S'science'
p5261
sI5260
S'arts'
p5262
sI5261
S'sports'
p5263
sI5262
S'sports'
p5264
sI5263
S'currentAffairs'
p5265
sI5264
S'sports'
p5266
sI5265
S'sports'
p5267
sI5266
S'science'
p5268
sI5267
S'currentAffairs'
p5269
sI5268
S'arts'
p5270
sI5269
S'currentAffairs'
p5271
sI5270
S'currentAffairs'
p5272
sI5271
S'sports'
p5273
sI5272
S'arts'
p5274
sI5273
S'currentAffairs'
p5275
sI5274
S'currentAffairs'
p5276
sI5275
S'currentAffairs'
p5277
sI5276
S'business'
p5278
sI5277
S'currentAffairs'
p5279
sI5278
S'currentAffairs'
p5280
sI5279
S'currentAffairs'
p5281
sI5280
S'science'
p5282
sI5281
S'science'
p5283
sI5282
S'business'
p5284
sI5283
S'currentAffairs'
p5285
sI5284
S'currentAffairs'
p5286
sI5285
S'currentAffairs'
p5287
sI5286
S'arts'
p5288
sI5287
S'currentAffairs'
p5289
sI5288
S'arts'
p5290
sI5289
S'currentAffairs'
p5291
sI5290
S'currentAffairs'
p5292
sI5291
S'currentAffairs'
p5293
sI5292
S'currentAffairs'
p5294
sI5293
S'currentAffairs'
p5295
sI5294
S'currentAffairs'
p5296
sI5295
S'arts'
p5297
sI5296
S'currentAffairs'
p5298
sI5297
S'business'
p5299
sI5298
S'currentAffairs'
p5300
sI5299
S'science'
p5301
sI5300
S'currentAffairs'
p5302
sI5301
S'currentAffairs'
p5303
sI5302
S'business'
p5304
sI5303
S'currentAffairs'
p5305
sI5304
S'currentAffairs'
p5306
sI5305
S'currentAffairs'
p5307
sI5306
S'science'
p5308
sI5307
S'currentAffairs'
p5309
sI5308
S'currentAffairs'
p5310
sI5309
S'science'
p5311
sI5310
S'currentAffairs'
p5312
sI5311
S'currentAffairs'
p5313
sI5312
S'business'
p5314
sI5313
S'sports'
p5315
sI5314
S'business'
p5316
sI5315
S'currentAffairs'
p5317
sI5316
S'currentAffairs'
p5318
sI5317
S'business'
p5319
sI5318
S'currentAffairs'
p5320
sI5319
S'currentAffairs'
p5321
sI5320
S'currentAffairs'
p5322
sI5321
S'business'
p5323
sI5322
S'business'
p5324
sI5323
S'currentAffairs'
p5325
sI5324
S'currentAffairs'
p5326
sI5325
S'sports'
p5327
sI5326
S'currentAffairs'
p5328
sI5327
S'sports'
p5329
sI5328
S'currentAffairs'
p5330
sI5329
S'business'
p5331
sI5330
S'sports'
p5332
sI5331
S'sports'
p5333
sI5332
S'currentAffairs'
p5334
sI5333
S'sports'
p5335
sI5334
S'currentAffairs'
p5336
sI5335
S'business'
p5337
sI5336
S'currentAffairs'
p5338
sI5337
S'currentAffairs'
p5339
sI5338
S'currentAffairs'
p5340
sI5339
S'currentAffairs'
p5341
sI5340
S'currentAffairs'
p5342
sI5341
S'currentAffairs'
p5343
sI5342
S'sports'
p5344
sI5343
S'currentAffairs'
p5345
sI5344
S'currentAffairs'
p5346
sI5345
S'currentAffairs'
p5347
sI5346
S'currentAffairs'
p5348
sI5347
S'arts'
p5349
sI5348
S'currentAffairs'
p5350
sI5349
S'currentAffairs'
p5351
sI5350
S'currentAffairs'
p5352
sI5351
S'arts'
p5353
sI5352
S'science'
p5354
sI5353
S'currentAffairs'
p5355
sI5354
S'currentAffairs'
p5356
sI5355
S'currentAffairs'
p5357
sI5356
S'currentAffairs'
p5358
sI5357
S'currentAffairs'
p5359
sI5358
S'sports'
p5360
sI5359
S'sports'
p5361
sI5360
S'sports'
p5362
sI5361
S'currentAffairs'
p5363
sI5362
S'currentAffairs'
p5364
sI5363
S'currentAffairs'
p5365
sI5364
S'currentAffairs'
p5366
sI5365
S'arts'
p5367
sI5366
S'currentAffairs'
p5368
sI5367
S'science'
p5369
sI5368
S'currentAffairs'
p5370
sI5369
S'currentAffairs'
p5371
sI5370
S'currentAffairs'
p5372
sI5371
S'currentAffairs'
p5373
sI5372
S'business'
p5374
sI5373
S'arts'
p5375
sI5374
S'currentAffairs'
p5376
sI5375
S'arts'
p5377
sI5376
S'arts'
p5378
sI5377
S'currentAffairs'
p5379
sI5378
S'currentAffairs'
p5380
sI5379
S'currentAffairs'
p5381
sI5380
S'arts'
p5382
sI5381
S'sports'
p5383
sI5382
S'sports'
p5384
sI5383
S'sports'
p5385
sI5384
S'sports'
p5386
sI5385
S'science'
p5387
sI5386
S'currentAffairs'
p5388
sI5387
S'business'
p5389
sI5388
S'arts'
p5390
sI5389
S'currentAffairs'
p5391
sI5390
S'business'
p5392
sI5391
S'business'
p5393
sI5392
S'currentAffairs'
p5394
sI5393
S'currentAffairs'
p5395
sI5394
S'currentAffairs'
p5396
sI5395
S'currentAffairs'
p5397
sI5396
S'business'
p5398
sI5397
S'arts'
p5399
sI5398
S'business'
p5400
sI5399
S'business'
p5401
sI5400
S'business'
p5402
sI5401
S'currentAffairs'
p5403
sI5402
S'currentAffairs'
p5404
sI5403
S'currentAffairs'
p5405
sI5404
S'currentAffairs'
p5406
sI5405
S'currentAffairs'
p5407
sI5406
S'currentAffairs'
p5408
sI5407
S'currentAffairs'
p5409
sI5408
S'currentAffairs'
p5410
sI5409
S'sports'
p5411
sI5410
S'arts'
p5412
sI5411
S'sports'
p5413
sI5412
S'science'
p5414
sI5413
S'sports'
p5415
sI5414
S'business'
p5416
sI5415
S'currentAffairs'
p5417
sI5416
S'science'
p5418
sI5417
S'science'
p5419
sI5418
S'currentAffairs'
p5420
sI5419
S'currentAffairs'
p5421
sI5420
S'currentAffairs'
p5422
sI5421
S'arts'
p5423
sI5422
S'currentAffairs'
p5424
sI5423
S'currentAffairs'
p5425
sI5424
S'arts'
p5426
sI5425
S'arts'
p5427
sI5426
S'currentAffairs'
p5428
sI5427
S'currentAffairs'
p5429
sI5428
S'arts'
p5430
sI5429
S'business'
p5431
sI5430
S'science'
p5432
sI5431
S'currentAffairs'
p5433
sI5432
S'currentAffairs'
p5434
sI5433
S'currentAffairs'
p5435
sI5434
S'currentAffairs'
p5436
sI5435
S'currentAffairs'
p5437
sI5436
S'arts'
p5438
sI5437
S'currentAffairs'
p5439
sI5438
S'currentAffairs'
p5440
sI5439
S'science'
p5441
sI5440
S'currentAffairs'
p5442
sI5441
S'currentAffairs'
p5443
sI5442
S'currentAffairs'
p5444
sI5443
S'arts'
p5445
sI5444
S'currentAffairs'
p5446
sI5445
S'business'
p5447
sI5446
S'currentAffairs'
p5448
sI5447
S'currentAffairs'
p5449
sI5448
S'currentAffairs'
p5450
sI5449
S'currentAffairs'
p5451
sI5450
S'currentAffairs'
p5452
sI5451
S'currentAffairs'
p5453
sI5452
S'currentAffairs'
p5454
sI5453
S'currentAffairs'
p5455
sI5454
S'sports'
p5456
sI5455
S'arts'
p5457
sI5456
S'currentAffairs'
p5458
sI5457
S'arts'
p5459
sI5458
S'arts'
p5460
sI5459
S'currentAffairs'
p5461
sI5460
S'business'
p5462
sI5461
S'science'
p5463
sI5462
S'business'
p5464
sI5463
S'science'
p5465
sI5464
S'currentAffairs'
p5466
sI5465
S'business'
p5467
sI5466
S'currentAffairs'
p5468
sI5467
S'science'
p5469
sI5468
S'business'
p5470
sI5469
S'business'
p5471
sI5470
S'science'
p5472
sI5471
S'science'
p5473
sI5472
S'science'
p5474
sI5473
S'business'
p5475
sI5474
S'business'
p5476
sI5475
S'science'
p5477
sI5476
S'science'
p5478
sI5477
S'business'
p5479
sI5478
S'science'
p5480
sI5479
S'business'
p5481
sI5480
S'business'
p5482
sI5481
S'business'
p5483
sI5482
S'currentAffairs'
p5484
sI5483
S'currentAffairs'
p5485
sI5484
S'sports'
p5486
sI5485
S'sports'
p5487
sI5486
S'business'
p5488
sI5487
S'currentAffairs'
p5489
sI5488
S'currentAffairs'
p5490
sI5489
S'currentAffairs'
p5491
sI5490
S'currentAffairs'
p5492
sI5491
S'currentAffairs'
p5493
sI5492
S'arts'
p5494
sI5493
S'arts'
p5495
sI5494
S'currentAffairs'
p5496
sI5495
S'currentAffairs'
p5497
sI5496
S'currentAffairs'
p5498
sI5497
S'business'
p5499
sI5498
S'currentAffairs'
p5500
sI5499
S'currentAffairs'
p5501
sI5500
S'currentAffairs'
p5502
sI5501
S'currentAffairs'
p5503
sI5502
S'sports'
p5504
sI5503
S'sports'
p5505
sI5504
S'business'
p5506
sI5505
S'currentAffairs'
p5507
sI5506
S'business'
p5508
sI5507
S'currentAffairs'
p5509
sI5508
S'science'
p5510
sI5509
S'business'
p5511
sI5510
S'science'
p5512
sI5511
S'currentAffairs'
p5513
sI5512
S'science'
p5514
sI5513
S'science'
p5515
sI5514
S'currentAffairs'
p5516
sI5515
S'science'
p5517
sI5516
S'science'
p5518
sI5517
S'science'
p5519
sI5518
S'business'
p5520
sI5519
S'science'
p5521
sI5520
S'currentAffairs'
p5522
sI5521
S'science'
p5523
sI5522
S'science'
p5524
sI5523
S'arts'
p5525
sI5524
S'currentAffairs'
p5526
sI5525
S'science'
p5527
sI5526
S'business'
p5528
sI5527
S'currentAffairs'
p5529
sI5528
S'currentAffairs'
p5530
sI5529
S'business'
p5531
sI5530
S'business'
p5532
sI5531
S'science'
p5533
sI5532
S'science'
p5534
sI5533
S'science'
p5535
sI5534
S'currentAffairs'
p5536
sI5535
S'currentAffairs'
p5537
sI5536
S'business'
p5538
sI5537
S'science'
p5539
sI5538
S'currentAffairs'
p5540
sI5539
S'science'
p5541
sI5540
S'science'
p5542
sI5541
S'business'
p5543
sI5542
S'science'
p5544
sI5543
S'currentAffairs'
p5545
sI5544
S'science'
p5546
sI5545
S'business'
p5547
sI5546
S'business'
p5548
sI5547
S'currentAffairs'
p5549
sI5548
S'business'
p5550
sI5549
S'currentAffairs'
p5551
sI5550
S'currentAffairs'
p5552
sI5551
S'science'
p5553
sI5552
S'business'
p5554
sI5553
S'science'
p5555
sI5554
S'business'
p5556
sI5555
S'currentAffairs'
p5557
sI5556
S'business'
p5558
sI5557
S'currentAffairs'
p5559
sI5558
S'business'
p5560
sI5559
S'science'
p5561
sI5560
S'currentAffairs'
p5562
sI5561
S'science'
p5563
sI5562
S'science'
p5564
sI5563
S'business'
p5565
sI5564
S'science'
p5566
sI5565
S'science'
p5567
sI5566
S'science'
p5568
sI5567
S'currentAffairs'
p5569
sI5568
S'currentAffairs'
p5570
sI5569
S'business'
p5571
sI5570
S'currentAffairs'
p5572
sI5571
S'science'
p5573
sI5572
S'currentAffairs'
p5574
sI5573
S'science'
p5575
sI5574
S'science'
p5576
sI5575
S'science'
p5577
sI5576
S'science'
p5578
sI5577
S'currentAffairs'
p5579
sI5578
S'science'
p5580
sI5579
S'science'
p5581
sI5580
S'science'
p5582
sI5581
S'science'
p5583
sI5582
S'currentAffairs'
p5584
sI5583
S'science'
p5585
sI5584
S'business'
p5586
sI5585
S'currentAffairs'
p5587
sI5586
S'business'
p5588
sI5587
S'currentAffairs'
p5589
sI5588
S'currentAffairs'
p5590
sI5589
S'science'
p5591
sI5590
S'science'
p5592
sI5591
S'business'
p5593
sI5592
S'currentAffairs'
p5594
sI5593
S'science'
p5595
sI5594
S'currentAffairs'
p5596
sI5595
S'currentAffairs'
p5597
sI5596
S'sports'
p5598
sI5597
S'currentAffairs'
p5599
sI5598
S'currentAffairs'
p5600
sI5599
S'sports'
p5601
sI5600
S'sports'
p5602
sI5601
S'arts'
p5603
sI5602
S'arts'
p5604
sI5603
S'currentAffairs'
p5605
sI5604
S'currentAffairs'
p5606
sI5605
S'arts'
p5607
sI5606
S'business'
p5608
sI5607
S'science'
p5609
sI5608
S'currentAffairs'
p5610
sI5609
S'arts'
p5611
sI5610
S'sports'
p5612
sI5611
S'arts'
p5613
sI5612
S'currentAffairs'
p5614
sI5613
S'arts'
p5615
sI5614
S'currentAffairs'
p5616
sI5615
S'currentAffairs'
p5617
sI5616
S'currentAffairs'
p5618
sI5617
S'science'
p5619
sI5618
S'science'
p5620
sI5619
S'sports'
p5621
sI5620
S'science'
p5622
sI5621
S'science'
p5623
sI5622
S'currentAffairs'
p5624
sI5623
S'currentAffairs'
p5625
sI5624
S'business'
p5626
sI5625
S'currentAffairs'
p5627
sI5626
S'arts'
p5628
sI5627
S'sports'
p5629
sI5628
S'currentAffairs'
p5630
sI5629
S'currentAffairs'
p5631
sI5630
S'currentAffairs'
p5632
sI5631
S'science'
p5633
sI5632
S'currentAffairs'
p5634
sI5633
S'currentAffairs'
p5635
sI5634
S'currentAffairs'
p5636
sI5635
S'arts'
p5637
sI5636
S'arts'
p5638
sI5637
S'sports'
p5639
sI5638
S'currentAffairs'
p5640
sI5639
S'science'
p5641
sI5640
S'currentAffairs'
p5642
sI5641
S'currentAffairs'
p5643
sI5642
S'currentAffairs'
p5644
sI5643
S'arts'
p5645
sI5644
S'arts'
p5646
sI5645
S'arts'
p5647
sI5646
S'arts'
p5648
sI5647
S'business'
p5649
sI5648
S'currentAffairs'
p5650
sI5649
S'arts'
p5651
sI5650
S'business'
p5652
sI5651
S'business'
p5653
sI5652
S'currentAffairs'
p5654
sI5653
S'currentAffairs'
p5655
sI5654
S'currentAffairs'
p5656
sI5655
S'currentAffairs'
p5657
sI5656
S'currentAffairs'
p5658
sI5657
S'currentAffairs'
p5659
sI5658
S'currentAffairs'
p5660
sI5659
S'business'
p5661
sI5660
S'sports'
p5662
sI5661
S'currentAffairs'
p5663
sI5662
S'business'
p5664
sI5663
S'currentAffairs'
p5665
sI5664
S'currentAffairs'
p5666
sI5665
S'currentAffairs'
p5667
sI5666
S'arts'
p5668
sI5667
S'science'
p5669
sI5668
S'arts'
p5670
sI5669
S'science'
p5671
sI5670
S'currentAffairs'
p5672
sI5671
S'science'
p5673
sI5672
S'science'
p5674
sI5673
S'science'
p5675
sI5674
S'science'
p5676
sI5675
S'arts'
p5677
sI5676
S'currentAffairs'
p5678
sI5677
S'currentAffairs'
p5679
sI5678
S'arts'
p5680
sI5679
S'currentAffairs'
p5681
sI5680
S'currentAffairs'
p5682
sI5681
S'sports'
p5683
sI5682
S'currentAffairs'
p5684
sI5683
S'currentAffairs'
p5685
sI5684
S'currentAffairs'
p5686
sI5685
S'sports'
p5687
sI5686
S'business'
p5688
sI5687
S'currentAffairs'
p5689
sI5688
S'currentAffairs'
p5690
sI5689
S'sports'
p5691
sI5690
S'science'
p5692
sI5691
S'currentAffairs'
p5693
sI5692
S'currentAffairs'
p5694
sI5693
S'currentAffairs'
p5695
sI5694
S'currentAffairs'
p5696
sI5695
S'arts'
p5697
sI5696
S'science'
p5698
sI5697
S'science'
p5699
sI5698
S'arts'
p5700
sI5699
S'business'
p5701
sI5700
S'currentAffairs'
p5702
sI5701
S'currentAffairs'
p5703
sI5702
S'currentAffairs'
p5704
sI5703
S'sports'
p5705
sI5704
S'currentAffairs'
p5706
sI5705
S'currentAffairs'
p5707
sI5706
S'sports'
p5708
sI5707
S'currentAffairs'
p5709
sI5708
S'science'
p5710
sI5709
S'currentAffairs'
p5711
sI5710
S'currentAffairs'
p5712
sI5711
S'currentAffairs'
p5713
sI5712
S'currentAffairs'
p5714
sI5713
S'science'
p5715
sI5714
S'currentAffairs'
p5716
sI5715
S'science'
p5717
sI5716
S'currentAffairs'
p5718
sI5717
S'science'
p5719
sI5718
S'currentAffairs'
p5720
sI5719
S'currentAffairs'
p5721
sI5720
S'currentAffairs'
p5722
sI5721
S'arts'
p5723
sI5722
S'business'
p5724
sI5723
S'currentAffairs'
p5725
sI5724
S'currentAffairs'
p5726
sI5725
S'business'
p5727
sI5726
S'arts'
p5728
sI5727
S'currentAffairs'
p5729
sI5728
S'currentAffairs'
p5730
sI5729
S'currentAffairs'
p5731
sI5730
S'currentAffairs'
p5732
sI5731
S'currentAffairs'
p5733
sI5732
S'science'
p5734
sI5733
S'currentAffairs'
p5735
sI5734
S'business'
p5736
sI5735
S'currentAffairs'
p5737
sI5736
S'arts'
p5738
sI5737
S'currentAffairs'
p5739
sI5738
S'currentAffairs'
p5740
sI5739
S'currentAffairs'
p5741
sI5740
S'currentAffairs'
p5742
sI5741
S'currentAffairs'
p5743
sI5742
S'currentAffairs'
p5744
sI5743
S'currentAffairs'
p5745
sI5744
S'business'
p5746
sI5745
S'business'
p5747
sI5746
S'currentAffairs'
p5748
sI5747
S'currentAffairs'
p5749
sI5748
S'currentAffairs'
p5750
sI5749
S'arts'
p5751
sI5750
S'currentAffairs'
p5752
sI5751
S'currentAffairs'
p5753
sI5752
S'currentAffairs'
p5754
sI5753
S'currentAffairs'
p5755
sI5754
S'sports'
p5756
sI5755
S'science'
p5757
sI5756
S'business'
p5758
sI5757
S'currentAffairs'
p5759
sI5758
S'sports'
p5760
sI5759
S'arts'
p5761
sI5760
S'sports'
p5762
sI5761
S'arts'
p5763
sI5762
S'business'
p5764
sI5763
S'currentAffairs'
p5765
sI5764
S'science'
p5766
sI5765
S'currentAffairs'
p5767
sI5766
S'arts'
p5768
sI5767
S'currentAffairs'
p5769
sI5768
S'sports'
p5770
sI5769
S'currentAffairs'
p5771
sI5770
S'currentAffairs'
p5772
sI5771
S'sports'
p5773
sI5772
S'currentAffairs'
p5774
sI5773
S'sports'
p5775
sI5774
S'currentAffairs'
p5776
sI5775
S'science'
p5777
sI5776
S'science'
p5778
sI5777
S'currentAffairs'
p5779
sI5778
S'business'
p5780
sI5779
S'currentAffairs'
p5781
sI5780
S'arts'
p5782
sI5781
S'currentAffairs'
p5783
sI5782
S'arts'
p5784
sI5783
S'currentAffairs'
p5785
sI5784
S'arts'
p5786
sI5785
S'currentAffairs'
p5787
sI5786
S'arts'
p5788
sI5787
S'currentAffairs'
p5789
sI5788
S'currentAffairs'
p5790
sI5789
S'currentAffairs'
p5791
sI5790
S'currentAffairs'
p5792
sI5791
S'currentAffairs'
p5793
sI5792
S'currentAffairs'
p5794
sI5793
S'currentAffairs'
p5795
sI5794
S'science'
p5796
sI5795
S'currentAffairs'
p5797
sI5796
S'currentAffairs'
p5798
sI5797
S'business'
p5799
sI5798
S'currentAffairs'
p5800
sI5799
S'business'
p5801
sI5800
S'currentAffairs'
p5802
sI5801
S'science'
p5803
sI5802
S'currentAffairs'
p5804
sI5803
S'arts'
p5805
sI5804
S'arts'
p5806
sI5805
S'currentAffairs'
p5807
sI5806
S'currentAffairs'
p5808
sI5807
S'science'
p5809
sI5808
S'currentAffairs'
p5810
sI5809
S'currentAffairs'
p5811
sI5810
S'currentAffairs'
p5812
sI5811
S'science'
p5813
sI5812
S'currentAffairs'
p5814
sI5813
S'science'
p5815
sI5814
S'currentAffairs'
p5816
sI5815
S'currentAffairs'
p5817
sI5816
S'currentAffairs'
p5818
sI5817
S'science'
p5819
sI5818
S'currentAffairs'
p5820
sI5819
S'currentAffairs'
p5821
sI5820
S'arts'
p5822
sI5821
S'business'
p5823
sI5822
S'business'
p5824
sI5823
S'currentAffairs'
p5825
sI5824
S'currentAffairs'
p5826
sI5825
S'currentAffairs'
p5827
sI5826
S'science'
p5828
sI5827
S'arts'
p5829
sI5828
S'arts'
p5830
sI5829
S'science'
p5831
sI5830
S'currentAffairs'
p5832
sI5831
S'currentAffairs'
p5833
sI5832
S'currentAffairs'
p5834
sI5833
S'business'
p5835
sI5834
S'science'
p5836
sI5835
S'currentAffairs'
p5837
sI5836
S'business'
p5838
sI5837
S'arts'
p5839
sI5838
S'currentAffairs'
p5840
sI5839
S'currentAffairs'
p5841
sI5840
S'science'
p5842
sI5841
S'business'
p5843
sI5842
S'arts'
p5844
sI5843
S'currentAffairs'
p5845
sI5844
S'business'
p5846
sI5845
S'currentAffairs'
p5847
sI5846
S'currentAffairs'
p5848
sI5847
S'currentAffairs'
p5849
sI5848
S'business'
p5850
sI5849
S'currentAffairs'
p5851
sI5850
S'currentAffairs'
p5852
sI5851
S'currentAffairs'
p5853
sI5852
S'currentAffairs'
p5854
sI5853
S'science'
p5855
sI5854
S'currentAffairs'
p5856
sI5855
S'business'
p5857
sI5856
S'science'
p5858
sI5857
S'business'
p5859
sI5858
S'arts'
p5860
sI5859
S'currentAffairs'
p5861
sI5860
S'currentAffairs'
p5862
sI5861
S'currentAffairs'
p5863
sI5862
S'currentAffairs'
p5864
sI5863
S'sports'
p5865
sI5864
S'currentAffairs'
p5866
sI5865
S'sports'
p5867
sI5866
S'arts'
p5868
sI5867
S'business'
p5869
sI5868
S'currentAffairs'
p5870
sI5869
S'currentAffairs'
p5871
sI5870
S'currentAffairs'
p5872
sI5871
S'currentAffairs'
p5873
sI5872
S'currentAffairs'
p5874
sI5873
S'currentAffairs'
p5875
sI5874
S'currentAffairs'
p5876
sI5875
S'business'
p5877
sI5876
S'arts'
p5878
sI5877
S'business'
p5879
sI5878
S'currentAffairs'
p5880
sI5879
S'currentAffairs'
p5881
sI5880
S'currentAffairs'
p5882
sI5881
S'currentAffairs'
p5883
sI5882
S'currentAffairs'
p5884
sI5883
S'currentAffairs'
p5885
sI5884
S'currentAffairs'
p5886
sI5885
S'sports'
p5887
sI5886
S'currentAffairs'
p5888
sI5887
S'currentAffairs'
p5889
sI5888
S'currentAffairs'
p5890
sI5889
S'currentAffairs'
p5891
sI5890
S'currentAffairs'
p5892
sI5891
S'currentAffairs'
p5893
sI5892
S'currentAffairs'
p5894
sI5893
S'arts'
p5895
sI5894
S'currentAffairs'
p5896
sI5895
S'business'
p5897
sI5896
S'arts'
p5898
sI5897
S'currentAffairs'
p5899
sI5898
S'currentAffairs'
p5900
sI5899
S'business'
p5901
sI5900
S'currentAffairs'
p5902
sI5901
S'currentAffairs'
p5903
sI5902
S'currentAffairs'
p5904
sI5903
S'currentAffairs'
p5905
sI5904
S'sports'
p5906
sI5905
S'currentAffairs'
p5907
sI5906
S'currentAffairs'
p5908
sI5907
S'business'
p5909
sI5908
S'science'
p5910
sI5909
S'arts'
p5911
sI5910
S'science'
p5912
sI5911
S'science'
p5913
sI5912
S'business'
p5914
sI5913
S'arts'
p5915
sI5914
S'science'
p5916
sI5915
S'sports'
p5917
sI5916
S'sports'
p5918
sI5917
S'arts'
p5919
sI5918
S'currentAffairs'
p5920
sI5919
S'currentAffairs'
p5921
sI5920
S'currentAffairs'
p5922
sI5921
S'currentAffairs'
p5923
sI5922
S'business'
p5924
sI5923
S'currentAffairs'
p5925
sI5924
S'currentAffairs'
p5926
sI5925
S'sports'
p5927
sI5926
S'currentAffairs'
p5928
sI5927
S'currentAffairs'
p5929
sI5928
S'currentAffairs'
p5930
sI5929
S'science'
p5931
sI5930
S'arts'
p5932
sI5931
S'arts'
p5933
sI5932
S'currentAffairs'
p5934
sI5933
S'currentAffairs'
p5935
sI5934
S'science'
p5936
sI5935
S'currentAffairs'
p5937
sI5936
S'currentAffairs'
p5938
sI5937
S'currentAffairs'
p5939
sI5938
S'currentAffairs'
p5940
sI5939
S'currentAffairs'
p5941
sI5940
S'arts'
p5942
sI5941
S'currentAffairs'
p5943
sI5942
S'arts'
p5944
sI5943
S'arts'
p5945
sI5944
S'currentAffairs'
p5946
sI5945
S'currentAffairs'
p5947
sI5946
S'currentAffairs'
p5948
sI5947
S'currentAffairs'
p5949
sI5948
S'business'
p5950
sI5949
S'business'
p5951
sI5950
S'science'
p5952
sI5951
S'business'
p5953
sI5952
S'arts'
p5954
sI5953
S'sports'
p5955
sI5954
S'sports'
p5956
sI5955
S'currentAffairs'
p5957
sI5956
S'currentAffairs'
p5958
sI5957
S'currentAffairs'
p5959
sI5958
S'arts'
p5960
sI5959
S'currentAffairs'
p5961
sI5960
S'currentAffairs'
p5962
sI5961
S'science'
p5963
sI5962
S'currentAffairs'
p5964
sI5963
S'arts'
p5965
sI5964
S'currentAffairs'
p5966
sI5965
S'sports'
p5967
sI5966
S'currentAffairs'
p5968
sI5967
S'business'
p5969
sI5968
S'currentAffairs'
p5970
sI5969
S'currentAffairs'
p5971
sI5970
S'currentAffairs'
p5972
sI5971
S'currentAffairs'
p5973
sI5972
S'currentAffairs'
p5974
sI5973
S'arts'
p5975
sI5974
S'science'
p5976
sI5975
S'science'
p5977
sI5976
S'currentAffairs'
p5978
sI5977
S'currentAffairs'
p5979
sI5978
S'science'
p5980
sI5979
S'currentAffairs'
p5981
sI5980
S'science'
p5982
sI5981
S'arts'
p5983
sI5982
S'currentAffairs'
p5984
sI5983
S'currentAffairs'
p5985
sI5984
S'currentAffairs'
p5986
sI5985
S'currentAffairs'
p5987
sI5986
S'currentAffairs'
p5988
sI5987
S'currentAffairs'
p5989
sI5988
S'currentAffairs'
p5990
sI5989
S'currentAffairs'
p5991
sI5990
S'arts'
p5992
sI5991
S'sports'
p5993
sI5992
S'arts'
p5994
sI5993
S'currentAffairs'
p5995
sI5994
S'business'
p5996
sI5995
S'arts'
p5997
sI5996
S'currentAffairs'
p5998
sI5997
S'currentAffairs'
p5999
sI5998
S'arts'
p6000
sI5999
S'science'
p6001
sI6000
S'science'
p6002
sI6001
S'science'
p6003
sI6002
S'arts'
p6004
sI6003
S'arts'
p6005
sI6004
S'currentAffairs'
p6006
sI6005
S'business'
p6007
sI6006
S'arts'
p6008
sI6007
S'currentAffairs'
p6009
sI6008
S'business'
p6010
sI6009
S'business'
p6011
sI6010
S'currentAffairs'
p6012
sI6011
S'currentAffairs'
p6013
sI6012
S'currentAffairs'
p6014
sI6013
S'business'
p6015
sI6014
S'currentAffairs'
p6016
sI6015
S'science'
p6017
sI6016
S'currentAffairs'
p6018
sI6017
S'currentAffairs'
p6019
sI6018
S'business'
p6020
sI6019
S'currentAffairs'
p6021
sI6020
S'arts'
p6022
sI6021
S'currentAffairs'
p6023
sI6022
S'arts'
p6024
sI6023
S'arts'
p6025
sI6024
S'arts'
p6026
sI6025
S'arts'
p6027
sI6026
S'arts'
p6028
sI6027
S'currentAffairs'
p6029
sI6028
S'sports'
p6030
sI6029
S'currentAffairs'
p6031
sI6030
S'business'
p6032
sI6031
S'business'
p6033
sI6032
S'currentAffairs'
p6034
sI6033
S'currentAffairs'
p6035
sI6034
S'arts'
p6036
sI6035
S'currentAffairs'
p6037
sI6036
S'currentAffairs'
p6038
sI6037
S'currentAffairs'
p6039
sI6038
S'sports'
p6040
sI6039
S'science'
p6041
sI6040
S'currentAffairs'
p6042
sI6041
S'currentAffairs'
p6043
sI6042
S'currentAffairs'
p6044
sI6043
S'currentAffairs'
p6045
sI6044
S'business'
p6046
sI6045
S'currentAffairs'
p6047
sI6046
S'sports'
p6048
sI6047
S'currentAffairs'
p6049
sI6048
S'currentAffairs'
p6050
sI6049
S'currentAffairs'
p6051
sI6050
S'currentAffairs'
p6052
sI6051
S'currentAffairs'
p6053
sI6052
S'sports'
p6054
sI6053
S'arts'
p6055
sI6054
S'currentAffairs'
p6056
sI6055
S'currentAffairs'
p6057
sI6056
S'currentAffairs'
p6058
sI6057
S'arts'
p6059
sI6058
S'business'
p6060
sI6059
S'sports'
p6061
sI6060
S'currentAffairs'
p6062
sI6061
S'arts'
p6063
sI6062
S'science'
p6064
sI6063
S'currentAffairs'
p6065
sI6064
S'business'
p6066
sI6065
S'currentAffairs'
p6067
sI6066
S'business'
p6068
sI6067
S'science'
p6069
sI6068
S'currentAffairs'
p6070
sI6069
S'sports'
p6071
sI6070
S'sports'
p6072
sI6071
S'currentAffairs'
p6073
sI6072
S'science'
p6074
sI6073
S'currentAffairs'
p6075
sI6074
S'business'
p6076
sI6075
S'arts'
p6077
sI6076
S'currentAffairs'
p6078
sI6077
S'business'
p6079
sI6078
S'currentAffairs'
p6080
sI6079
S'currentAffairs'
p6081
sI6080
S'currentAffairs'
p6082
sI6081
S'sports'
p6083
sI6082
S'currentAffairs'
p6084
sI6083
S'arts'
p6085
sI6084
S'currentAffairs'
p6086
sI6085
S'business'
p6087
sI6086
S'currentAffairs'
p6088
sI6087
S'business'
p6089
sI6088
S'currentAffairs'
p6090
sI6089
S'currentAffairs'
p6091
sI6090
S'currentAffairs'
p6092
sI6091
S'currentAffairs'
p6093
sI6092
S'sports'
p6094
sI6093
S'currentAffairs'
p6095
sI6094
S'currentAffairs'
p6096
sI6095
S'currentAffairs'
p6097
sI6096
S'science'
p6098
sI6097
S'arts'
p6099
sI6098
S'currentAffairs'
p6100
sI6099
S'business'
p6101
sI6100
S'sports'
p6102
sI6101
S'currentAffairs'
p6103
sI6102
S'currentAffairs'
p6104
sI6103
S'currentAffairs'
p6105
sI6104
S'sports'
p6106
sI6105
S'science'
p6107
sI6106
S'arts'
p6108
sI6107
S'currentAffairs'
p6109
sI6108
S'science'
p6110
sI6109
S'currentAffairs'
p6111
sI6110
S'arts'
p6112
sI6111
S'business'
p6113
sI6112
S'business'
p6114
sI6113
S'currentAffairs'
p6115
sI6114
S'currentAffairs'
p6116
sI6115
S'business'
p6117
sI6116
S'currentAffairs'
p6118
sI6117
S'science'
p6119
sI6118
S'business'
p6120
sI6119
S'arts'
p6121
sI6120
S'currentAffairs'
p6122
sI6121
S'business'
p6123
sI6122
S'arts'
p6124
sI6123
S'arts'
p6125
sI6124
S'sports'
p6126
sI6125
S'currentAffairs'
p6127
sI6126
S'arts'
p6128
sI6127
S'currentAffairs'
p6129
sI6128
S'business'
p6130
sI6129
S'sports'
p6131
sI6130
S'business'
p6132
sI6131
S'business'
p6133
sI6132
S'currentAffairs'
p6134
sI6133
S'currentAffairs'
p6135
sI6134
S'sports'
p6136
sI6135
S'currentAffairs'
p6137
sI6136
S'arts'
p6138
sI6137
S'sports'
p6139
sI6138
S'arts'
p6140
sI6139
S'currentAffairs'
p6141
sI6140
S'currentAffairs'
p6142
sI6141
S'business'
p6143
sI6142
S'science'
p6144
sI6143
S'business'
p6145
sI6144
S'currentAffairs'
p6146
sI6145
S'currentAffairs'
p6147
sI6146
S'currentAffairs'
p6148
sI6147
S'business'
p6149
sI6148
S'business'
p6150
sI6149
S'currentAffairs'
p6151
sI6150
S'currentAffairs'
p6152
sI6151
S'science'
p6153
sI6152
S'currentAffairs'
p6154
sI6153
S'science'
p6155
sI6154
S'currentAffairs'
p6156
sI6155
S'currentAffairs'
p6157
sI6156
S'science'
p6158
sI6157
S'currentAffairs'
p6159
sI6158
S'business'
p6160
sI6159
S'sports'
p6161
sI6160
S'currentAffairs'
p6162
sI6161
S'currentAffairs'
p6163
sI6162
S'currentAffairs'
p6164
sI6163
S'science'
p6165
sI6164
S'science'
p6166
sI6165
S'science'
p6167
sI6166
S'science'
p6168
sI6167
S'arts'
p6169
sI6168
S'science'
p6170
sI6169
S'currentAffairs'
p6171
sI6170
S'arts'
p6172
sI6171
S'currentAffairs'
p6173
sI6172
S'arts'
p6174
sI6173
S'currentAffairs'
p6175
sI6174
S'currentAffairs'
p6176
sI6175
S'currentAffairs'
p6177
sI6176
S'currentAffairs'
p6178
sI6177
S'arts'
p6179
sI6178
S'currentAffairs'
p6180
sI6179
S'arts'
p6181
sI6180
S'sports'
p6182
sI6181
S'sports'
p6183
sI6182
S'sports'
p6184
sI6183
S'currentAffairs'
p6185
sI6184
S'currentAffairs'
p6186
sI6185
S'currentAffairs'
p6187
sI6186
S'currentAffairs'
p6188
sI6187
S'currentAffairs'
p6189
sI6188
S'business'
p6190
sI6189
S'business'
p6191
sI6190
S'currentAffairs'
p6192
sI6191
S'business'
p6193
sI6192
S'currentAffairs'
p6194
sI6193
S'currentAffairs'
p6195
sI6194
S'currentAffairs'
p6196
sI6195
S'arts'
p6197
sI6196
S'business'
p6198
sI6197
S'sports'
p6199
sI6198
S'currentAffairs'
p6200
sI6199
S'arts'
p6201
sI6200
S'science'
p6202
sI6201
S'currentAffairs'
p6203
sI6202
S'science'
p6204
sI6203
S'currentAffairs'
p6205
sI6204
S'business'
p6206
sI6205
S'currentAffairs'
p6207
sI6206
S'currentAffairs'
p6208
sI6207
S'business'
p6209
sI6208
S'currentAffairs'
p6210
sI6209
S'currentAffairs'
p6211
sI6210
S'sports'
p6212
sI6211
S'business'
p6213
sI6212
S'arts'
p6214
sI6213
S'arts'
p6215
sI6214
S'sports'
p6216
sI6215
S'currentAffairs'
p6217
sI6216
S'currentAffairs'
p6218
sI6217
S'currentAffairs'
p6219
sI6218
S'currentAffairs'
p6220
sI6219
S'currentAffairs'
p6221
sI6220
S'currentAffairs'
p6222
sI6221
S'currentAffairs'
p6223
sI6222
S'currentAffairs'
p6224
sI6223
S'sports'
p6225
sI6224
S'business'
p6226
sI6225
S'business'
p6227
sI6226
S'science'
p6228
sI6227
S'business'
p6229
sI6228
S'arts'
p6230
sI6229
S'sports'
p6231
sI6230
S'sports'
p6232
sI6231
S'sports'
p6233
sI6232
S'currentAffairs'
p6234
sI6233
S'currentAffairs'
p6235
sI6234
S'arts'
p6236
sI6235
S'arts'
p6237
sI6236
S'currentAffairs'
p6238
sI6237
S'currentAffairs'
p6239
sI6238
S'currentAffairs'
p6240
sI6239
S'sports'
p6241
sI6240
S'sports'
p6242
sI6241
S'arts'
p6243
sI6242
S'currentAffairs'
p6244
sI6243
S'currentAffairs'
p6245
sI6244
S'currentAffairs'
p6246
sI6245
S'sports'
p6247
sI6246
S'currentAffairs'
p6248
sI6247
S'currentAffairs'
p6249
sI6248
S'currentAffairs'
p6250
sI6249
S'sports'
p6251
sI6250
S'currentAffairs'
p6252
sI6251
S'currentAffairs'
p6253
sI6252
S'science'
p6254
sI6253
S'sports'
p6255
sI6254
S'currentAffairs'
p6256
sI6255
S'currentAffairs'
p6257
sI6256
S'currentAffairs'
p6258
sI6257
S'business'
p6259
sI6258
S'currentAffairs'
p6260
sI6259
S'currentAffairs'
p6261
sI6260
S'currentAffairs'
p6262
sI6261
S'currentAffairs'
p6263
sI6262
S'currentAffairs'
p6264
sI6263
S'currentAffairs'
p6265
sI6264
S'science'
p6266
sI6265
S'arts'
p6267
sI6266
S'currentAffairs'
p6268
sI6267
S'currentAffairs'
p6269
sI6268
S'sports'
p6270
sI6269
S'currentAffairs'
p6271
sI6270
S'arts'
p6272
sI6271
S'business'
p6273
sI6272
S'currentAffairs'
p6274
sI6273
S'currentAffairs'
p6275
sI6274
S'currentAffairs'
p6276
sI6275
S'currentAffairs'
p6277
sI6276
S'currentAffairs'
p6278
sI6277
S'currentAffairs'
p6279
sI6278
S'currentAffairs'
p6280
sI6279
S'currentAffairs'
p6281
sI6280
S'currentAffairs'
p6282
sI6281
S'currentAffairs'
p6283
sI6282
S'currentAffairs'
p6284
sI6283
S'currentAffairs'
p6285
sI6284
S'currentAffairs'
p6286
sI6285
S'business'
p6287
sI6286
S'sports'
p6288
sI6287
S'currentAffairs'
p6289
sI6288
S'currentAffairs'
p6290
sI6289
S'currentAffairs'
p6291
sI6290
S'currentAffairs'
p6292
sI6291
S'science'
p6293
sI6292
S'currentAffairs'
p6294
sI6293
S'currentAffairs'
p6295
sI6294
S'currentAffairs'
p6296
sI6295
S'currentAffairs'
p6297
sI6296
S'arts'
p6298
sI6297
S'currentAffairs'
p6299
sI6298
S'arts'
p6300
sI6299
S'science'
p6301
sI6300
S'business'
p6302
sI6301
S'currentAffairs'
p6303
sI6302
S'arts'
p6304
sI6303
S'currentAffairs'
p6305
sI6304
S'arts'
p6306
sI6305
S'currentAffairs'
p6307
sI6306
S'business'
p6308
sI6307
S'sports'
p6309
sI6308
S'arts'
p6310
sI6309
S'currentAffairs'
p6311
sI6310
S'business'
p6312
sI6311
S'currentAffairs'
p6313
sI6312
S'arts'
p6314
sI6313
S'sports'
p6315
sI6314
S'currentAffairs'
p6316
sI6315
S'sports'
p6317
sI6316
S'currentAffairs'
p6318
sI6317
S'currentAffairs'
p6319
sI6318
S'currentAffairs'
p6320
sI6319
S'business'
p6321
sI6320
S'sports'
p6322
sI6321
S'currentAffairs'
p6323
sI6322
S'business'
p6324
sI6323
S'currentAffairs'
p6325
sI6324
S'currentAffairs'
p6326
sI6325
S'currentAffairs'
p6327
sI6326
S'currentAffairs'
p6328
sI6327
S'currentAffairs'
p6329
sI6328
S'currentAffairs'
p6330
sI6329
S'sports'
p6331
sI6330
S'currentAffairs'
p6332
sI6331
S'arts'
p6333
sI6332
S'currentAffairs'
p6334
sI6333
S'currentAffairs'
p6335
sI6334
S'currentAffairs'
p6336
sI6335
S'currentAffairs'
p6337
sI6336
S'currentAffairs'
p6338
sI6337
S'currentAffairs'
p6339
sI6338
S'currentAffairs'
p6340
sI6339
S'currentAffairs'
p6341
sI6340
S'currentAffairs'
p6342
sI6341
S'currentAffairs'
p6343
sI6342
S'currentAffairs'
p6344
sI6343
S'currentAffairs'
p6345
sI6344
S'currentAffairs'
p6346
sI6345
S'currentAffairs'
p6347
sI6346
S'currentAffairs'
p6348
sI6347
S'currentAffairs'
p6349
sI6348
S'currentAffairs'
p6350
sI6349
S'currentAffairs'
p6351
sI6350
S'currentAffairs'
p6352
sI6351
S'sports'
p6353
sI6352
S'currentAffairs'
p6354
sI6353
S'arts'
p6355
sI6354
S'science'
p6356
sI6355
S'currentAffairs'
p6357
sI6356
S'science'
p6358
sI6357
S'business'
p6359
sI6358
S'business'
p6360
sI6359
S'sports'
p6361
sI6360
S'currentAffairs'
p6362
sI6361
S'sports'
p6363
sI6362
S'currentAffairs'
p6364
sI6363
S'currentAffairs'
p6365
sI6364
S'science'
p6366
sI6365
S'currentAffairs'
p6367
sI6366
S'currentAffairs'
p6368
sI6367
S'currentAffairs'
p6369
sI6368
S'currentAffairs'
p6370
sI6369
S'currentAffairs'
p6371
sI6370
S'currentAffairs'
p6372
sI6371
S'currentAffairs'
p6373
sI6372
S'sports'
p6374
sI6373
S'currentAffairs'
p6375
sI6374
S'sports'
p6376
sI6375
S'sports'
p6377
sI6376
S'currentAffairs'
p6378
sI6377
S'sports'
p6379
sI6378
S'currentAffairs'
p6380
sI6379
S'currentAffairs'
p6381
sI6380
S'sports'
p6382
sI6381
S'sports'
p6383
sI6382
S'currentAffairs'
p6384
sI6383
S'arts'
p6385
sI6384
S'sports'
p6386
sI6385
S'science'
p6387
sI6386
S'science'
p6388
sI6387
S'business'
p6389
sI6388
S'science'
p6390
sI6389
S'currentAffairs'
p6391
sI6390
S'currentAffairs'
p6392
sI6391
S'business'
p6393
sI6392
S'currentAffairs'
p6394
sI6393
S'business'
p6395
sI6394
S'sports'
p6396
sI6395
S'business'
p6397
sI6396
S'science'
p6398
sI6397
S'currentAffairs'
p6399
sI6398
S'science'
p6400
sI6399
S'science'
p6401
sI6400
S'sports'
p6402
sI6401
S'currentAffairs'
p6403
sI6402
S'currentAffairs'
p6404
sI6403
S'currentAffairs'
p6405
sI6404
S'currentAffairs'
p6406
sI6405
S'business'
p6407
sI6406
S'currentAffairs'
p6408
sI6407
S'business'
p6409
sI6408
S'currentAffairs'
p6410
sI6409
S'currentAffairs'
p6411
sI6410
S'science'
p6412
sI6411
S'currentAffairs'
p6413
sI6412
S'science'
p6414
sI6413
S'arts'
p6415
sI6414
S'science'
p6416
sI6415
S'currentAffairs'
p6417
sI6416
S'sports'
p6418
sI6417
S'science'
p6419
sI6418
S'currentAffairs'
p6420
sI6419
S'currentAffairs'
p6421
sI6420
S'currentAffairs'
p6422
sI6421
S'arts'
p6423
sI6422
S'currentAffairs'
p6424
sI6423
S'currentAffairs'
p6425
sI6424
S'currentAffairs'
p6426
sI6425
S'currentAffairs'
p6427
sI6426
S'currentAffairs'
p6428
sI6427
S'currentAffairs'
p6429
sI6428
S'science'
p6430
sI6429
S'currentAffairs'
p6431
sI6430
S'currentAffairs'
p6432
sI6431
S'arts'
p6433
sI6432
S'science'
p6434
sI6433
S'business'
p6435
sI6434
S'currentAffairs'
p6436
sI6435
S'science'
p6437
sI6436
S'currentAffairs'
p6438
sI6437
S'science'
p6439
sI6438
S'currentAffairs'
p6440
sI6439
S'business'
p6441
sI6440
S'science'
p6442
sI6441
S'arts'
p6443
sI6442
S'currentAffairs'
p6444
sI6443
S'sports'
p6445
sI6444
S'business'
p6446
sI6445
S'sports'
p6447
sI6446
S'currentAffairs'
p6448
sI6447
S'business'
p6449
sI6448
S'science'
p6450
sI6449
S'currentAffairs'
p6451
sI6450
S'business'
p6452
sI6451
S'science'
p6453
sI6452
S'currentAffairs'
p6454
sI6453
S'currentAffairs'
p6455
sI6454
S'business'
p6456
sI6455
S'science'
p6457
sI6456
S'business'
p6458
sI6457
S'currentAffairs'
p6459
sI6458
S'currentAffairs'
p6460
sI6459
S'science'
p6461
sI6460
S'currentAffairs'
p6462
sI6461
S'business'
p6463
sI6462
S'sports'
p6464
sI6463
S'sports'
p6465
sI6464
S'sports'
p6466
sI6465
S'sports'
p6467
sI6466
S'science'
p6468
sI6467
S'sports'
p6469
sI6468
S'currentAffairs'
p6470
sI6469
S'currentAffairs'
p6471
sI6470
S'science'
p6472
sI6471
S'currentAffairs'
p6473
sI6472
S'science'
p6474
sI6473
S'arts'
p6475
sI6474
S'arts'
p6476
sI6475
S'business'
p6477
sI6476
S'sports'
p6478
sI6477
S'sports'
p6479
sI6478
S'currentAffairs'
p6480
sI6479
S'business'
p6481
sI6480
S'business'
p6482
sI6481
S'currentAffairs'
p6483
sI6482
S'currentAffairs'
p6484
sI6483
S'arts'
p6485
sI6484
S'currentAffairs'
p6486
sI6485
S'currentAffairs'
p6487
sI6486
S'business'
p6488
sI6487
S'currentAffairs'
p6489
sI6488
S'arts'
p6490
sI6489
S'arts'
p6491
sI6490
S'business'
p6492
sI6491
S'arts'
p6493
sI6492
S'sports'
p6494
sI6493
S'currentAffairs'
p6495
sI6494
S'science'
p6496
sI6495
S'business'
p6497
sI6496
S'currentAffairs'
p6498
sI6497
S'science'
p6499
sI6498
S'arts'
p6500
sI6499
S'business'
p6501
sI6500
S'science'
p6502
sI6501
S'currentAffairs'
p6503
sI6502
S'business'
p6504
sI6503
S'currentAffairs'
p6505
sI6504
S'currentAffairs'
p6506
sI6505
S'arts'
p6507
sI6506
S'science'
p6508
sI6507
S'arts'
p6509
sI6508
S'currentAffairs'
p6510
sI6509
S'arts'
p6511
sI6510
S'currentAffairs'
p6512
sI6511
S'currentAffairs'
p6513
sI6512
S'business'
p6514
sI6513
S'currentAffairs'
p6515
sI6514
S'arts'
p6516
sI6515
S'science'
p6517
sI6516
S'business'
p6518
sI6517
S'science'
p6519
sI6518
S'currentAffairs'
p6520
sI6519
S'currentAffairs'
p6521
sI6520
S'currentAffairs'
p6522
sI6521
S'science'
p6523
sI6522
S'business'
p6524
sI6523
S'business'
p6525
sI6524
S'business'
p6526
sI6525
S'business'
p6527
sI6526
S'currentAffairs'
p6528
sI6527
S'currentAffairs'
p6529
sI6528
S'sports'
p6530
sI6529
S'arts'
p6531
sI6530
S'currentAffairs'
p6532
sI6531
S'currentAffairs'
p6533
sI6532
S'currentAffairs'
p6534
sI6533
S'currentAffairs'
p6535
sI6534
S'currentAffairs'
p6536
sI6535
S'currentAffairs'
p6537
sI6536
S'business'
p6538
sI6537
S'currentAffairs'
p6539
sI6538
S'business'
p6540
sI6539
S'arts'
p6541
sI6540
S'currentAffairs'
p6542
sI6541
S'arts'
p6543
sI6542
S'business'
p6544
sI6543
S'science'
p6545
sI6544
S'business'
p6546
sI6545
S'science'
p6547
sI6546
S'currentAffairs'
p6548
sI6547
S'arts'
p6549
sI6548
S'currentAffairs'
p6550
sI6549
S'sports'
p6551
sI6550
S'currentAffairs'
p6552
sI6551
S'arts'
p6553
sI6552
S'currentAffairs'
p6554
sI6553
S'currentAffairs'
p6555
sI6554
S'currentAffairs'
p6556
sI6555
S'arts'
p6557
sI6556
S'arts'
p6558
sI6557
S'science'
p6559
sI6558
S'currentAffairs'
p6560
sI6559
S'currentAffairs'
p6561
sI6560
S'science'
p6562
sI6561
S'currentAffairs'
p6563
sI6562
S'currentAffairs'
p6564
sI6563
S'currentAffairs'
p6565
sI6564
S'currentAffairs'
p6566
sI6565
S'currentAffairs'
p6567
sI6566
S'sports'
p6568
sI6567
S'arts'
p6569
sI6568
S'currentAffairs'
p6570
sI6569
S'arts'
p6571
sI6570
S'currentAffairs'
p6572
sI6571
S'currentAffairs'
p6573
sI6572
S'business'
p6574
sI6573
S'currentAffairs'
p6575
sI6574
S'currentAffairs'
p6576
sI6575
S'currentAffairs'
p6577
sI6576
S'currentAffairs'
p6578
sI6577
S'currentAffairs'
p6579
sI6578
S'currentAffairs'
p6580
sI6579
S'business'
p6581
sI6580
S'currentAffairs'
p6582
sI6581
S'arts'
p6583
sI6582
S'business'
p6584
sI6583
S'business'
p6585
sI6584
S'currentAffairs'
p6586
sI6585
S'currentAffairs'
p6587
sI6586
S'currentAffairs'
p6588
sI6587
S'currentAffairs'
p6589
sI6588
S'currentAffairs'
p6590
sI6589
S'sports'
p6591
sI6590
S'currentAffairs'
p6592
sI6591
S'currentAffairs'
p6593
sI6592
S'currentAffairs'
p6594
sI6593
S'currentAffairs'
p6595
sI6594
S'currentAffairs'
p6596
sI6595
S'business'
p6597
sI6596
S'sports'
p6598
sI6597
S'business'
p6599
sI6598
S'currentAffairs'
p6600
sI6599
S'arts'
p6601
sI6600
S'science'
p6602
sI6601
S'business'
p6603
sI6602
S'currentAffairs'
p6604
sI6603
S'currentAffairs'
p6605
sI6604
S'science'
p6606
sI6605
S'currentAffairs'
p6607
sI6606
S'sports'
p6608
sI6607
S'currentAffairs'
p6609
sI6608
S'currentAffairs'
p6610
sI6609
S'currentAffairs'
p6611
sI6610
S'business'
p6612
sI6611
S'currentAffairs'
p6613
sI6612
S'currentAffairs'
p6614
sI6613
S'currentAffairs'
p6615
sI6614
S'currentAffairs'
p6616
sI6615
S'currentAffairs'
p6617
sI6616
S'currentAffairs'
p6618
sI6617
S'business'
p6619
sI6618
S'business'
p6620
sI6619
S'business'
p6621
sI6620
S'business'
p6622
sI6621
S'currentAffairs'
p6623
sI6622
S'currentAffairs'
p6624
sI6623
S'currentAffairs'
p6625
sI6624
S'currentAffairs'
p6626
sI6625
S'currentAffairs'
p6627
sI6626
S'business'
p6628
sI6627
S'science'
p6629
sI6628
S'currentAffairs'
p6630
sI6629
S'currentAffairs'
p6631
sI6630
S'science'
p6632
sI6631
S'arts'
p6633
sI6632
S'arts'
p6634
sI6633
S'currentAffairs'
p6635
sI6634
S'arts'
p6636
sI6635
S'arts'
p6637
sI6636
S'arts'
p6638
sI6637
S'business'
p6639
sI6638
S'currentAffairs'
p6640
sI6639
S'currentAffairs'
p6641
sI6640
S'science'
p6642
sI6641
S'currentAffairs'
p6643
sI6642
S'sports'
p6644
sI6643
S'science'
p6645
sI6644
S'currentAffairs'
p6646
sI6645
S'currentAffairs'
p6647
sI6646
S'business'
p6648
sI6647
S'currentAffairs'
p6649
sI6648
S'science'
p6650
sI6649
S'currentAffairs'
p6651
sI6650
S'currentAffairs'
p6652
sI6651
S'currentAffairs'
p6653
sI6652
S'currentAffairs'
p6654
sI6653
S'currentAffairs'
p6655
sI6654
S'currentAffairs'
p6656
sI6655
S'currentAffairs'
p6657
sI6656
S'business'
p6658
sI6657
S'currentAffairs'
p6659
sI6658
S'currentAffairs'
p6660
sI6659
S'science'
p6661
sI6660
S'currentAffairs'
p6662
sI6661
S'currentAffairs'
p6663
sI6662
S'science'
p6664
sI6663
S'currentAffairs'
p6665
sI6664
S'currentAffairs'
p6666
sI6665
S'science'
p6667
sI6666
S'sports'
p6668
sI6667
S'science'
p6669
sI6668
S'sports'
p6670
sI6669
S'arts'
p6671
sI6670
S'arts'
p6672
sI6671
S'currentAffairs'
p6673
sI6672
S'science'
p6674
sI6673
S'currentAffairs'
p6675
sI6674
S'currentAffairs'
p6676
sI6675
S'business'
p6677
sI6676
S'currentAffairs'
p6678
sI6677
S'business'
p6679
sI6678
S'science'
p6680
sI6679
S'currentAffairs'
p6681
sI6680
S'science'
p6682
sI6681
S'currentAffairs'
p6683
sI6682
S'currentAffairs'
p6684
sI6683
S'currentAffairs'
p6685
sI6684
S'business'
p6686
sI6685
S'currentAffairs'
p6687
sI6686
S'sports'
p6688
sI6687
S'currentAffairs'
p6689
sI6688
S'business'
p6690
sI6689
S'currentAffairs'
p6691
sI6690
S'business'
p6692
sI6691
S'science'
p6693
sI6692
S'science'
p6694
sI6693
S'currentAffairs'
p6695
sI6694
S'sports'
p6696
sI6695
S'sports'
p6697
sI6696
S'currentAffairs'
p6698
sI6697
S'currentAffairs'
p6699
sI6698
S'sports'
p6700
sI6699
S'currentAffairs'
p6701
sI6700
S'arts'
p6702
sI6701
S'science'
p6703
sI6702
S'currentAffairs'
p6704
sI6703
S'arts'
p6705
sI6704
S'science'
p6706
sI6705
S'science'
p6707
sI6706
S'currentAffairs'
p6708
sI6707
S'sports'
p6709
sI6708
S'arts'
p6710
sI6709
S'sports'
p6711
sI6710
S'business'
p6712
sI6711
S'business'
p6713
sI6712
S'business'
p6714
sI6713
S'science'
p6715
sI6714
S'currentAffairs'
p6716
sI6715
S'business'
p6717
sI6716
S'currentAffairs'
p6718
sI6717
S'business'
p6719
sI6718
S'arts'
p6720
sI6719
S'currentAffairs'
p6721
sI6720
S'science'
p6722
sI6721
S'currentAffairs'
p6723
sI6722
S'currentAffairs'
p6724
sI6723
S'currentAffairs'
p6725
sI6724
S'currentAffairs'
p6726
sI6725
S'currentAffairs'
p6727
sI6726
S'business'
p6728
sI6727
S'currentAffairs'
p6729
sI6728
S'currentAffairs'
p6730
sI6729
S'business'
p6731
sI6730
S'business'
p6732
sI6731
S'arts'
p6733
sI6732
S'currentAffairs'
p6734
sI6733
S'currentAffairs'
p6735
sI6734
S'science'
p6736
sI6735
S'science'
p6737
sI6736
S'science'
p6738
sI6737
S'currentAffairs'
p6739
sI6738
S'currentAffairs'
p6740
sI6739
S'currentAffairs'
p6741
s.