(dp1
S'1pzcud9'
p2
I6629
sS'1lBfBS5'
p3
I25
sS'1iBHjgn'
p4
I6
sS'1oJIgE5'
p5
I559
sS'1qzYO0H'
p6
I15
sS'R5pZpv'
p7
I703
sS'1n6AWSW'
p8
I3309
sS'1nKk0Ec'
p9
I4077
sS'1oVFcEK'
p10
I114
sS'1glU1RP'
p11
I2735
sS'1hjlMot'
p12
I40
sS'1nWztho'
p13
I42
sS'1ptniNi'
p14
I5985
sS'1lwOgT6'
p15
I2486
sS'1nLjPd9'
p16
I4079
sS'1j6W4Iv'
p17
I7034
sS'1ho3WAG'
p18
I1660
sS'1lLiqQr'
p19
I53
sS'1lNybp8'
p20
I56
sS'1h5mCuX'
p21
I4080
sS'1p1JvhN'
p22
I57
sS'1jhFWip'
p23
I5647
sS'1kzyj9x'
p24
I4408
sS'162YC39'
p25
I6225
sS'1jqrHs5'
p26
I306
sS'1pgc64b'
p27
I6515
sS'1rsmLJx'
p28
I4412
sS'1gaPLEb'
p29
I312
sS'UsrZdy'
p30
I71
sS'1hU6BIA'
p31
I508
sS'1hwdHwX'
p32
I73
sS'Tm6V7u'
p33
I2031
sS'1tYVO1A'
p34
I79
sS'1kH2NJl'
p35
I4544
sS'1pzfjej'
p36
I1446
sS'1j1OOZL'
p37
I5602
sS'1gfMTGC'
p38
I7036
sS'1l8U98p'
p39
I3085
sS'UCkmkU'
p40
I4086
sS'1iBT7jY'
p41
I457
sS'1pDRntc'
p42
I91
sS'1qk3dqD'
p43
I7037
sS'1nQqxMt'
p44
I2721
sS'1k2DmSo'
p45
I4087
sS'1oflcxF'
p46
I93
sS'1qeyMlK'
p47
I5979
sS'1kYDYpU'
p48
I6227
sS'1kAZRdb'
p49
I3348
sS'1sWWxxU'
p50
I4088
sS'RowpAg'
p51
I96
sS'1pHV8f7'
p52
I4089
sS'RToASZ'
p53
I4090
sS'1qmO5Xe'
p54
I5236
sS'1nYbL4r'
p55
I3955
sS'UtSBuB'
p56
I94
sS'Lyg3eA'
p57
I103
sS'1o0nCSU'
p58
I2745
sS'1oODd65'
p59
I499
sS'TzP0Le'
p60
I4093
sS'1iT6S7X'
p61
I113
sS'1qWYrPI'
p62
I5860
sS'UHHfmY'
p63
I584
sS'YtPP9E'
p64
I115
sS'1lGhJcD'
p65
I5168
sS'1hw5OYd'
p66
I4094
sS'1grmt4n'
p67
I6229
sS'1hiipEa'
p68
I127
sS'1qwhUGI'
p69
I5821
sS'1jBgSEo'
p70
I2007
sS'1kf7muy'
p71
I5702
sS'1qh5ENH'
p72
I129
sS'1sWA300'
p73
I6222
sS'1psWYj1'
p74
I130
sS'1o51RQu'
p75
I131
sS'1s7vTEI'
p76
I4096
sS'1jtvVVv'
p77
I133
sS'1o7ZAp7'
p78
I6231
sS'1nWQb4N'
p79
I146
sS'1hswd9m'
p80
I5909
sS'1nYWfW4'
p81
I4567
sS'SB6jdO'
p82
I206
sS'1l48Ecv'
p83
I1655
sS'1jygWE4'
p84
I147
sS'1ioGOsb'
p85
I148
sS'1nYCP5o'
p86
I157
sS'1nVSBhA'
p87
I2077
sS'1hVQavk'
p88
I4097
sS'1hDE2cm'
p89
I6713
sS'1dStp9m'
p90
I4098
sS'1kJWHUy'
p91
I6232
sS'1q8l99G'
p92
I175
sS'1jhuZO1'
p93
I176
sS'1ns7k1D'
p94
I3810
sS'1iL26yv'
p95
I181
sS'UVXpcx'
p96
I7040
sS'StPvF4'
p97
I5450
sS'RLxh1z'
p98
I3452
sS'STzcTl'
p99
I183
sS'1nZMrMG'
p100
I111
sS'1hirjMe'
p101
I222
sS'1ozAKyi'
p102
I1451
sS'R8YsUm'
p103
I230
sS'1kKzzdk'
p104
I1991
sS'1sCPJXY'
p105
I788
sS'1ncm9JL'
p106
I244
sS'1oMYNLL'
p107
I342
sS'1nYIqbR'
p108
I1926
sS'1nYHLsL'
p109
I874
sS'1oDF9gP'
p110
I4103
sS'1ixC91M'
p111
I228
sS'1pFP7Q1'
p112
I3206
sS'1kG2cHQ'
p113
I6234
sS'19lGf8'
p114
I6235
sS'1kUvgw5'
p115
I2800
sS'1mljOtQ'
p116
I250
sS'1lRgypD'
p117
I251
sS'1iRBXxW'
p118
I4104
sS'1ot0oFn'
p119
I947
sS'1mXrD6t'
p120
I3559
sS'1ploIce'
p121
I662
sS'1sUpOLi'
p122
I268
sS'1kJuT4l'
p123
I4105
sS'1g3hYaz'
p124
I676
sS'1jwKHdc'
p125
I269
sS'1jRydZ5'
p126
I1063
sS'1g03k9A'
p127
I4593
sS'1kQ7b6z'
p128
I6321
sS'1roqDyW'
p129
I579
sS'Svxq9Y'
p130
I6778
sS'1huYwEy'
p131
I6324
sS'1jnOrZO'
p132
I4109
sS'U8a0sN'
p133
I307
sS'1mp4Hyf'
p134
I6796
sS'1pUb6F6'
p135
I308
sS'UOfucq'
p136
I6238
sS'Ul0AKG'
p137
I6165
sS'1nc5SRJ'
p138
I4193
sS'ROe7bw'
p139
I4603
sS'1hiyjhV'
p140
I311
sS'1hIuujL'
p141
I5124
sS'1lc8T5r'
p142
I6008
sS'1nSv5jo'
p143
I6827
sS'1iYZ9We'
p144
I461
sS'1khXVWU'
p145
I3151
sS'1qmkp0V'
p146
I5463
sS'1iiIMZ4'
p147
I4110
sS'1pamVUi'
p148
I6239
sS'1dnYbF9'
p149
I2634
sS'TEZaJY'
p150
I3568
sS'1kIAivD'
p151
I4112
sS'1mcnGNF'
p152
I3133
sS'1sCT8pF'
p153
I318
sS'RzlNOE'
p154
I2562
sS'1l1l6KY'
p155
I3055
sS'1o4GbCj'
p156
I4113
sS'1p5zU9J'
p157
I5646
sS'1jyMPSs'
p158
I4610
sS'Tn2Dx7'
p159
I908
sS'1fa5IY7'
p160
I6767
sS'1hapzou'
p161
I6075
sS'1rRVnmS'
p162
I6241
sS'Tsgz8o'
p163
I153
sS'1mvwjoA'
p164
I322
sS'1nSj79B'
p165
I377
sS'1fUXSVq'
p166
I378
sS'1kzxQY5'
p167
I379
sS'1hiLRdp'
p168
I4181
sS'1gySBDb'
p169
I4115
sS'1pdI2oK'
p170
I380
sS'UJthB6'
p171
I6360
sS'1oXsVD4'
p172
I984
sS'QBsMGc'
p173
I381
sS'SObDdX'
p174
I6701
sS'1iHkfxO'
p175
I389
sS'1sOeb8S'
p176
I6552
sS'1kZ7Vb7'
p177
I3580
sS'1mIksDN'
p178
I772
sS'1ngD3oh'
p179
I933
sS'WgC4nq'
p180
I4117
sS'1fI6Cyf'
p181
I4101
sS'TBS5Kj'
p182
I6976
sS'1ot78Dh'
p183
I1630
sS'V5GJiV'
p184
I406
sS'1kvY1ig'
p185
I411
sS'1poKOLa'
p186
I2370
sS'1jxnhjg'
p187
I1957
sS'1ezjoMm'
p188
I412
sS'1nW8gxl'
p189
I2904
sS'1mJxpIK'
p190
I3406
sS'R5xjSj'
p191
I272
sS'1mLjDFy'
p192
I4118
sS'1pWemQS'
p193
I6635
sS'1iYz26z'
p194
I2232
sS'1krH8lP'
p195
I4972
sS'1nZkhoe'
p196
I2565
sS'1jCKzEj'
p197
I3645
sS'1jCKzEm'
p198
I4120
sS'1qQXIzw'
p199
I1872
sS'1jCKzEq'
p200
I6367
sS'1gyZJtR'
p201
I3902
sS'1rnbABH'
p202
I4121
sS'1p69vJ3'
p203
I422
sS'1nUqZs7'
p204
I2752
sS'1tX5aJ7'
p205
I4122
sS'1mbJZSm'
p206
I3619
sS'1pb7jDs'
p207
I6372
sS'1kDKrYH'
p208
I424
sS'1iZN0oF'
p209
I4123
sS'1maK6Pg'
p210
I2502
sS'1kU8KDk'
p211
I4859
sS'1hBpyK7'
p212
I4124
sS'Q8PTZ5'
p213
I5213
sS'1jSVdfS'
p214
I2054
sS'1hMtgXf'
p215
I426
sS'1nuMOSe'
p216
I1066
sS'1i5NWHo'
p217
I6247
sS'1nRzRxN'
p218
I7050
sS'1nNan4Q'
p219
I5205
sS'1vhmxVN'
p220
I4125
sS'1pSnHEt'
p221
I5327
sS'UEO098'
p222
I448
sS'1o7HlhW'
p223
I1523
sS'1jwbo1G'
p224
I5941
sS'1wrg6CY'
p225
I5408
sS'V7qr98'
p226
I3695
sS'1u6WT8l'
p227
I5488
sS'1puPufp'
p228
I493
sS'1l0aJD2'
p229
I4127
sS'1lMGgKR'
p230
I494
sS'1hQK8Ld'
p231
I5209
sS'1m8gpu4'
p232
I357
sS'1nhvGw6'
p233
I326
sS'1l7rP2r'
p234
I5210
sS'UTIf7A'
p235
I6220
sS'TwIfIZ'
p236
I750
sS'1kJfrqT'
p237
I5132
sS'UBEmE6'
p238
I5973
sS'1jReZCK'
p239
I2039
sS'1pdHaAq'
p240
I4131
sS'1tCXxrj'
p241
I504
sS'1oAW0UA'
p242
I6004
sS'1nZoJCz'
p243
I505
sS'1pm8XCo'
p244
I506
sS'1mdQPXw'
p245
I99
sS'VrSFf5'
p246
I4132
sS'1kmYuD8'
p247
I478
sS'1mByNyI'
p248
I659
sS'1mRL2rI'
p249
I679
sS'1o6XVx4'
p250
I592
sS'1kUVvT6'
p251
I3295
sS'1hElmPF'
p252
I435
sS'1omcUXa'
p253
I3259
sS'1oUI7NS'
p254
I6013
sS'1ekRfL3'
p255
I524
sS'TDbevU'
p256
I525
sS'RI0MRH'
p257
I2387
sS'1nVvLon'
p258
I607
sS'UuIdTo'
p259
I4134
sS'1yZv8kO'
p260
I6248
sS'1iNqqAE'
p261
I526
sS'1qoJwQJ'
p262
I1694
sS'1jacF9g'
p263
I1572
sS'1lFK2Wf'
p264
I7051
sS'1glu1WI'
p265
I2759
sS'1ntDb1V'
p266
I529
sS'1tEBf8s'
p267
I152
sS'1ivBJhT'
p268
I108
sS'1jhqtF1'
p269
I6249
sS'1oAjk1v'
p270
I3728
sS'Tw3ADi'
p271
I1956
sS'1uL1QEn'
p272
I1547
sS'1mpzhaW'
p273
I536
sS'1kjHzkO'
p274
I4135
sS'1hS1Hpx'
p275
I6164
sS'1iCPLrc'
p276
I4903
sS'1n8TBME'
p277
I59
sS'1h10UCG'
p278
I6832
sS'1sPVB0b'
p279
I6201
sS'1gQd7di'
p280
I538
sS'1lwo2KF'
p281
I5590
sS'1mRP29I'
p282
I5266
sS'1kx7upy'
p283
I2714
sS'1sMzANP'
p284
I540
sS'SnXB2w'
p285
I5032
sS'1fHMCps'
p286
I542
sS'1hnUaPo'
p287
I456
sS'1mr3G5n'
p288
I2258
sS'1xYOCp0'
p289
I7054
sS'1kMitbT'
p290
I543
sS'1jkg2AK'
p291
I552
sS'1lVTkLe'
p292
I553
sS'1pEWV3K'
p293
I6256
sS'1jKG6iZ'
p294
I6257
sS'1sStPQE'
p295
I554
sS'1oytaEc'
p296
I4145
sS'1mdgwGd'
p297
I5527
sS'QNtAbe'
p298
I5755
sS'1pMcirm'
p299
I4684
sS'1kHaTCv'
p300
I2772
sS'1njts1l'
p301
I7055
sS'1jEnpmt'
p302
I4146
sS'1mtbN32'
p303
I4147
sS'1q8TXWn'
p304
I6258
sS'RLHGdF'
p305
I569
sS'1nSbC2i'
p306
I573
sS'1hUDEqo'
p307
I639
sS'1m52XtI'
p308
I998
sS'1pEGSmR'
p309
I5335
sS'1kC2638'
p310
I575
sS'1klHXuT'
p311
I7056
sS'1heWcRR'
p312
I576
sS'1gxcNW6'
p313
I928
sS'1vhLZxi'
p314
I578
sS'1o7JOZK'
p315
I4153
sS'1m1C5e7'
p316
I4429
sS'1qeFJTN'
p317
I3772
sS'1kwDxmw'
p318
I4154
sS'1ic3JQk'
p319
I310
sS'1gvJOlN'
p320
I581
sS'1o4JACT'
p321
I1480
sS'1mbGpYg'
p322
I1481
sS'1oaHm6s'
p323
I1845
sS'1jMQYm9'
p324
I6260
sS'1kno0bm'
p325
I6979
sS'1hd0PiJ'
p326
I4169
sS'16JARdZ'
p327
I6261
sS'1jjyogt'
p328
I2547
sS'1ickj7r'
p329
I6262
sS'1hdXmjI'
p330
I6263
sS'1nACS9Q'
p331
I2482
sS'1jykkyN'
p332
I4170
sS'1hgSVBq'
p333
I602
sS'1iTBIlU'
p334
I1534
sS'1uIaNy8'
p335
I3850
sS'1oZCotE'
p336
I968
sS'1qEQ8s5'
p337
I224
sS'1ga1nBX'
p338
I2655
sS'1k5hdnW'
p339
I399
sS'1nYgovm'
p340
I605
sS'1kkxnnK'
p341
I5525
sS'1g2xjxs'
p342
I647
sS'1jEpGOw'
p343
I5989
sS'RfAB4G'
p344
I608
sS'1oLYWy6'
p345
I4431
sS'1oToo14'
p346
I4921
sS'1mvsRas'
p347
I1887
sS'1ntVw07'
p348
I609
sS'1nGg1HE'
p349
I6771
sS'1pSYWxj'
p350
I4706
sS'1hbBtE1'
p351
I4173
sS'1nglKTo'
p352
I612
sS'1ijX5bY'
p353
I613
sS'SNgT1o'
p354
I615
sS'1qjPFOy'
p355
I4175
sS'1odA9Q5'
p356
I3797
sS'UowvKb'
p357
I6194
sS'1fSlKsZ'
p358
I616
sS'TunQ8x'
p359
I434
sS'1gjHw9j'
p360
I3131
sS'MR0Z3t'
p361
I4177
sS'1rvt7I1'
p362
I123
sS'1nWdkQ6'
p363
I617
sS'1ttohfE'
p364
I4993
sS'1pT5ew1'
p365
I620
sS'1oxJKE8'
p366
I797
sS'1oOucMp'
p367
I621
sS'1pULFBb'
p368
I5862
sS'1nPXGa1'
p369
I5407
sS'1sX2kFx'
p370
I4719
sS'1fKAmu0'
p371
I4179
sS'1yHHuxF'
p372
I3103
sS'To33Ua'
p373
I622
sS'1oBD0p0'
p374
I630
sS'1qfAsLI'
p375
I4180
sS'1pPh339'
p376
I635
sS'1o6FABh'
p377
I415
sS'1pBIrTW'
p378
I1075
sS'1vua6Jf'
p379
I6406
sS'1mMj91Y'
p380
I636
sS'1howvhL'
p381
I6268
sS'1h0X1O4'
p382
I640
sS'1nNTtkC'
p383
I642
sS'1jM33Gw'
p384
I5731
sS'1k7b9cQ'
p385
I644
sS'1ktr1m7'
p386
I3648
sS'1pb5rXN'
p387
I7060
sS'1iYAINw'
p388
I2737
sS'1nTRIVE'
p389
I4182
sS'1hmS7es'
p390
I2693
sS'1iPMyF1'
p391
I649
sS'1v6kRQQ'
p392
I436
sS'1pdSLQa'
p393
I650
sS'1l31HIJ'
p394
I4183
sS'1mSsR2O'
p395
I6270
sS'UoXC7Z'
p396
I651
sS'16pDTth'
p397
I961
sS'1kIK9yp'
p398
I4184
sS'1jwuA0d'
p399
I661
sS'1pvY0h7'
p400
I1554
sS'SlPUtC'
p401
I7249
sS'TtTz9G'
p402
I7061
sS'1idI52S'
p403
I2080
sS'Tgo1mW'
p404
I664
sS'1pglrv3'
p405
I665
sS'1pDlVeZ'
p406
I6517
sS'1nZpBp7'
p407
I1653
sS'S7pBY3'
p408
I4186
sS'1oeaD02'
p409
I666
sS'1h5pmCV'
p410
I4187
sS'1uHRJit'
p411
I1278
sS'1gwfOG7'
p412
I4188
sS'1h0wssq'
p413
I5562
sS'1paV72f'
p414
I670
sS'1qC0r3l'
p415
I4189
sS'1nJKFhi'
p416
I1785
sS'1n9edWt'
p417
I4870
sS'1jMFQ34'
p418
I4440
sS'1lie4Ri'
p419
I672
sS'1ggTGze'
p420
I673
sS'1lzqS53'
p421
I4192
sS'1kChga5'
p422
I758
sS'1kYwLuH'
p423
I5309
sS'1q54FNs'
p424
I674
sS'UUepjk'
p425
I6273
sS'Tuj3mV'
p426
I7062
sS'1jgtX5X'
p427
I6274
sS'1jerei7'
p428
I366
sS'UJ4hdd'
p429
I7039
sS'1pB6rbg'
p430
I1819
sS'1o8QSqq'
p431
I681
sS'1dxrncs'
p432
I7063
sS'TyiuID'
p433
I1703
sS'1g50t9O'
p434
I683
sS'1lXB2KT'
p435
I6665
sS'1pHJGlQ'
p436
I3490
sS'SyiYhL'
p437
I685
sS'1jXuZTN'
p438
I686
sS'1q1vmls'
p439
I4194
sS'1knelgu'
p440
I1385
sS'1qHhmR6'
p441
I198
sS'1wdtryz'
p442
I4758
sS'1nRkzsF'
p443
I6862
sS'1jepFzO'
p444
I690
sS'1goWaM3'
p445
I691
sS'1kPmOJG'
p446
I2259
sS'1sFL6MJ'
p447
I2725
sS'1iRPTbc'
p448
I2141
sS'1ktbTXW'
p449
I5321
sS'1poqOsM'
p450
I693
sS'1nBNSPY'
p451
I694
sS'1nHZqFI'
p452
I4197
sS'1vjI1En'
p453
I5041
sS'1fTAVSm'
p454
I4643
sS'1pYnHqX'
p455
I1797
sS'1m74Feb'
p456
I1535
sS'1mVvOQ8'
p457
I4199
sS'1kK9HcT'
p458
I7
sS'1puK0C8'
p459
I21
sS'1oLfhzG'
p460
I697
sS'1kW9t3P'
p461
I5995
sS'1ms2m5n'
p462
I5121
sS'1oynev2'
p463
I1476
sS'TmSFMo'
p464
I698
sS'1jHN4oY'
p465
I699
sS'1mAx5fc'
p466
I6276
sS'1o0i7DI'
p467
I3560
sS'1vSGaXg'
p468
I1238
sS'1mRGov3'
p469
I700
sS'T8k7Ni'
p470
I638
sS'1lLpokQ'
p471
I216
sS'1jdW6L4'
p472
I11
sS'1uhoSBu'
p473
I6113
sS'1kYIKYC'
p474
I793
sS'1mjsTAB'
p475
I4536
sS'1jMCYmP'
p476
I3977
sS'1ywMPb4'
p477
I1723
sS'1jaZ0iI'
p478
I1616
sS'1p5kwgM'
p479
I720
sS'RWdE7y'
p480
I2749
sS'1jt1jT0'
p481
I4540
sS'Tt6CHO'
p482
I721
sS'1gC7uES'
p483
I5093
sS'1pXT595'
p484
I722
sS'1lYx9as'
p485
I7071
sS'1k1I92k'
p486
I2364
sS'1gkKoCF'
p487
I4286
sS'1phBJAH'
p488
I3225
sS'1kxFvGz'
p489
I799
sS'1mTz12y'
p490
I6279
sS'1goSkTi'
p491
I725
sS'1qk1CTR'
p492
I4332
sS'So4zoj'
p493
I7276
sS'1mS89jr'
p494
I35
sS'RWLgLM'
p495
I7066
sS'TqfRbU'
p496
I1764
sS'1jLgzfb'
p497
I4202
sS'1ijyfwy'
p498
I4203
sS'1jl2y1W'
p499
I6281
sS'Tbdz0j'
p500
I996
sS'1kXD8g9'
p501
I731
sS'1kJMR9N'
p502
I6282
sS'1lpK59r'
p503
I733
sS'1geMWCz'
p504
I6762
sS'1gSYy8M'
p505
I3410
sS'1feKTaj'
p506
I1329
sS'1pRZC2c'
p507
I4208
sS'1laTHCq'
p508
I734
sS'1i0dWji'
p509
I5133
sS'1qqrEVM'
p510
I2036
sS'1dN9Rn0'
p511
I4205
sS'1mafooj'
p512
I3809
sS'1jSWKmc'
p513
I5059
sS'1qttwux'
p514
I371
sS'1mYjQ8C'
p515
I6284
sS'1xQdK1b'
p516
I1948
sS'1hRNc58'
p517
I4562
sS'1jLUDk2'
p518
I597
sS'RizYr4'
p519
I7213
sS'1nV40fE'
p520
I6285
sS'1mI2VdI'
p521
I740
sS'1tlgcb2'
p522
I3632
sS'14IClID'
p523
I4207
sS'1kUPANI'
p524
I2793
sS'1h1egii'
p525
I741
sS'1jzaoZ4'
p526
I742
sS'1pN1ycq'
p527
I743
sS'1rP4Qgy'
p528
I4763
sS'1lRKRrE'
p529
I4209
sS'1lcn5eF'
p530
I4210
sS'1hfrU18'
p531
I5981
sS'1gh9TEF'
p532
I2424
sS'1krCjfc'
p533
I2173
sS'1pwswoU'
p534
I6203
sS'1o16x7Z'
p535
I1730
sS'1jUBz30'
p536
I4572
sS'RkJjPI'
p537
I1088
sS'1h2zsEH'
p538
I4213
sS'1gS7LU8'
p539
I765
sS'1pkDEsx'
p540
I6409
sS'1oZzMZr'
p541
I766
sS'KZBFUp'
p542
I5792
sS'1obvH7p'
p543
I6288
sS'1nQVwYB'
p544
I941
sS'1ptmIir'
p545
I6289
sS'1kBGsxs'
p546
I767
sS'1h1J3Ba'
p547
I768
sS'1tsEtvG'
p548
I2088
sS'1nu1xge'
p549
I4216
sS'1jF5JpX'
p550
I4578
sS'1jtY1eF'
p551
I6290
sS'1gXshxk'
p552
I2728
sS'1oo3PND'
p553
I465
sS'1pvnzMf'
p554
I6633
sS'1kTUavC'
p555
I4219
sS'1nUkrZs'
p556
I4237
sS'1nHQNLl'
p557
I7077
sS'1t3h6bX'
p558
I1543
sS'1oOVMWW'
p559
I6292
sS'1igtEHY'
p560
I4588
sS'1kuMQGz'
p561
I778
sS'UJhNNS'
p562
I779
sS'1nBGaIY'
p563
I2350
sS'1ngtQeX'
p564
I785
sS'1qwgcrF'
p565
I6293
sS'1mQI5p3'
p566
I7078
sS'1rPCVNA'
p567
I976
sS'SHXdfh'
p568
I3513
sS'1pBaZeq'
p569
I5457
sS'1gh1uLQ'
p570
I6294
sS'1ld7paY'
p571
I1954
sS'1l2bSIq'
p572
I1732
sS'1hYFEMJ'
p573
I4221
sS'1yatw7a'
p574
I155
sS'1j28vjQ'
p575
I1966
sS'QNR682'
p576
I563
sS'1mV2IFj'
p577
I787
sS'1h4ksGp'
p578
I3370
sS'1mHOhTJ'
p579
I5183
sS'1juomZX'
p580
I824
sS'1lyee4p'
p581
I5165
sS'1vL2J0a'
p582
I1710
sS'1kzZt0l'
p583
I825
sS'1sGoX4i'
p584
I5520
sS'TpOT1b'
p585
I826
sS'SVOLti'
p586
I3104
sS'1rhaqLF'
p587
I1218
sS'1qkyRo2'
p588
I6785
sS'1lSfNMV'
p589
I6988
sS'1kU68ph'
p590
I839
sS'1hFxzxW'
p591
I840
sS'1pfVGI6'
p592
I4223
sS'1jwm3cs'
p593
I2356
sS'1tEbHII'
p594
I4224
sS'1jDKeAU'
p595
I6296
sS'1jbpXCY'
p596
I3385
sS'TjvEZy'
p597
I841
sS'1i5K6xz'
p598
I842
sS'1pjv5uE'
p599
I6984
sS'1jpKYQ4'
p600
I5567
sS'1ouJ9UG'
p601
I5260
sS'TtHmkR'
p602
I7079
sS'1jTXxmU'
p603
I4225
sS'1oH3wdu'
p604
I7080
sS'1jOC9tH'
p605
I238
sS'1hcldgv'
p606
I6297
sS'1lmLu1l'
p607
I428
sS'1hczwl3'
p608
I6233
sS'1gf26HH'
p609
I1860
sS'1gwt2CL'
p610
I3392
sS'1j8NMfH'
p611
I4995
sS'1lSv13o'
p612
I6298
sS'1pbXlzj'
p613
I848
sS'1pCzNCX'
p614
I2626
sS'1lvLYlG'
p615
I1079
sS'1hZWPyN'
p616
I4570
sS'1mlWEi7'
p617
I2778
sS'1jvsA48'
p618
I4228
sS'1hvQcXP'
p619
I2780
sS'1hp4OVQ'
p620
I849
sS'1kOrUdY'
p621
I3655
sS'1m6H7Gk'
p622
I5089
sS'1vavF0o'
p623
I808
sS'1joNEvz'
p624
I4229
sS'1meU976'
p625
I4230
sS'1n9WvW4'
p626
I854
sS'UIykSl'
p627
I1981
sS'1kKne48'
p628
I1010
sS'1gTewzJ'
p629
I2719
sS'SjCU88'
p630
I1285
sS'VlZvCD'
p631
I1494
sS'1npYIdF'
p632
I4615
sS'1hyhcrj'
p633
I861
sS'1r6GYac'
p634
I4231
sS'1q2WyAy'
p635
I2376
sS'UGfQlj'
p636
I862
sS'1pPCCSa'
p637
I6799
sS'Uni2hr'
p638
I6200
sS'1pJ37eo'
p639
I2032
sS'1jPefOG'
p640
I863
sS'TvKJIN'
p641
I6306
sS'1g1ZRY2'
p642
I3821
sS'1l1tTvG'
p643
I864
sS'1kl5ptK'
p644
I7042
sS'1q5PJkz'
p645
I1801
sS'SjFpqY'
p646
I868
sS'1pt9d32'
p647
I4232
sS'1l3305T'
p648
I2223
sS'1ntHBqp'
p649
I4233
sS'1lgAm38'
p650
I5187
sS'1k33Lgk'
p651
I7083
sS'1kF1gB6'
p652
I871
sS'1ktfhQz'
p653
I872
sS'1khCV2J'
p654
I4238
sS'1yeSGBF'
p655
I185
sS'1jhjCWy'
p656
I4239
sS'TaNjmL'
p657
I6390
sS'1jb1gLC'
p658
I5976
sS'1jui9B5'
p659
I877
sS'1mxh3Tl'
p660
I54
sS'1ispwUg'
p661
I7082
sS'JCbUX4'
p662
I880
sS'1k8R3ia'
p663
I5197
sS'1nO0zqY'
p664
I881
sS'1hkBnV3'
p665
I882
sS'1ocUUyt'
p666
I883
sS'V3Ptpj'
p667
I995
sS'1lGCovR'
p668
I1766
sS'1hbTEnu'
p669
I3852
sS'1pjLgKN'
p670
I4244
sS'1jaHPDC'
p671
I122
sS'1qflntJ'
p672
I1662
sS'1tHfQLY'
p673
I223
sS'1hcXiDi'
p674
I5565
sS'1mdmh8o'
p675
I6050
sS'1k3Fvut'
p676
I911
sS'1m7XNKI'
p677
I169
sS'us78jd'
p678
I912
sS'1msfupX'
p679
I6308
sS'1puGFlK'
p680
I2934
sS'SDtROZ'
p681
I1261
sS'UiCK23'
p682
I919
sS'Ulzpz8'
p683
I3222
sS'1kjRCqm'
p684
I572
sS'1r7B0WO'
p685
I4249
sS'V3z0lu'
p686
I6312
sS'1hjdsuO'
p687
I5411
sS'1fWadmY'
p688
I4335
sS'1nhONIF'
p689
I5344
sS'1v2TtRL'
p690
I4067
sS'SIkgXo'
p691
I921
sS'ULm2bV'
p692
I6313
sS'1lwgxmQ'
p693
I4250
sS'1oE1azf'
p694
I199
sS'1kWTsOl'
p695
I4251
sS'U0VPpb'
p696
I5795
sS'1qcgxzY'
p697
I922
sS'1h9WhX0'
p698
I4166
sS'1jG35jz'
p699
I3649
sS'1jo1evs'
p700
I2970
sS'1hkbRxQ'
p701
I923
sS'1fQhhoS'
p702
I924
sS'1oDepAk'
p703
I794
sS'1jpJJPT'
p704
I6315
sS'1jv7t0q'
p705
I4253
sS'1nZEJRq'
p706
I935
sS'1ggpRiR'
p707
I6541
sS'1lEItch'
p708
I2606
sS'1hsXb0Q'
p709
I2545
sS'1mvmp32'
p710
I1147
sS'1ggDB7C'
p711
I4155
sS'Q6m7n8'
p712
I4254
sS'UoXNQq'
p713
I5495
sS'1ppiQ22'
p714
I2378
sS'UioA0Q'
p715
I937
sS'1kYBtlY'
p716
I4375
sS'1ji3WrO'
p717
I4255
sS'1tJPZ5Z'
p718
I938
sS'1grRuoL'
p719
I3073
sS'1pBovyL'
p720
I6788
sS'1mXt8kW'
p721
I1614
sS'1hqB5Mb'
p722
I2716
sS'RweIPv'
p723
I6418
sS'1qFIX57'
p724
I6379
sS'SOOqbo'
p725
I948
sS'1l805O0'
p726
I6319
sS'1monFUn'
p727
I6320
sS'1jdNjHV'
p728
I6240
sS'1fptlPq'
p729
I5233
sS'1lp3HLJ'
p730
I4257
sS'1qwbMRy'
p731
I949
sS'1lV3xc7'
p732
I263
sS'1lctwtZ'
p733
I500
sS'1g1EiXZ'
p734
I4260
sS'1locTja'
p735
I1041
sS'1q6jxxu'
p736
I4499
sS'1sMOUfh'
p737
I1042
sS'UEsaCK'
p738
I1043
sS'1k13Q2c'
p739
I6114
sS'1pe4um5'
p740
I1294
sS'1h63APv'
p741
I1647
sS'1qhcRu2'
p742
I3481
sS'1gaQzsE'
p743
I1049
sS'1mnpNcV'
p744
I7086
sS'1lUApAd'
p745
I6265
sS'1odxg4H'
p746
I1639
sS'1i3xnJ4'
p747
I2109
sS'1gBw7RZ'
p748
I717
sS'1iO2ImP'
p749
I4262
sS'1jWAu5c'
p750
I3074
sS'1oF6tfk'
p751
I168
sS'1j2kAqX'
p752
I5847
sS'1gaQLIl'
p753
I4263
sS'1hl03Ta'
p754
I4264
sS'1pm8q3m'
p755
I3738
sS'1qJl8tf'
p756
I2859
sS'1kSdGbX'
p757
I2291
sS'SsAymG'
p758
I5514
sS'SAHU87'
p759
I6253
sS'1gFlIog'
p760
I398
sS'1kMYGJb'
p761
I3317
sS'1k4kbZI'
p762
I345
sS'1nvfJkT'
p763
I7087
sS'1mzoUBq'
p764
I3417
sS'1pbejxu'
p765
I858
sS'1hl03T8'
p766
I3621
sS'1tANrHq'
p767
I6006
sS'SjsSDE'
p768
I119
sS'1oZBZYd'
p769
I3059
sS'1nBcYCJ'
p770
I1074
sS'1jIYihx'
p771
I4992
sS'1m5fldf'
p772
I1779
sS'1it9tHf'
p773
I6264
sS'1kNp4me'
p774
I4267
sS'1pCpQFx'
p775
I2616
sS'Q4xrjG'
p776
I3145
sS'1ntX0qL'
p777
I3764
sS'1uEiNzn'
p778
I643
sS'1idzKyE'
p779
I6524
sS'1gXjLhX'
p780
I1080
sS'1glb2ev'
p781
I4270
sS'1lL8wOp'
p782
I328
sS'1qyU8wq'
p783
I1085
sS'1pDzdIc'
p784
I2834
sS'1kNrT9s'
p785
I69
sS'1vovCz1'
p786
I184
sS'1lJc2d4'
p787
I1086
sS'RmHGkk'
p788
I1087
sS'SR7yFA'
p789
I818
sS'1tuYXE7'
p790
I653
sS'1sP5j2Q'
p791
I1268
sS'1pKrpBy'
p792
I1456
sS'TbHmpv'
p793
I4271
sS'1sGoETL'
p794
I2018
sS'1hrNsLe'
p795
I1096
sS'SCjRpa'
p796
I1117
sS'1qmi17x'
p797
I1097
sS'1iNcO2G'
p798
I7074
sS'1paXFRf'
p799
I6756
sS'1h68Is7'
p800
I2113
sS'SPLMTe'
p801
I1745
sS'1n40xPT'
p802
I4273
sS'1hVqdFV'
p803
I4274
sS'1pM9gpZ'
p804
I330
sS'1kWPuW2'
p805
I1679
sS'1jna8Jo'
p806
I36
sS'1uWdnAA'
p807
I4699
sS'1vUUL3D'
p808
I7052
sS'1geAKBF'
p809
I4275
sS'1pF08QR'
p810
I1099
sS'1q4EwBx'
p811
I4276
sS'1qoVf1y'
p812
I3922
sS'1jym9f7'
p813
I4277
sS'1mxg8Fo'
p814
I3609
sS'1kxYvok'
p815
I1100
sS'1iY5ciA'
p816
I4279
sS'1mbAsLb'
p817
I1101
sS'1mUIGe6'
p818
I6323
sS'1gooXk6'
p819
I7090
sS'1sqR8E9'
p820
I5279
sS'RAY40S'
p821
I319
sS'SOc5bM'
p822
I4280
sS'1qu26Vr'
p823
I727
sS'RftXMv'
p824
I6760
sS'1pDyaIc'
p825
I316
sS'1mROYq0'
p826
I6325
sS'1nV4TGO'
p827
I2205
sS'UEFJSs'
p828
I6782
sS'1tAqrZ3'
p829
I6327
sS'1eWTPXZ'
p830
I5288
sS'RIB6od'
p831
I4282
sS'1kurbOR'
p832
I713
sS'1kXrf5I'
p833
I3150
sS'1oSy38g'
p834
I749
sS'1hxibSO'
p835
I1121
sS'1kYNjfR'
p836
I7091
sS'1k95gfE'
p837
I1
sS'1pNhXAi'
p838
I1410
sS'1p6sDXe'
p839
I1122
sS'1hvM6iG'
p840
I6329
sS'UiHPr0'
p841
I3871
sS'1okktuo'
p842
I3
sS'1gjJOoV'
p843
I1600
sS'1oWwVE2'
p844
I1128
sS'1pkkVci'
p845
I3124
sS'1pI9fTZ'
p846
I1129
sS'1l88TDk'
p847
I7092
sS'1q1n6Ta'
p848
I1130
sS'1fpSCZL'
p849
I1131
sS'Snym07'
p850
I5398
sS'1iWNN6y'
p851
I63
sS'1j99UtX'
p852
I1133
sS'TxoO2J'
p853
I1134
sS'1kdNiJ9'
p854
I1135
sS'rQTXCf'
p855
I4418
sS'1mBqRfa'
p856
I4289
sS'TmKSho'
p857
I1110
sS'1jME6qz'
p858
I1145
sS'1w0xEpt'
p859
I4290
sS'1fglw9r'
p860
I1148
sS'1lo2QIi'
p861
I3360
sS'ROcnzw'
p862
I1149
sS'1kDfoNB'
p863
I1582
sS'1lphX6A'
p864
I4291
sS'1hiJOjT'
p865
I2917
sS'1lsf9WF'
p866
I3927
sS'1lrltxV'
p867
I1150
sS'1qtmvcB'
p868
I5680
sS'1kKcYum'
p869
I2216
sS'1iIoovZ'
p870
I1753
sS'1oMhUBW'
p871
I1151
sS'1o4t7Nr'
p872
I7093
sS'1l0vRt8'
p873
I6934
sS'1k7fXio'
p874
I1018
sS'1j03uNC'
p875
I1152
sS'1qs2o1C'
p876
I2124
sS'1mXtBqL'
p877
I5310
sS'1nzwdNl'
p878
I1556
sS'1pDBpwZ'
p879
I6484
sS'1mCE6Rp'
p880
I4294
sS'1nW8cOa'
p881
I1155
sS'1hhFIho'
p882
I5749
sS'1pGJ5AR'
p883
I4901
sS'1r6sjcK'
p884
I844
sS'1jbvSNK'
p885
I4296
sS'1k3SaPH'
p886
I4297
sS'UQNjJL'
p887
I1167
sS'SOkUm5'
p888
I3425
sS'1kMm3RT'
p889
I1168
sS'1nUAWGS'
p890
I6377
sS'1ijb4BW'
p891
I4299
sS'1mRJuQU'
p892
I6072
sS'1nm4Fqb'
p893
I1170
sS'1rSM9IN'
p894
I2240
sS'UoTVz9'
p895
I4303
sS'1o6nfmT'
p896
I5555
sS'1kTP0LG'
p897
I6957
sS'1rqgCxs'
p898
I4240
sS'1jv3wsk'
p899
I3441
sS'1lf4XMs'
p900
I3243
sS'1jhHMQl'
p901
I6330
sS'1pxQnEL'
p902
I6848
sS'1fDK9gb'
p903
I1176
sS'1kOt0Gt'
p904
I3644
sS'1kauZEs'
p905
I1120
sS'1hbRF8l'
p906
I5551
sS'UyTjqx'
p907
I6086
sS'1kv5JJb'
p908
I3475
sS'1kSg96o'
p909
I1179
sS'1kR0mSd'
p910
I4825
sS'1jtubvk'
p911
I450
sS'1nX9czT'
p912
I1812
sS'1hdQ4cE'
p913
I1181
sS'1jGEjjz'
p914
I4319
sS'1gsZaat'
p915
I4305
sS'1qePpOd'
p916
I3269
sS'1kMbBLA'
p917
I7094
sS'Utqo7f'
p918
I1184
sS'1pKfW6w'
p919
I792
sS'1pjstMb'
p920
I4040
sS'1hQ8Ah1'
p921
I3333
sS'1mNB2xp'
p922
I1186
sS'1mLbBMY'
p923
I4307
sS'1jzG96M'
p924
I1188
sS'1krFMGj'
p925
I1116
sS'1hEdpaw'
p926
I1189
sS'UDOzQx'
p927
I4308
sS'1z0SPZQ'
p928
I1190
sS'1mzkoTH'
p929
I1194
sS'11ozT6g'
p930
I4309
sS'UH0gG6'
p931
I3287
sS'USeHax'
p932
I1195
sS'1fvCSVm'
p933
I1094
sS'1pUduZX'
p934
I1196
sS'1hd9FiH'
p935
I4046
sS'1fSrbb4'
p936
I4310
sS'1nxYena'
p937
I3402
sS'1p7DLDo'
p938
I6336
sS'1q9ElnA'
p939
I7043
sS'1mzRt0a'
p940
I3739
sS'1qGh6CS'
p941
I6936
sS'1k5NMC3'
p942
I1747
sS'1uBzlYC'
p943
I6295
sS'1nWWi4J'
p944
I5764
sS'QebSNP'
p945
I324
sS'1oh8pd9'
p946
I5109
sS'1qdwMtP'
p947
I4312
sS'1nzYb7d'
p948
I6914
sS'1oyuDKO'
p949
I5634
sS'QZVQrg'
p950
I4909
sS'1hrYanz'
p951
I7104
sS'1hfFxmS'
p952
I1205
sS'1ws6Crh'
p953
I588
sS'1kmWr41'
p954
I5273
sS'1qqPznY'
p955
I4849
sS'1nITGrp'
p956
I2529
sS'1r8tesH'
p957
I7053
sS'1kypkss'
p958
I6510
sS'1m0PhkP'
p959
I5440
sS'1lbx4kw'
p960
I6036
sS'1nFnDwk'
p961
I241
sS'1k8wuBL'
p962
I5134
sS'1pTj8iD'
p963
I1586
sS'1pVzkga'
p964
I1659
sS'1geLgZC'
p965
I6337
sS'1jVtHc1'
p966
I1231
sS'1njJvsq'
p967
I894
sS'1lFJEHr'
p968
I6338
sS'1tBCfdD'
p969
I675
sS'VqRXPd'
p970
I3213
sS'1nJ9MAT'
p971
I4560
sS'1kIrBOA'
p972
I5789
sS'1kIbC1B'
p973
I4316
sS'1fozc58'
p974
I2508
sS'1nZL7vA'
p975
I180
sS'1kCKW5o'
p976
I1235
sS'1vfdKpj'
p977
I6661
sS'1hHf105'
p978
I4317
sS'1kxedLu'
p979
I4083
sS'1oTuCRS'
p980
I1442
sS'1kLz1Pv'
p981
I4318
sS'1tLoSaX'
p982
I6487
sS'1hkE2yh'
p983
I4266
sS'11NRGYe'
p984
I1237
sS'1jOyCLY'
p985
I1967
sS'1lifXgV'
p986
I5443
sS'1jcAaEI'
p987
I1239
sS'1cDzlzG'
p988
I4106
sS'SB0WuU'
p989
I1220
sS'1livc4E'
p990
I1240
sS'1eookpq'
p991
I1241
sS'1vbIhm7'
p992
I1057
sS'1nYgm8A'
p993
I6339
sS'1p2G0cN'
p994
I836
sS'VrmXi0'
p995
I7041
sS'1jnqj9B'
p996
I1247
sS'1pbW9hQ'
p997
I1250
sS'1fTzHGS'
p998
I2500
sS'TksVzF'
p999
I4358
sS'1mjKA7A'
p1000
I4359
sS'1pt2nqg'
p1001
I4906
sS'1h5S7zs'
p1002
I2546
sS'1o41IhJ'
p1003
I5802
sS'1lFM1L2'
p1004
I5449
sS'T5rxAc'
p1005
I1251
sS'1mE9WIO'
p1006
I4360
sS'1oR2w6y'
p1007
I3554
sS'TI97q5'
p1008
I1252
sS'1jayLhY'
p1009
I6851
sS'1clhRES'
p1010
I4377
sS'1oTCbon'
p1011
I6383
sS'1jX6mrn'
p1012
I2238
sS'1mefkEC'
p1013
I6341
sS'1x5HENF'
p1014
I1254
sS'1orkrRc'
p1015
I535
sS'1uwm6GU'
p1016
I4063
sS'RRSXJT'
p1017
I4084
sS'Q5Mc6b'
p1018
I1255
sS'1kAgQMO'
p1019
I2418
sS'1h0ffza'
p1020
I3594
sS'1oSspmm'
p1021
I4378
sS'1nWrpk9'
p1022
I1256
sS'1mRV7T6'
p1023
I1257
sS'1jgLjDs'
p1024
I5944
sS'1qZvkPn'
p1025
I4586
sS'1oeIa8U'
p1026
I3653
sS'1fR1sdL'
p1027
I4268
sS'1mxcoiB'
p1028
I7107
sS'1nI0eIg'
p1029
I3973
sS'1ii2QdS'
p1030
I6345
sS'1hesVfO'
p1031
I1636
sS'1u6Lkhr'
p1032
I1295
sS'1nSAYgt'
p1033
I4114
sS'1ib6GVV'
p1034
I6346
sS'1kS4q7Q'
p1035
I5695
sS'1g6EZ1P'
p1036
I4029
sS'1qJgn0D'
p1037
I5164
sS'1nN2FJr'
p1038
I4292
sS'1p85UKs'
p1039
I6347
sS'1jalQXP'
p1040
I1055
sS'1jPNrxI'
p1041
I1790
sS'1gCr0AW'
p1042
I257
sS'1jGTowy'
p1043
I4384
sS'1h0W4p3'
p1044
I1300
sS'1o7OUDy'
p1045
I4386
sS'1jdwsL8'
p1046
I6943
sS'1m5e5qs'
p1047
I4387
sS'1kSBxFp'
p1048
I6348
sS'UG13af'
p1049
I3279
sS'1l10ku1'
p1050
I1022
sS'1loYLq6'
p1051
I7109
sS'1exwDiX'
p1052
I4388
sS'1q0Nr5W'
p1053
I1293
sS'1nV2cTQ'
p1054
I4389
sS'1ukl6aC'
p1055
I4842
sS'1kM8sLL'
p1056
I4390
sS'1jQp1cb'
p1057
I556
sS'1su91N7'
p1058
I4405
sS'1u1jeS1'
p1059
I4391
sS'1gN3YYC'
p1060
I6349
sS'SjYIA2'
p1061
I979
sS'1gBjYfP'
p1062
I4471
sS'1q8t4lf'
p1063
I5739
sS'STAJIb'
p1064
I7111
sS'1ky3tkI'
p1065
I1648
sS'1qwZDfg'
p1066
I6994
sS'1if5dhv'
p1067
I4392
sS'1q7iv20'
p1068
I7112
sS'1lZe2Og'
p1069
I3179
sS'USgcWc'
p1070
I4393
sS'1ks9meI'
p1071
I7113
sS'1wt9P9S'
p1072
I1177
sS'1jBD2pf'
p1073
I1548
sS'1pF8Bnd'
p1074
I1183
sS'1pLoU5U'
p1075
I4006
sS'1oagTUV'
p1076
I1341
sS'1m1UEgV'
p1077
I4607
sS'1plxtmK'
p1078
I6148
sS'V7uPVO'
p1079
I702
sS'1m3gxAw'
p1080
I5464
sS'1sCDVoC'
p1081
I2089
sS'1oC33Kl'
p1082
I3874
sS'1mpEL5D'
p1083
I4095
sS'UXqZOG'
p1084
I214
sS'1kEAneS'
p1085
I4437
sS'1jH5gP4'
p1086
I4438
sS'1lwt8GO'
p1087
I6269
sS'1mLtrAN'
p1088
I2870
sS'1nwMDmt'
p1089
I1144
sS'1mB7TmY'
p1090
I3691
sS'UroDHV'
p1091
I5747
sS'1nvx5hl'
p1092
I3228
sS'1j7U8vY'
p1093
I3830
sS'1jYgTl9'
p1094
I4404
sS'1lIzq8N'
p1095
I1354
sS'1h6R3hW'
p1096
I1355
sS'SkyU71'
p1097
I7115
sS'1hh4Yoe'
p1098
I4960
sS'1kX4qU0'
p1099
I991
sS'1jNBPvh'
p1100
I4618
sS'1x5NrTw'
p1101
I6457
sS'1hVaqe8'
p1102
I4619
sS'1gCukfE'
p1103
I5961
sS'Ru2Ywm'
p1104
I4621
sS'1mEMNGZ'
p1105
I5186
sS'1pJTA6u'
p1106
I3980
sS'1lc0eLA'
p1107
I856
sS'1oJ6i1S'
p1108
I6350
sS'1lnMu55'
p1109
I4443
sS'1kP1gld'
p1110
I1358
sS'1kTOCl5'
p1111
I4444
sS'1pnzXie'
p1112
I1665
sS'1iEdMhN'
p1113
I6807
sS'1kSVIRX'
p1114
I1359
sS'1o40D88'
p1115
I1360
sS'1i7XB1q'
p1116
I4445
sS'1k1iOcO'
p1117
I1361
sS'1tJux15'
p1118
I4446
sS'1gmDg6q'
p1119
I4447
sS'1pdF8nr'
p1120
I1365
sS'1meR9Xe'
p1121
I2309
sS'1qCDNYB'
p1122
I7116
sS'1pwG2Kq'
p1123
I2102
sS'1kBJXkm'
p1124
I1369
sS'1lt5PlA'
p1125
I1370
sS'1jEZJi4'
p1126
I5988
sS'1gfkUGs'
p1127
I1372
sS'1iIEoCM'
p1128
I3121
sS'1oT6dsr'
p1129
I4449
sS'1nXkzpv'
p1130
I1124
sS'1gTJQyi'
p1131
I7047
sS'1kDJyRG'
p1132
I6352
sS'1iIG625'
p1133
I1374
sS'1l2rj3O'
p1134
I6758
sS'1jglpQq'
p1135
I1376
sS'QNIQEZ'
p1136
I1377
sS'1qE7J6G'
p1137
I5612
sS'1modssm'
p1138
I7045
sS'1pjIPEN'
p1139
I6353
sS'L8i3KL'
p1140
I1606
sS'1t73Q61'
p1141
I4450
sS'1qtuWYm'
p1142
I1378
sS'1hCMhWC'
p1143
I1382
sS'1o5FGJY'
p1144
I5573
sS'1pjYaoP'
p1145
I4451
sS'1pomnP7'
p1146
I5487
sS'1mRNU63'
p1147
I3087
sS'1jBcwME'
p1148
I1384
sS'U7Ue0w'
p1149
I29
sS'1qpLkqD'
p1150
I4452
sS'1psC9ao'
p1151
I1386
sS'1pQIsCE'
p1152
I7117
sS'1iPvlQC'
p1153
I1387
sS'1mskzyx'
p1154
I80
sS'1noQYVU'
p1155
I3720
sS'1nEY6CD'
p1156
I4976
sS'1kL1iHN'
p1157
I7002
sS'1jnngOy'
p1158
I3965
sS'1oolRw4'
p1159
I3123
sS'1genbSF'
p1160
I1394
sS'1m8oL56'
p1161
I331
sS'1kZWs9x'
p1162
I4453
sS'11YIQAy'
p1163
I2136
sS'1iIn6Wl'
p1164
I1397
sS'1k9PRHz'
p1165
I323
sS'U848iK'
p1166
I5423
sS'1lnD0Ce'
p1167
I24
sS'1mhdgef'
p1168
I1399
sS'1pz7iZV'
p1169
I3875
sS'1guhArn'
p1170
I5477
sS'1nZtaNE'
p1171
I4456
sS'1ikpn9W'
p1172
I7224
sS'1n9JDfc'
p1173
I1720
sS'1hkniGQ'
p1174
I5828
sS'1g9TZMg'
p1175
I5498
sS'1o2t7xj'
p1176
I3479
sS'XCnjLC'
p1177
I4406
sS'1mtGtTw'
p1178
I4461
sS'1gDnUNk'
p1179
I5393
sS'1ouhHFO'
p1180
I3992
sS'1koJQHd'
p1181
I3995
sS'1uI2wt1'
p1182
I6126
sS'1pzWGtS'
p1183
I4462
sS'1ks5H57'
p1184
I1705
sS'1lfGH16'
p1185
I1407
sS'PrfGuL'
p1186
I6391
sS'1mejiLv'
p1187
I2896
sS'1qadby3'
p1188
I1004
sS'1mjEnpb'
p1189
I468
sS'1jVA7rB'
p1190
I6041
sS'1gfUWDj'
p1191
I3397
sS'1l2g1fQ'
p1192
I1415
sS'1mydTlb'
p1193
I4770
sS'1iivJTR'
p1194
I2198
sS'1ggmmZw'
p1195
I1282
sS'1n3Nw2L'
p1196
I522
sS'1jsqG2I'
p1197
I3217
sS'1jr3qlB'
p1198
I6357
sS'1nUS9yY'
p1199
I3670
sS'1l8dBMI'
p1200
I4463
sS'1gPiVTX'
p1201
I5241
sS'1g5Q4jP'
p1202
I1417
sS'1z0Z2VK'
p1203
I5511
sS'1mT8KWQ'
p1204
I1420
sS'1lHul1K'
p1205
I266
sS'1txSSXD'
p1206
I1423
sS'1kP1SnT'
p1207
I1626
sS'PrnoFy'
p1208
I5247
sS'1fSpGKa'
p1209
I7118
sS'1oNjyEB'
p1210
I4465
sS'1gtyfeI'
p1211
I2736
sS'1svh4i0'
p1212
I2101
sS'1ig3qKl'
p1213
I5250
sS'VpE0Rx'
p1214
I6808
sS'1fpuilk'
p1215
I5251
sS'1m1FGJo'
p1216
I6237
sS'1jpkhLp'
p1217
I2691
sS'1q2qnSl'
p1218
I6359
sS'1hzRjmo'
p1219
I1447
sS'UAIcNP'
p1220
I1448
sS'1yXunIS'
p1221
I4467
sS'1pzGSbL'
p1222
I4116
sS'1tJK8h2'
p1223
I1346
sS'1kb5rCK'
p1224
I4369
sS'1ptYrpa'
p1225
I6311
sS'1kWWt0Y'
p1226
I4100
sS'1kDgwNl'
p1227
I3589
sS'1kYBTO1'
p1228
I5931
sS'1jcQTT7'
p1229
I5257
sS'1n3idqm'
p1230
I2816
sS'1mifhtY'
p1231
I1462
sS'18kHLNm'
p1232
I4470
sS'1hsTRmh'
p1233
I1453
sS'1iICUDT'
p1234
I3368
sS'1iEHC5G'
p1235
I1273
sS'SEiJS1'
p1236
I5890
sS'1sHl4bT'
p1237
I1463
sS'1wzzJsx'
p1238
I1464
sS'1kJYqJL'
p1239
I6576
sS'1hs3tOi'
p1240
I1465
sS'1ga7N9v'
p1241
I1466
sS'1oTBVWq'
p1242
I1644
sS'1jlu0gT'
p1243
I166
sS'RB0c8v'
p1244
I6746
sS'1k3IhiE'
p1245
I2628
sS'1lbXa25'
p1246
I1844
sS'1lpyfMw'
p1247
I1467
sS'1kVtQNg'
p1248
I212
sS'1fxjHKE'
p1249
I1093
sS'TEtKmT'
p1250
I1468
sS'1pwu6GD'
p1251
I1469
sS'1qcNFF4'
p1252
I2300
sS'RcN1uP'
p1253
I1470
sS'1mGIbiV'
p1254
I1211
sS'1mZWyT1'
p1255
I5267
sS'SGlgvd'
p1256
I7049
sS'1n7ZQTd'
p1257
I4473
sS'1hyvuGS'
p1258
I5268
sS'1jcjMhS'
p1259
I1472
sS'1p6wbsp'
p1260
I6362
sS'1knakIY'
p1261
I1473
sS'1gmkhFQ'
p1262
I6363
sS'1gqD4Wb'
p1263
I2685
sS'1kIHOlE'
p1264
I6364
sS'1gFsCET'
p1265
I6534
sS'1ukyQDf'
p1266
I1806
sS'1t9iRai'
p1267
I5271
sS'Ui22xl'
p1268
I4477
sS'1h6s8Ia'
p1269
I6150
sS'1fzSGAj'
p1270
I6365
sS'1mLQnOP'
p1271
I1475
sS'1j6G49r'
p1272
I6366
sS'1tcjT2J'
p1273
I4707
sS'1z1WHKe'
p1274
I438
sS'1lqmIgB'
p1275
I2966
sS'1uDv98X'
p1276
I614
sS'1m73RmO'
p1277
I4482
sS'1kT7tMV'
p1278
I5380
sS'RZlhdy'
p1279
I3561
sS'1pNUPQM'
p1280
I3380
sS'1jLfspG'
p1281
I5051
sS'1iWxGJE'
p1282
I4484
sS'1hoPCs8'
p1283
I474
sS'1kM4QN0'
p1284
I4346
sS'1rkI2Vo'
p1285
I1482
sS'1nzPnBp'
p1286
I1664
sS'1om3GKu'
p1287
I6595
sS'1qeA9Rq'
p1288
I6371
sS'1k9FKXC'
p1289
I1483
sS'1mHiAqd'
p1290
I2751
sS'1iAqDCP'
p1291
I4486
sS'1fGOLr8'
p1292
I1035
sS'1q5dtFq'
p1293
I1485
sS'1jbJokz'
p1294
I2688
sS'1jzFDQE'
p1295
I520
sS'1gsJfU5'
p1296
I6733
sS'1naLlhh'
p1297
I6932
sS'1peD0co'
p1298
I1488
sS'RqvA9P'
p1299
I4487
sS'1gyOFlK'
p1300
I4488
sS'1pPWc32'
p1301
I193
sS'1pJvlpv'
p1302
I4489
sS'1tD1vjM'
p1303
I3872
sS'UIpfca'
p1304
I4490
sS'1hLraHc'
p1305
I687
sS'1kcExuo'
p1306
I3634
sS'1k9yjeP'
p1307
I420
sS'1pvz4GB'
p1308
I4491
sS'1n1QsCN'
p1309
I4492
sS'UIjI5q'
p1310
I1113
sS'1jJO50H'
p1311
I225
sS'1oarKzV'
p1312
I7035
sS'1jmfdWW'
p1313
I4493
sS'1pgiGHS'
p1314
I6254
sS'SpKlKN'
p1315
I4766
sS'1mVsk4Y'
p1316
I1490
sS'1nM8TMo'
p1317
I4494
sS'1h2sRtP'
p1318
I6374
sS'1qcOxcQ'
p1319
I550
sS'UqriBy'
p1320
I7124
sS'1kRrv6i'
p1321
I373
sS'1sEAI81'
p1322
I1491
sS'1oNxWy3'
p1323
I561
sS'1rvvlFI'
p1324
I4072
sS'1owtx25'
p1325
I1493
sS'ULdUrK'
p1326
I4042
sS'1j7v0Ee'
p1327
I1495
sS'1hfdeVv'
p1328
I3455
sS'UUMBLV'
p1329
I1347
sS'UkWoKM'
p1330
I4495
sS'1jcQ6qo'
p1331
I4235
sS'1hcl1U2'
p1332
I5430
sS'1kG7osU'
p1333
I5960
sS'1oPZq6e'
p1334
I1496
sS'RWnBSk'
p1335
I1497
sS'12E8EVr'
p1336
I4498
sS'1g4ehar'
p1337
I1357
sS'1nIKB3o'
p1338
I1840
sS'1pYvDWs'
p1339
I599
sS'1leWm0W'
p1340
I6375
sS'1pCXA8M'
p1341
I2823
sS'1kflvF6'
p1342
I297
sS'1hoZn9R'
p1343
I3064
sS'1niHYTM'
p1344
I6376
sS'1jKYrww'
p1345
I5312
sS'1juGC8N'
p1346
I4754
sS'1gB1Cf7'
p1347
I1512
sS'1smQtDG'
p1348
I191
sS'1l2DVI8'
p1349
I7127
sS'1qDeR26'
p1350
I1513
sS'1phaAkG'
p1351
I4427
sS'TEZNmO'
p1352
I6378
sS'1l3vrVY'
p1353
I7128
sS'1kVeoFy'
p1354
I2807
sS'1qDb6He'
p1355
I4285
sS'1kRTbsP'
p1356
I1519
sS'1sRITOm'
p1357
I6380
sS'1piXAuR'
p1358
I4011
sS'1nifcqz'
p1359
I820
sS'1mLDvZg'
p1360
I4501
sS'1i80hqC'
p1361
I5328
sS'1qDgFIs'
p1362
I4502
sS'1pU20FL'
p1363
I5030
sS'1oHE7Aq'
p1364
I6381
sS'VoIGqQ'
p1365
I1520
sS'1ghlovP'
p1366
I1521
sS'1ocNB9O'
p1367
I1522
sS'1h5ehSl'
p1368
I1459
sS'1qnF566'
p1369
I1524
sS'1k2XpAF'
p1370
I689
sS'1g1aepN'
p1371
I476
sS'1nUEudQ'
p1372
I1560
sS'1j8uVBw'
p1373
I1525
sS'1pQlSwi'
p1374
I4503
sS'1gBWDL6'
p1375
I1323
sS'1g21aWV'
p1376
I259
sS'1pAV0NB'
p1377
I4504
sS'1ieSThk'
p1378
I4533
sS'UkXGEd'
p1379
I4401
sS'1uVnq9c'
p1380
I4505
sS'1hfC1TE'
p1381
I2683
sS'1sdnAq1'
p1382
I6382
sS'1jevgWV'
p1383
I4506
sS'1hdcGzr'
p1384
I1212
sS'1odlFmi'
p1385
I1527
sS'1jHkSqn'
p1386
I688
sS'1mmyu81'
p1387
I6078
sS'1jTGvVT'
p1388
I3018
sS'1qi9w0f'
p1389
I3349
sS'1hJKNiO'
p1390
I170
sS'1gJzVRh'
p1391
I5332
sS'1ngTui9'
p1392
I668
sS'1i56qu1'
p1393
I1544
sS'1oHUcG2'
p1394
I1545
sS'1pG8xXa'
p1395
I6393
sS'1q0Yv3s'
p1396
I3251
sS'RGgP2o'
p1397
I246
sS'1jxrZD4'
p1398
I6384
sS'SgyLlb'
p1399
I866
sS'Rz7QjA'
p1400
I577
sS'1tHmpy8'
p1401
I3884
sS'1kIzoed'
p1402
I4507
sS'1l6tB3v'
p1403
I3138
sS'1oHWgxO'
p1404
I6385
sS'1jup0Wg'
p1405
I4128
sS'1l0gS5r'
p1406
I1549
sS'1jIyoeL'
p1407
I4508
sS'1k3a1Tt'
p1408
I7137
sS'1rs4TOK'
p1409
I5490
sS'ShzlzF'
p1410
I78
sS'1inlFMy'
p1411
I4510
sS'1jaEJiO'
p1412
I3086
sS'1hhrUUh'
p1413
I10
sS'1nJYsri'
p1414
I1550
sS'1jSj4GR'
p1415
I1551
sS'1k4h7rQ'
p1416
I6825
sS'1pebQTb'
p1417
I4511
sS'1va3757'
p1418
I1552
sS'1mq3rMp'
p1419
I1553
sS'RIxx1L'
p1420
I2605
sS'1kkg2eW'
p1421
I4512
sS'1fmnwCh'
p1422
I7123
sS'1rEoNWX'
p1423
I6929
sS'1ljfOoU'
p1424
I301
sS'QMfdor'
p1425
I4514
sS'1us1XV9'
p1426
I1557
sS'1koCCpF'
p1427
I1561
sS'1tOxqxG'
p1428
I1562
sS'1k9RKIq'
p1429
I6397
sS'1lRCwaM'
p1430
I1563
sS'1q4tZWe'
p1431
I2369
sS'TOwzTd'
p1432
I1564
sS'1ggQcNc'
p1433
I1565
sS'1pRgxC2'
p1434
I1566
sS'1gwdf75'
p1435
I364
sS'TfOguu'
p1436
I502
sS'1mezLAD'
p1437
I6399
sS'1kn6QL7'
p1438
I3918
sS'1k8oUZB'
p1439
I1050
sS'1kE7sZX'
p1440
I4515
sS'1mpHtXe'
p1441
I7044
sS'1l0qJYT'
p1442
I4485
sS'1oREFDQ'
p1443
I6400
sS'1nhiFRA'
p1444
I2636
sS'1nTNazF'
p1445
I7138
sS'1j0eg6F'
p1446
I2175
sS'1hqFiiW'
p1447
I5352
sS'1py0rjn'
p1448
I1461
sS'1prS0Vx'
p1449
I1765
sS'1qC87Pp'
p1450
I1568
sS'1ngkrEd'
p1451
I899
sS'1mUQ30d'
p1452
I4516
sS'1j3owaO'
p1453
I4424
sS'1iIAfKl'
p1454
I4517
sS'1sPNnIN'
p1455
I6666
sS'1jtkWFK'
p1456
I2835
sS'1hs7lis'
p1457
I2851
sS'1mGPjvO'
p1458
I2074
sS'TwPd10'
p1459
I6854
sS'1mer3nn'
p1460
I1570
sS'1le5sXm'
p1461
I5342
sS'1q74GD2'
p1462
I4247
sS'1iGZRvT'
p1463
I5002
sS'1iJQEhP'
p1464
I6401
sS'1nggmhB'
p1465
I6402
sS'1t3j3Ft'
p1466
I4571
sS'1qdV1ve'
p1467
I18
sS'1nsO0SQ'
p1468
I1574
sS'1jnXlLp'
p1469
I6404
sS'1yHcAp6'
p1470
I1575
sS'1mAP4jR'
p1471
I513
sS'1jOTjXG'
p1472
I1576
sS'1icAwff'
p1473
I7151
sS'1pBZDrF'
p1474
I1718
sS'1fU9BOH'
p1475
I6111
sS'1keZ0Pa'
p1476
I4518
sS'1vaDe5h'
p1477
I3923
sS'1nsevGW'
p1478
I4519
sS'1ioHFXq'
p1479
I6021
sS'1qwFshq'
p1480
I1578
sS'1kyumpS'
p1481
I5454
sS'RroNgo'
p1482
I6797
sS'1qkaQ2J'
p1483
I1580
sS'1pCojPW'
p1484
I4520
sS'1pPtYVY'
p1485
I1537
sS'1kTFN6n'
p1486
I1581
sS'1jDOgh3'
p1487
I1108
sS'1jUDj71'
p1488
I1585
sS'1kow2Oz'
p1489
I2925
sS'1qmgstl'
p1490
I1029
sS'STQSgS'
p1491
I6897
sS'T3gjML'
p1492
I783
sS'Uizbc1'
p1493
I6355
sS'1qfhQhz'
p1494
I737
sS'1hpIETM'
p1495
I3866
sS'1i2HMKJ'
p1496
I3909
sS'RVtsam'
p1497
I4524
sS'1jM0816'
p1498
I4320
sS'TmYOr6'
p1499
I4776
sS'1jxBsps'
p1500
I5161
sS'1j1nBfg'
p1501
I4591
sS'1pqTZHQ'
p1502
I5115
sS'UphPdE'
p1503
I6407
sS'1inmG2M'
p1504
I149
sS'1nxgJ98'
p1505
I1389
sS'1orM6Bz'
p1506
I4527
sS'1gmzXca'
p1507
I878
sS'1tye13Q'
p1508
I3613
sS'1i87Pip'
p1509
I5289
sS'1pyehQG'
p1510
I1602
sS'1n3dGGk'
p1511
I4068
sS'1vua6J5'
p1512
I3215
sS'1pCOI35'
p1513
I45
sS'1fSHmja'
p1514
I4325
sS'1sSLmGu'
p1515
I1603
sS'1sl1fHm'
p1516
I4599
sS'1hvXFTD'
p1517
I4326
sS'1iQJd9B'
p1518
I1298
sS'1gMq7Rj'
p1519
I3046
sS'1kWIit0'
p1520
I2808
sS'1tsg1e7'
p1521
I3203
sS'1jmNIfW'
p1522
I6413
sS'SO6HpG'
p1523
I5984
sS'1sJAegL'
p1524
I1270
sS'Uz077z'
p1525
I2910
sS'1jCUOK4'
p1526
I3082
sS'1hl3xPV'
p1527
I2692
sS'1rD6zDG'
p1528
I1607
sS'1lrjfhM'
p1529
I1608
sS'1ih4SHZ'
p1530
I4236
sS'1jWxtTn'
p1531
I3395
sS'1kCGySv'
p1532
I4243
sS'1ko7jeL'
p1533
I5154
sS'1l1jTm4'
p1534
I1609
sS'1tAj580'
p1535
I359
sS'1sqM916'
p1536
I3703
sS'1n1l1sr'
p1537
I3173
sS'1sKcBVl'
p1538
I4822
sS'1umWzBD'
p1539
I167
sS'1gmzv31'
p1540
I1611
sS'1ou7ZTO'
p1541
I2871
sS'1kfGqX2'
p1542
I4767
sS'1giAH7X'
p1543
I5908
sS'1nNG68S'
p1544
I4768
sS'1sCJYJV'
p1545
I4343
sS'1qOWuZ8'
p1546
I706
sS'1grrSZl'
p1547
I4022
sS'1p7kCRS'
p1548
I7152
sS'RhKjDX'
p1549
I730
sS'Uy4tfn'
p1550
I2202
sS'1o1dLL3'
p1551
I1678
sS'1wyxFkG'
p1552
I1697
sS'UzKNqZ'
p1553
I7153
sS'1pBmshh'
p1554
I4773
sS'1ocjSxp'
p1555
I1624
sS'1nSjb9o'
p1556
I4862
sS'1opTkcD'
p1557
I4774
sS'1hyW93u'
p1558
I4421
sS'1tsgkpa'
p1559
I596
sS'1jmm3IB'
p1560
I5471
sS'1gyw5VK'
p1561
I4617
sS'1kWnhtM'
p1562
I7125
sS'1hzhIko'
p1563
I887
sS'1oHu7v9'
p1564
I850
sS'1iQTaHP'
p1565
I6416
sS'1iWflwd'
p1566
I6417
sS'J5KT40'
p1567
I1944
sS'SovvE9'
p1568
I1627
sS'1j4V2xK'
p1569
I2220
sS'1mLGjph'
p1570
I1628
sS'1k8fOvg'
p1571
I2221
sS'1sQ35OB'
p1572
I1577
sS'1izYiv1'
p1573
I3931
sS'1lGG8cZ'
p1574
I3933
sS'UrfSxt'
p1575
I1684
sS'SfYVVb'
p1576
I1622
sS'1vEVshu'
p1577
I5427
sS'1pRa64A'
p1578
I1685
sS'1mozlEt'
p1579
I1699
sS'1jVU2wb'
p1580
I1326
sS'1pQiazJ'
p1581
I512
sS'SU7wx7'
p1582
I1065
sS'1gBBZKX'
p1583
I2940
sS'T8YxJ1'
p1584
I4468
sS'1qqxeaE'
p1585
I2215
sS'1julj36'
p1586
I4781
sS'1kIxb1H'
p1587
I2671
sS'1sGLzOJ'
p1588
I1274
sS'1ief1bo'
p1589
I1700
sS'1mSsUOq'
p1590
I1280
sS'UNplPS'
p1591
I6425
sS'1h5LZXO'
p1592
I6426
sS'1nzlQ7y'
p1593
I6935
sS'1lFwBHb'
p1594
I5928
sS'1oe1RgY'
p1595
I3400
sS'UMRmqI'
p1596
I7155
sS'Uu0qAJ'
p1597
I3482
sS'1geRjNE'
p1598
I4784
sS'1jhUZ1q'
p1599
I1109
sS'1lLNbRI'
p1600
I2775
sS'1tjQLGP'
p1601
I172
sS'1qqF1Dd'
p1602
I3517
sS'Tc6PPC'
p1603
I4785
sS'1q6hrLQ'
p1604
I3735
sS'1nf9y5v'
p1605
I4786
sS'1nWy6PG'
p1606
I4787
sS'1heXb4j'
p1607
I5733
sS'1vYLj0c'
p1608
I7154
sS'Vp9GXh'
p1609
I2654
sS'1ssLVbF'
p1610
I4890
sS'1kez5LG'
p1611
I7185
sS'1gRpV8G'
p1612
I265
sS'1wjEl59'
p1613
I2318
sS'1oBqQfE'
p1614
I6428
sS'1kcZWDG'
p1615
I560
sS'19p4H8Y'
p1616
I3551
sS'1oAKwRh'
p1617
I1704
sS'1nui3Zj'
p1618
I6745
sS'1iYq0aE'
p1619
I1897
sS'1qOSwPb'
p1620
I4361
sS'Plys6w'
p1621
I6405
sS'1ga12EM'
p1622
I1711
sS'1v7N1c8'
p1623
I695
sS'1hgnkzE'
p1624
I6052
sS'1kI6Bre'
p1625
I1672
sS'1rF4OHB'
p1626
I6429
sS'1qFl7GJ'
p1627
I5350
sS'1h8S71H'
p1628
I4790
sS'1jgMnCM'
p1629
I1851
sS'1pk7Gsj'
p1630
I4791
sS'1evdnCP'
p1631
I2412
sS'SrSvSI'
p1632
I2598
sS'1jfkaft'
p1633
I5996
sS'1kR8QbZ'
p1634
I1970
sS'1jgDxdW'
p1635
I4529
sS'1oAU3bP'
p1636
I932
sS'1pyghKY'
p1637
I4792
sS'T9qcsS'
p1638
I165
sS'1o5cRyH'
p1639
I5000
sS'1ptoaRY'
p1640
I6431
sS'1fSLHTM'
p1641
I4667
sS'1kWypGY'
p1642
I1713
sS'1w7Eo3R'
p1643
I3762
sS'1pIXWv4'
p1644
I20
sS'1rfstwA'
p1645
I5237
sS'V7HU1a'
p1646
I1714
sS'1kc2tDG'
p1647
I2781
sS'1ikVXp6'
p1648
I5254
sS'1rPam0C'
p1649
I31
sS'1mbx7eY'
p1650
I4793
sS'1uv7rhK'
p1651
I6432
sS'1ln0cFz'
p1652
I3298
sS'1ofIYKK'
p1653
I1715
sS'1ojVSY3'
p1654
I6433
sS'XClvlR'
p1655
I1716
sS'1jl2LXD'
p1656
I4313
sS'1jrT5pD'
p1657
I3270
sS'1gls9Nb'
p1658
I1173
sS'1oTdpoq'
p1659
I710
sS'1pQK29V'
p1660
I1722
sS'Txsbao'
p1661
I6252
sS'1qn890h'
p1662
I2046
sS'1haloc7'
p1663
I4422
sS'1hzmZbv'
p1664
I6343
sS'1i5iXry'
p1665
I3311
sS'1m3uUDi'
p1666
I773
sS'1jt1NJP'
p1667
I955
sS'1tuzfQ0'
p1668
I4794
sS'1j7DXlO'
p1669
I1727
sS'1ttL09z'
p1670
I5062
sS'1ltGjbr'
p1671
I1728
sS'1ljeeTQ'
p1672
I6850
sS'1mOykfH'
p1673
I970
sS'1lKUaPZ'
p1674
I1949
sS'1s8Sgw2'
p1675
I1115
sS'1pFgz2v'
p1676
I3178
sS'1kswuJX'
p1677
I2269
sS'1maowaZ'
p1678
I188
sS'1yXhgY0'
p1679
I3265
sS'1iNYonz'
p1680
I4796
sS'Szz36C'
p1681
I1046
sS'1jDikdp'
p1682
I3424
sS'1kJeStC'
p1683
I1731
sS'1p7KAbp'
p1684
I4973
sS'1k0jbkA'
p1685
I992
sS'V3zE2j'
p1686
I4797
sS'1gfkJeg'
p1687
I2253
sS'SnxjNz'
p1688
I3870
sS'1gw6FgT'
p1689
I1735
sS'1ickKeE'
p1690
I5519
sS'1kIa9gr'
p1691
I1736
sS'1hdtAs5'
p1692
I7284
sS'RBmO8F'
p1693
I2596
sS'1lwSF2B'
p1694
I4876
sS'1jya1Lg'
p1695
I1203
sS'1qpwQte'
p1696
I5559
sS'1iblcNn'
p1697
I1740
sS'1qe9wff'
p1698
I6435
sS'1kTxBqW'
p1699
I1375
sS'UrlBmV'
p1700
I2926
sS'1kTOAJT'
p1701
I4034
sS'1peTcdR'
p1702
I4798
sS'1ywhy8f'
p1703
I1191
sS'1qjOBdk'
p1704
I1040
sS'1hc1oLU'
p1705
I4799
sS'QMuDYW'
p1706
I782
sS'1txyi9M'
p1707
I6950
sS'1lekThY'
p1708
I1743
sS'1gGdwnN'
p1709
I4800
sS'1kDzwwx'
p1710
I4801
sS'1ldxfZg'
p1711
I501
sS'TG0TPc'
p1712
I929
sS'T32y0I'
p1713
I4802
sS'1fTRfNC'
p1714
I4334
sS'1qeLPqo'
p1715
I1744
sS'1pYCIqH'
p1716
I1777
sS'1iNEhWE'
p1717
I5582
sS'1jutVYe'
p1718
I1719
sS'1kH0gMW'
p1719
I2985
sS'1hPB6to'
p1720
I4769
sS'1vjIsvt'
p1721
I4805
sS'1ifHY70'
p1722
I4806
sS'1rhGeMI'
p1723
I3245
sS'1jh2j7W'
p1724
I5102
sS'1mOAFCy'
p1725
I1059
sS'1ogfaPM'
p1726
I3290
sS'1pXU5bd'
p1727
I2929
sS'1mwIQ4D'
p1728
I1749
sS'1hmcuXQ'
p1729
I5343
sS'1qhiMSu'
p1730
I6436
sS'1lJQLNM'
p1731
I5284
sS'1kTsB0R'
p1732
I6079
sS'1jdqrIz'
p1733
I1750
sS'Vpalbc'
p1734
I1751
sS'1lwkkSx'
p1735
I1904
sS'1mDM4oP'
p1736
I2730
sS'1iz3wLX'
p1737
I2183
sS'1o6hs4F'
p1738
I4807
sS'1u5OeCb'
p1739
I2681
sS'1kL0FOj'
p1740
I5783
sS'UYFVfH'
p1741
I4333
sS'1lNMBsp'
p1742
I4809
sS'1hfewzU'
p1743
I2958
sS'RzA65M'
p1744
I4810
sS'UqCsX5'
p1745
I2542
sS'1gRg42R'
p1746
I2073
sS'1qnMMga'
p1747
I589
sS'UucQIN'
p1748
I1506
sS'1jtzI48'
p1749
I2193
sS'SCjZoF'
p1750
I1755
sS'1nyX23W'
p1751
I1067
sS'1jIxwkM'
p1752
I4557
sS'1qh7wmv'
p1753
I1756
sS'1mVHu5M'
p1754
I5296
sS'1gho10E'
p1755
I7233
sS'SnxatG'
p1756
I4811
sS'1jdS991'
p1757
I2577
sS'1mzrjNN'
p1758
I739
sS'SwlnJU'
p1759
I1757
sS'1nomjbk'
p1760
I6283
sS'1mY95Ys'
p1761
I859
sS'1hutj4i'
p1762
I1758
sS'1pP0mpq'
p1763
I1759
sS'1o7C8WS'
p1764
I4812
sS'1ljYosk'
p1765
I4261
sS'1pn46gK'
p1766
I1760
sS'1j4VbQJ'
p1767
I2939
sS'1ghIqxv'
p1768
I6438
sS'1hPYEDA'
p1769
I774
sS'1kblwZa'
p1770
I744
sS'1rUmnUF'
p1771
I5354
sS'1mahdOy'
p1772
I1767
sS'yXAmwW'
p1773
I1313
sS'1pj0qwv'
p1774
I154
sS'1udtsS9'
p1775
I347
sS'1hX1Zus'
p1776
I276
sS'1nPBv4U'
p1777
I5635
sS'1gC1DiK'
p1778
I1768
sS'1peFD08'
p1779
I1769
sS'1jTt32X'
p1780
I432
sS'1oSA9F7'
p1781
I4813
sS'TlQTLm'
p1782
I4814
sS'1kZ3oa0'
p1783
I7159
sS'1gz6cu7'
p1784
I1771
sS'1nYzDIB'
p1785
I1772
sS'SZANX5'
p1786
I4902
sS'1gZZPLe'
p1787
I2255
sS'uIOfaA'
p1788
I6441
sS'1has6z1'
p1789
I1774
sS'1gC1xYk'
p1790
I497
sS'1mCqnqD'
p1791
I2603
sS'1hOkAKe'
p1792
I4141
sS'1mHIc7W'
p1793
I1460
sS'1qc7dvs'
p1794
I4082
sS'1pNC6nu'
p1795
I7065
sS'1lZ9YL3'
p1796
I1775
sS'1kT3VKI'
p1797
I4156
sS'1p174Ht'
p1798
I816
sS'1jBHK6P'
p1799
I5314
sS'1hte5SA'
p1800
I4755
sS'1mL40Bn'
p1801
I5225
sS'1qkp1CF'
p1802
I4817
sS'1hAz5RC'
p1803
I64
sS'1je5hzI'
p1804
I2717
sS'1yNTwpf'
p1805
I4818
sS'1gz6HEt'
p1806
I2038
sS'1jSz5Ct'
p1807
I4701
sS'1oyjw4z'
p1808
I1593
sS'1mN9HeD'
p1809
I4975
sS'1nRquOu'
p1810
I3986
sS'1gBa6wY'
p1811
I5144
sS'1pfipUD'
p1812
I6442
sS'1pwEChY'
p1813
I1782
sS'1hTBcQy'
p1814
I5956
sS'1plth6z'
p1815
I1455
sS'1kKmmOt'
p1816
I6544
sS'1pIqNzo'
p1817
I1783
sS'Tu0jDX'
p1818
I7162
sS'1nrEgbH'
p1819
I634
sS'1neAhRN'
p1820
I3033
sS'RYM9tL'
p1821
I3610
sS'PyBC7o'
p1822
I4819
sS'1dSp1H6'
p1823
I6955
sS'1kxZtkp'
p1824
I2585
sS'1hhguQj'
p1825
I1126
sS'1sFbJBo'
p1826
I5543
sS'1u6ZkYN'
p1827
I6443
sS'1mHc3eW'
p1828
I7163
sS'1nG0Goq'
p1829
I376
sS'1l6bVYq'
p1830
I4820
sS'1kLwKsr'
p1831
I3617
sS'1rmCpK7'
p1832
I3126
sS'1pY0hSu'
p1833
I4218
sS'1pCNLEL'
p1834
I6815
sS'RPXYT5'
p1835
I7197
sS'1ep1Wws'
p1836
I5119
sS'1pffj2N'
p1837
I6444
sS'1jpCcBD'
p1838
I5732
sS'1qq0uyg'
p1839
I4821
sS'ThEyr4'
p1840
I3886
sS'1kpg3j5'
p1841
I4399
sS'1o3ltpF'
p1842
I985
sS'1kPZbWj'
p1843
I5035
sS'1gBeYCD'
p1844
I470
sS'1k6W6fi'
p1845
I6368
sS'1xe8Iev'
p1846
I2028
sS'1gbJiDk'
p1847
I5167
sS'1hwaAVy'
p1848
I1667
sS'1o6Acjw'
p1849
I1675
sS'1nXFC0b'
p1850
I294
sS'1nLje6U'
p1851
I4539
sS'1o4Mp6l'
p1852
I507
sS'1hiMMEx'
p1853
I1807
sS'1kOYRGu'
p1854
I4329
sS'1phQPtk'
p1855
I2362
sS'1pPjgfY'
p1856
I7168
sS'1hhSFrN'
p1857
I5625
sS'1pIAVVY'
p1858
I6022
sS'1gY8qT6'
p1859
I5185
sS'1eTbYWY'
p1860
I1809
sS'1m6M92L'
p1861
I4844
sS'1rfD2F9'
p1862
I1579
sS'1od5CDq'
p1863
I6704
sS'1kPAlTl'
p1864
I3668
sS'1pcrdyW'
p1865
I3335
sS'1iMsL9f'
p1866
I1047
sS'1o09aKQ'
p1867
I1610
sS'1n6k0tc'
p1868
I1424
sS'1mHHPbT'
p1869
I3625
sS'1o3oRgT'
p1870
I4823
sS'QTlU7l'
p1871
I403
sS'1gHyH9m'
p1872
I1810
sS'1gmL6yY'
p1873
I4824
sS'1hhe12u'
p1874
I1367
sS'1x5YAEN'
p1875
I835
sS'1hf88Ti'
p1876
I6446
sS'1ftww3d'
p1877
I460
sS'1hn7PGi'
p1878
I6447
sS'1qbCTB6'
p1879
I997
sS'1ght1CY'
p1880
I7144
sS'1pB5MV0'
p1881
I336
sS'1nEKlyF'
p1882
I6451
sS'1nVN6za'
p1883
I2630
sS'1llFvd9'
p1884
I1813
sS'1iUsK82'
p1885
I6452
sS'1qiqNpQ'
p1886
I776
sS'1kIGVcO'
p1887
I1706
sS'1koUvBQ'
p1888
I1814
sS'1xzNDLM'
p1889
I4831
sS'1pjRvwB'
p1890
I1815
sS'1r2f24y'
p1891
I6453
sS'1lmjT06'
p1892
I3264
sS'1mgArqt'
p1893
I3090
sS'1heLGdq'
p1894
I4834
sS'1sQomJS'
p1895
I7170
sS'1oWNvjC'
p1896
I6454
sS'1lK7Rw8'
p1897
I3947
sS'1kmPs9o'
p1898
I1403
sS'1niD3FG'
p1899
I5579
sS'1jXXQY4'
p1900
I1821
sS'TuLFfN'
p1901
I5581
sS'1hhAACU'
p1902
I4835
sS'1nZGVMc'
p1903
I1658
sS'RCQ27q'
p1904
I1823
sS'1jwC3eN'
p1905
I3249
sS'1oyflpn'
p1906
I1825
sS'1o7J6vC'
p1907
I4836
sS'1mjjgVk'
p1908
I4837
sS'1nrNlyi'
p1909
I1826
sS'1k2yMow'
p1910
I4838
sS'SkjGz6'
p1911
I1291
sS'1kvjEdV'
p1912
I2168
sS'RW5yvV'
p1913
I6458
sS'SjT3dh'
p1914
I4839
sS'1he9M84'
p1915
I6459
sS'1ljMZNN'
p1916
I1827
sS'1kwiN0A'
p1917
I4574
sS'1q6mko5'
p1918
I4259
sS'UrNlY7'
p1919
I1161
sS'1sCGYLq'
p1920
I4843
sS'1qe6ZBL'
p1921
I925
sS'1ha5O08'
p1922
I6462
sS'1nA20wb'
p1923
I1829
sS'1kYTS2k'
p1924
I7172
sS'1sW0CV1'
p1925
I4581
sS'1ghp1Sq'
p1926
I4897
sS'1lbUVf0'
p1927
I4850
sS'1pbwEus'
p1928
I1830
sS'1nlzL0W'
p1929
I1831
sS'SX1ITj'
p1930
I3891
sS'1pzwP6k'
p1931
I930
sS'1o5tYAE'
p1932
I6698
sS'1yRt7ad'
p1933
I752
sS'1snF32y'
p1934
I6821
sS'1jGgyTM'
p1935
I6389
sS'1juIZo2'
p1936
I4852
sS'1ltWppI'
p1937
I2055
sS'1kFngis'
p1938
I1201
sS'1jQ7fVE'
p1939
I6466
sS'ThgX9V'
p1940
I6467
sS'1l4SzhZ'
p1941
I1833
sS'UaVYqn'
p1942
I1296
sS'RzBkOt'
p1943
I1834
sS'1nyx6o5'
p1944
I1835
sS'1lSaLPu'
p1945
I3793
sS'1g8doO4'
p1946
I6147
sS'1tJMlZX'
p1947
I4853
sS'1i5tLoO'
p1948
I964
sS'1mBZnGk'
p1949
I3307
sS'1saZwEr'
p1950
I313
sS'1qpfJaV'
p1951
I1646
sS'1lomQeX'
p1952
I1839
sS'TOXdv7'
p1953
I3331
sS'1pppzsq'
p1954
I4857
sS'1llyo4p'
p1955
I6272
sS'1huVv6Z'
p1956
I2875
sS'1ldQzKJ'
p1957
I5255
sS'1kHObtO'
p1958
I6564
sS'1iqqTmD'
p1959
I918
sS'1qyYXqB'
p1960
I4598
sS'1ppyJoS'
p1961
I1687
sS'1lIRDU5'
p1962
I1479
sS'1yoHsKR'
p1963
I2873
sS'1hPmpfl'
p1964
I1625
sS'1jbQ2Gz'
p1965
I4150
sS'1pMnuFc'
p1966
I6863
sS'1jfS8AB'
p1967
I5875
sS'1sI3xAl'
p1968
I1846
sS'1imQl0C'
p1969
I4601
sS'1gCqXVT'
p1970
I1861
sS'TtMVjc'
p1971
I3566
sS'1gbce4c'
p1972
I7173
sS'1gxDZi5'
p1973
I6993
sS'1pt2ou8'
p1974
I3920
sS'1jEPVV5'
p1975
I1847
sS'1o5pnhI'
p1976
I5738
sS'1l5CRYA'
p1977
I2191
sS'1pp3Mim'
p1978
I2192
sS'1mLFDBy'
p1979
I527
sS'1kMR5gu'
p1980
I4864
sS'1gb7hZp'
p1981
I7175
sS'1tzG5E8'
p1982
I7176
sS'1py5nT6'
p1983
I1853
sS'SA98vU'
p1984
I171
sS'1qbObFH'
p1985
I5031
sS'1rKkJVq'
p1986
I2523
sS'1obgPD1'
p1987
I916
sS'Uizaox'
p1988
I4865
sS'1goWZFb'
p1989
I5762
sS'1mPKi3Z'
p1990
I521
sS'1sVrmok'
p1991
I4869
sS'1fLPWWu'
p1992
I1854
sS'1oqqyZp'
p1993
I492
sS'1ktUpNP'
p1994
I1855
sS'1jwudBQ'
p1995
I2908
sS'1o43HUa'
p1996
I1856
sS'1gg74yz'
p1997
I1160
sS'1v5y2SX'
p1998
I1090
sS'1jNHEIS'
p1999
I3415
sS'1nUw2MD'
p2000
I3628
sS'RZMjkC'
p2001
I1441
sS'1jqi0tF'
p2002
I1317
sS'1kYytG6'
p2003
I4195
sS'1kXZfSJ'
p2004
I1858
sS'1q5zq7d'
p2005
I2213
sS'1pSyl0a'
p2006
I7177
sS'1mJUsVj'
p2007
I1859
sS'1k6Fsxn'
p2008
I7210
sS'1aznJxd'
p2009
I1324
sS'1llsujx'
p2010
I1863
sS'1qKXBZ0'
p2011
I1864
sS'1l2JXbN'
p2012
I6031
sS'1gCdc9M'
p2013
I1838
sS'1gmcyxa'
p2014
I4871
sS'1r9Javf'
p2015
I1391
sS'1mkTqQP'
p2016
I1865
sS'1fVIIix'
p2017
I2359
sS'1mewnWv'
p2018
I1866
sS'1o8aj2V'
p2019
I6694
sS'1pnIa63'
p2020
I1867
sS'1hcpfW9'
p2021
I1870
sS'1p1mnlz'
p2022
I2152
sS'1gy8wBM'
p2023
I1214
sS'1iMLmlB'
p2024
I3472
sS'1m4FASn'
p2025
I5482
sS'1o8dAMd'
p2026
I1003
sS'1oUtv14'
p2027
I2272
sS'1qAy4BC'
p2028
I6469
sS'1m6AZez'
p2029
I1874
sS'1dtHyax'
p2030
I5387
sS'1oj062a'
p2031
I6129
sS'1xgvK4z'
p2032
I678
sS'1qko9x3'
p2033
I1875
sS'1fO0VhU'
p2034
I4356
sS'1khJhU0'
p2035
I1204
sS'1nCK8is'
p2036
I1876
sS'1hD40gj'
p2037
I1877
sS'1kTo5RN'
p2038
I3014
sS'1gjEgu7'
p2039
I4878
sS'Rp70Gs'
p2040
I3802
sS'1knUDHp'
p2041
I1438
sS'1pFq6V8'
p2042
I1879
sS'1iz0Qyf'
p2043
I5585
sS'1iVxZPY'
p2044
I6741
sS'UFGjj1'
p2045
I6042
sS'1pfmARh'
p2046
I1880
sS'R63e4X'
p2047
I4879
sS'V8GLGE'
p2048
I5980
sS'1jEjxvZ'
p2049
I1868
sS'1gliVQY'
p2050
I6470
sS'1gnKVn5'
p2051
I4880
sS'1k6Ced4'
p2052
I1881
sS'1gclEfT'
p2053
I5824
sS'1hDez2Q'
p2054
I3394
sS'1meKGKK'
p2055
I3226
sS'1ouTVXl'
p2056
I4846
sS'1gunNDH'
p2057
I1882
sS'1n6eYTu'
p2058
I4651
sS'1uVqeDb'
p2059
I4881
sS'1o7pIPr'
p2060
I1884
sS'1k3sbpo'
p2061
I6471
sS'1g2C8S7'
p2062
I1885
sS'1jR6TuP'
p2063
I1020
sS'1nrTo7F'
p2064
I2462
sS'1tJHgAU'
p2065
I6472
sS'1tsFfJ3'
p2066
I488
sS'1jnBG78'
p2067
I4024
sS'1oOkqH3'
p2068
I6967
sS'1or4Gd2'
p2069
I4656
sS'1nAHCew'
p2070
I1886
sS'1kDhmhy'
p2071
I4882
sS'1jcW36J'
p2072
I4826
sS'PiH0Mb'
p2073
I5192
sS'UGUVOY'
p2074
I3868
sS'1kKtkFT'
p2075
I7298
sS'1gIISdE'
p2076
I646
sS'1gF3aor'
p2077
I4497
sS'RMJLXx'
p2078
I5232
sS'1kAg5rL'
p2079
I1426
sS'1gSCDi7'
p2080
I4883
sS'1oKJZMl'
p2081
I5502
sS'Tz8zmX'
p2082
I6474
sS'SZzreK'
p2083
I4893
sS'1gpnZnI'
p2084
I332
sS'1lktWTv'
p2085
I3569
sS'1l6JJGa'
p2086
I1197
sS'1phJlTM'
p2087
I4884
sS'1iMhd5H'
p2088
I6023
sS'1klx3VJ'
p2089
I1778
sS'1tuCya3'
p2090
I1958
sS'1kNPDuR'
p2091
I4886
sS'1qYdQz6'
p2092
I4426
sS'1loStXm'
p2093
I4234
sS'1hAI4BN'
p2094
I3574
sS'1ljwZLJ'
p2095
I2302
sS'1jyH1To'
p2096
I1232
sS'TqHEcJ'
p2097
I4914
sS'1pNKVx2'
p2098
I3616
sS'1hqz9DA'
p2099
I1892
sS'1rhxINY'
p2100
I4828
sS'1nSo2Y8'
p2101
I4963
sS'UTN6pi'
p2102
I2980
sS'1oVJj42'
p2103
I4675
sS'1njjflI'
p2104
I1893
sS'1mAWSpa'
p2105
I2019
sS'1iaaYJQ'
p2106
I4678
sS'1uciTMi'
p2107
I986
sS'1jdLxfM'
p2108
I2209
sS'1glANLG'
p2109
I4916
sS'1hjQ8Ym'
p2110
I7145
sS'1mL7roc'
p2111
I496
sS'UZ6Ojt'
p2112
I4917
sS'1jOcgtz'
p2113
I2891
sS'1ohckdk'
p2114
I6475
sS'Qv2PI5'
p2115
I4526
sS'1nY64Vg'
p2116
I3028
sS'1pFtmPR'
p2117
I1908
sS'1l3DLEZ'
p2118
I4918
sS'1mJubVN'
p2119
I6088
sS'1h4oiz8'
p2120
I6303
sS'1iSzVsz'
p2121
I757
sS'1hhosJf'
p2122
I2464
sS'1ssMG7Y'
p2123
I1909
sS'1oGSbui'
p2124
I485
sS'UlDjrY'
p2125
I2147
sS'1lTgKoc'
p2126
I218
sS'15UQ0OE'
p2127
I3367
sS'1qiBcCd'
p2128
I1910
sS'1j3FXLt'
p2129
I6965
sS'RaCf8j'
p2130
I1913
sS'1kx8cmW'
p2131
I2609
sS'1jqaa3k'
p2132
I5903
sS'1kTzXGx'
p2133
I3044
sS'1p0JkTW'
p2134
I1914
sS'1sIQySv'
p2135
I655
sS'1jAdcaQ'
p2136
I1492
sS'1pvUDqF'
p2137
I7179
sS'1kVdGb7'
p2138
I3387
sS'1h9XWff'
p2139
I4176
sS'Rh3pKJ'
p2140
I1916
sS'1hxJWvz'
p2141
I1917
sS'1mQch3v'
p2142
I3393
sS'1run9XJ'
p2143
I726
sS'1gsiqF3'
p2144
I4248
sS'1oAUgHN'
p2145
I4923
sS'1iH9eqT'
p2146
I4924
sS'TlmgFi'
p2147
I3038
sS'1kJlCZW'
p2148
I6410
sS'1kDEqMV'
p2149
I6476
sS'1tNQgrs'
p2150
I3548
sS'1pKwNVg'
p2151
I4394
sS'1jEfzDz'
p2152
I1923
sS'1mInUtf'
p2153
I1202
sS'1uINhQB'
p2154
I6116
sS'1pFmwtD'
p2155
I1924
sS'1lCTObR'
p2156
I4703
sS'V0aDVJ'
p2157
I1925
sS'1o0ZUoe'
p2158
I4925
sS'1qtbj2w'
p2159
I845
sS'1mG7cuw'
p2160
I940
sS'1mnEJYo'
p2161
I6551
sS'1kVL5Or'
p2162
I327
sS'1tDgQ3I'
p2163
I1937
sS'1kT7KOo'
p2164
I1938
sS'SRX1KI'
p2165
I7165
sS'1wxP9Nd'
p2166
I4929
sS'1mScNAo'
p2167
I1883
sS'1pYUCeV'
p2168
I3643
sS'1gxKr8U'
p2169
I4711
sS'1r9P2UW'
p2170
I2045
sS'1njgo8T'
p2171
I4712
sS'1ccDUOp'
p2172
I5530
sS'10YfNjp'
p2173
I5830
sS'18CMR4q'
p2174
I5934
sS'1kBZ6oQ'
p2175
I3742
sS'1pfRCb4'
p2176
I1942
sS'1gccKzc'
p2177
I3563
sS'1mx5ITi'
p2178
I6477
sS'1qbmxta'
p2179
I4722
sS'1pghc2I'
p2180
I143
sS'1iBXjvx'
p2181
I248
sS'1fGm8bo'
p2182
I4932
sS'1kPF2wr'
p2183
I1943
sS'1lGan4Y'
p2184
I4933
sS'1ia3cTQ'
p2185
I4725
sS'1idGXfw'
p2186
I1945
sS'1j2mzPm'
p2187
I2723
sS'1nyKF84'
p2188
I5591
sS'1qCgmyL'
p2189
I806
sS'1fQyRug'
p2190
I802
sS'Ru1tP4'
p2191
I4934
sS'1qfx0AR'
p2192
I1947
sS'1jgG7uQ'
p2193
I2660
sS'SRgCuj'
p2194
I1193
sS'1p49AjF'
p2195
I4935
sS'1iPpQRP'
p2196
I6705
sS'1yUNSli'
p2197
I2200
sS'1lB28IS'
p2198
I6480
sS'1pCDKYa'
p2199
I7181
sS'TRJgfP'
p2200
I7134
sS'1mjZjvR'
p2201
I5302
sS'1kgRpFi'
p2202
I1951
sS'1qhjsVx'
p2203
I6833
sS'TlLior'
p2204
I7182
sS'Rfrr94'
p2205
I4938
sS'1sQ7syt'
p2206
I5848
sS'1mLaRaw'
p2207
I1953
sS'1kN36OV'
p2208
I1950
sS'1lV7gI9'
p2209
I85
sS'1o7Ztqt'
p2210
I7252
sS'1qesUsr'
p2211
I5184
sS'Sm1rsV'
p2212
I6047
sS'1u5NYTT'
p2213
I81
sS'1isMmRi'
p2214
I2526
sS'1uedXbC'
p2215
I5540
sS'TrHGBa'
p2216
I4939
sS'1jrxGwH'
p2217
I2732
sS'1jMqijS'
p2218
I1959
sS'1jSRezY'
p2219
I4745
sS'1hfeUi2'
p2220
I1961
sS'TKnACt'
p2221
I4941
sS'1jdQrno'
p2222
I5959
sS'1mHpqyH'
p2223
I1159
sS'1f33kQf'
p2224
I5290
sS'1jr1mdg'
p2225
I1962
sS'1pCGyHV'
p2226
I6481
sS'1l7kjmd'
p2227
I7089
sS'1gqpdiP'
p2228
I5758
sS'1qNKRBV'
p2229
I903
sS'1gTyJuW'
p2230
I3585
sS'1odMR4j'
p2231
I7183
sS'1jvc4nn'
p2232
I6427
sS'1pzWTuN'
p2233
I1089
sS'1j9SsXk'
p2234
I4942
sS'1hRmC24'
p2235
I6650
sS'1qX9UyY'
p2236
I6266
sS'1hbx52j'
p2237
I4943
sS'1kvrB7R'
p2238
I2620
sS'1kjrruY'
p2239
I3092
sS'1n7riOt'
p2240
I2325
sS'1ga6OWY'
p2241
I2323
sS'SB5DoL'
p2242
I1222
sS'1jRMYvR'
p2243
I1138
sS'1kIh7C5'
p2244
I1964
sS'1p9XHFq'
p2245
I5072
sS'1jHFq2k'
p2246
I784
sS'1uTNoab'
p2247
I2874
sS'1ppGnwy'
p2248
I4129
sS'1pDZEv0'
p2249
I7156
sS'1pMPw2x'
p2250
I475
sS'1hyvFip'
p2251
I1969
sS'1polo09'
p2252
I1337
sS'1rQ6QVS'
p2253
I6024
sS'1mfmYOn'
p2254
I846
sS'1ibYjVo'
p2255
I4944
sS'Sfh6Kz'
p2256
I917
sS'1jmlyOz'
p2257
I2407
sS'1q99pSg'
p2258
I4945
sS'1q83Ndc'
p2259
I6837
sS'1qcPoJR'
p2260
I1619
sS'1jUuakh'
p2261
I509
sS'1haghJd'
p2262
I1302
sS'1guYx01'
p2263
I1911
sS'1mehnqh'
p2264
I5091
sS'1wmI9mZ'
p2265
I5619
sS'1nKxsqu'
p2266
I6217
sS'1mDirns'
p2267
I1975
sS'RD4OL9'
p2268
I1976
sS'1inVzsM'
p2269
I4946
sS'1hSkb9z'
p2270
I4947
sS'1s8ReQV'
p2271
I1277
sS'1g2n3Fu'
p2272
I1739
sS'T3cNmo'
p2273
I514
sS'1jL91n8'
p2274
I6816
sS'Vt6TMw'
p2275
I201
sS'1bjyx5u'
p2276
I1977
sS'1gl5nWe'
p2277
I5558
sS'1toWT0t'
p2278
I2651
sS'1kHGpeM'
p2279
I4265
sS'1giP9MK'
p2280
I5446
sS'1hptKv1'
p2281
I6499
sS'1ggAhys'
p2282
I1978
sS'TrhKoL'
p2283
I6500
sS'1h9uXrY'
p2284
I1979
sS'1nSTMQe'
p2285
I3690
sS'UE3t9o'
p2286
I6501
sS'1h9o75R'
p2287
I6094
sS'1hscvdW'
p2288
I6037
sS'1uGXMUw'
p2289
I6502
sS'1s8S3sS'
p2290
I445
sS'1pB3KmG'
p2291
I4951
sS'1jHC36N'
p2292
I4952
sS'1oO89FY'
p2293
I3940
sS'TOnxFJ'
p2294
I2177
sS'1g1qiYk'
p2295
I3851
sS'1p8Nz3m'
p2296
I6081
sS'1tLNAb9'
p2297
I6130
sS'1kNJXRF'
p2298
I2977
sS'1mGNXFS'
p2299
I1984
sS'TzbFqU'
p2300
I226
sS'1jayxY3'
p2301
I1986
sS'1ntrY4p'
p2302
I1987
sS'1juo8kG'
p2303
I4889
sS'Uu7Kfz'
p2304
I1054
sS'1lRwMhh'
p2305
I1988
sS'1jlmdQh'
p2306
I2189
sS'1iDC8xI'
p2307
I4549
sS'1msPtGU'
p2308
I3637
sS'1qHn1GK'
p2309
I4907
sS'1nBG3KW'
p2310
I3218
sS'T1ewYX'
p2311
I5399
sS'1pABB0Z'
p2312
I5131
sS'1jNF2e6'
p2313
I467
sS'1jbbgFo'
p2314
I1990
sS'1h7PYmD'
p2315
I4513
sS'1pvKAi3'
p2316
I1663
sS'1qhU16j'
p2317
I2328
sS'1jvC6pl'
p2318
I5844
sS'1nSN4q6'
p2319
I5337
sS'1yXBAbS'
p2320
I7188
sS'1kXs8wx'
p2321
I5136
sS'1gwa1Ai'
p2322
I4958
sS'1kFaD6W'
p2323
I6503
sS'1hiA4Wu'
p2324
I1993
sS'1nHjVB4'
p2325
I4414
sS'RNDwCK'
p2326
I449
sS'1g5Mbvj'
p2327
I3679
sS'1qrBnLA'
p2328
I7190
sS'1k3FXs6'
p2329
I1452
sS'1iObxtS'
p2330
I4959
sS'1ky4A49'
p2331
I1922
sS'1mevYGB'
p2332
I6504
sS'SO8QRB'
p2333
I1996
sS'1psrexJ'
p2334
I7191
sS'1jv2DQD'
p2335
I7287
sS'1kHwhaL'
p2336
I7192
sS'1lG7PFB'
p2337
I1997
sS'1jbklxb'
p2338
I1998
sS'UsYWXh'
p2339
I2694
sS'1jGze74'
p2340
I4994
sS'1jbJUiG'
p2341
I7193
sS'1qihvay'
p2342
I6135
sS'1qyv0Dd'
p2343
I2000
sS'1nZaPjK'
p2344
I2001
sS'1sMTERY'
p2345
I6505
sS'SAFiYy'
p2346
I2794
sS'1ms160N'
p2347
I2035
sS'1k0OUl1'
p2348
I2002
sS'1me4Bs0'
p2349
I6506
sS'1gpPTjp'
p2350
I6507
sS'11t3xUT'
p2351
I2003
sS'1qKOFTg'
p2352
I3487
sS'1l0Ew2K'
p2353
I611
sS'1qyg6j4'
p2354
I6508
sS'1hI6z0k'
p2355
I833
sS'1qTXWG7'
p2356
I2004
sS'1pfVhJ5'
p2357
I1425
sS'Tq7Moe'
p2358
I4961
sS'1iYApCr'
p2359
I2005
sS'1jbLMSW'
p2360
I2006
sS'1oFT4Tr'
p2361
I656
sS'IsVwvs'
p2362
I993
sS'1ha8nzx'
p2363
I1107
sS'1pQ30KC'
p2364
I2010
sS'1ts2x1R'
p2365
I5383
sS'TJS7jQ'
p2366
I2011
sS'1juaYrP'
p2367
I4580
sS'1p7eCZh'
p2368
I2981
sS'1pAnhr3'
p2369
I210
sS'1ingYSX'
p2370
I1380
sS'UZMez7'
p2371
I3795
sS'1kKaezN'
p2372
I2013
sS'1idRPpl'
p2373
I4962
sS'1ju7BNw'
p2374
I2754
sS'1jukRq8'
p2375
I5583
sS'1jTib6z'
p2376
I6818
sS'1wmsq6E'
p2377
I3731
sS'1hm3eV0'
p2378
I3096
sS'1lvW8ye'
p2379
I2256
sS'1vgwqpB'
p2380
I1690
sS'1mWztgG'
p2381
I4091
sS'1jWgc00'
p2382
I5082
sS'Hpzn1L'
p2383
I4965
sS'V5ZD9b'
p2384
I6509
sS'1h0nznX'
p2385
I247
sS'1heOInE'
p2386
I298
sS'1s7T0hD'
p2387
I4666
sS'1dNsyqR'
p2388
I2027
sS'1kuihB3'
p2389
I6904
sS'1jbWKMn'
p2390
I6512
sS'1o991TR'
p2391
I4966
sS'1pUBy2C'
p2392
I6991
sS'1pF0pXO'
p2393
I6386
sS'1neSqv3'
p2394
I6209
sS'1oFT8mu'
p2395
I2030
sS'1kL8AK6'
p2396
I4594
sS'QIAFHt'
p2397
I4968
sS'1mc38DQ'
p2398
I6214
sS'1pFMXit'
p2399
I2053
sS'1kGJzAZ'
p2400
I6275
sS'1l5aPfd'
p2401
I2056
sS'Tq6hX4'
p2402
I568
sS'1jmN42c'
p2403
I5750
sS'U0SrdF'
p2404
I5459
sS'1m3KpKr'
p2405
I3502
sS'1mDJVy8'
p2406
I2057
sS'1nUBxZ4'
p2407
I6184
sS'1gwzLwH'
p2408
I1518
sS'1jwp7p7'
p2409
I4363
sS'SxzE8I'
p2410
I5893
sS'QZZX6v'
p2411
I86
sS'1kIRONb'
p2412
I3346
sS'1pjXyiN'
p2413
I6514
sS'1kKERFz'
p2414
I3258
sS'TmkFzC'
p2415
I6995
sS'SgKS1L'
p2416
I5982
sS'1q4E05V'
p2417
I2058
sS'1vtusBf'
p2418
I1435
sS'1pf9mDb'
p2419
I2059
sS'1kvuHYD'
p2420
I4606
sS'1sLQPic'
p2421
I4554
sS'1nPL6Zi'
p2422
I4969
sS'1keb3Rg'
p2423
I4875
sS'1khp0tb'
p2424
I128
sS'1ixW9oj'
p2425
I6230
sS'1s2Be2S'
p2426
I1217
sS'1l33AFm'
p2427
I7201
sS'1mDXqtq'
p2428
I5177
sS'1kPvjpN'
p2429
I1364
sS'1pgYuF0'
p2430
I2060
sS'1nSYSNj'
p2431
I1006
sS'1iJ4DLA'
p2432
I761
sS'1x92zjY'
p2433
I6651
sS'1kuDJG5'
p2434
I7149
sS'1hhqRUd'
p2435
I771
sS'1tEjer5'
p2436
I5891
sS'1iHhSa4'
p2437
I190
sS'1jp7Ayp'
p2438
I6516
sS'1rLtcel'
p2439
I891
sS'1i6tXs8'
p2440
I2343
sS'1jt226D'
p2441
I2024
sS'1mzv6M0'
p2442
I4342
sS'1gw6HoZ'
p2443
I4985
sS'1hCw7Mr'
p2444
I4475
sS'V6CKma'
p2445
I3274
sS'1leq31Z'
p2446
I2082
sS'1snxR6K'
p2447
I1915
sS'1nuHw6g'
p2448
I7205
sS'1g2ZOuZ'
p2449
I1077
sS'1jZdwhW'
p2450
I2984
sS'1hlFbFA'
p2451
I4986
sS'1ggWx6b'
p2452
I4625
sS'1j2derF'
p2453
I4987
sS'1pqRKYb'
p2454
I4988
sS'1nVfBvX'
p2455
I7206
sS'1pCDyrT'
p2456
I6250
sS'1lPn24v'
p2457
I1024
sS'1nA9srw'
p2458
I4990
sS'1ghHize'
p2459
I4587
sS'1nh2ybm'
p2460
I904
sS'1q7Jg6k'
p2461
I4428
sS'1k6aMiM'
p2462
I2086
sS'1gf4CNP'
p2463
I4352
sS'1pCYbEi'
p2464
I2087
sS'1o0ikUc'
p2465
I610
sS'1mzHzK4'
p2466
I2558
sS'1rpyzKR'
p2467
I4991
sS'T7YPz3'
p2468
I6963
sS'1pxM77s'
p2469
I4069
sS'1iLbP37'
p2470
I6992
sS'SCfpXn'
p2471
I1114
sS'1l0Env8'
p2472
I6556
sS'1lMNq1E'
p2473
I473
sS'1vONq6A'
p2474
I4639
sS'SLEqzG'
p2475
I2044
sS'1hlF9h3'
p2476
I3285
sS'1h47t7y'
p2477
I1869
sS'1sMWQgk'
p2478
I7146
sS'1oLWrs4'
p2479
I3974
sS'1hsfYt0'
p2480
I6518
sS'1mAHjw6'
p2481
I2090
sS'1unIRiZ'
p2482
I684
sS'1qkJTfh'
p2483
I2091
sS'1n5Ekg7'
p2484
I4996
sS'1hdAbbM'
p2485
I6496
sS'1n6YzdZ'
p2486
I823
sS'1ivEk8l'
p2487
I6555
sS'1sLdf2Y'
p2488
I112
sS'1nVNc8D'
p2489
I1618
sS'1ncqY0W'
p2490
I851
sS'1isaNsp'
p2491
I974
sS'1orPuiO'
p2492
I1930
sS'1jTV07p'
p2493
I2458
sS'1pmwRP1'
p2494
I2092
sS'1iFnu83'
p2495
I6519
sS'1mRagrA'
p2496
I5212
sS'1n1CLzt'
p2497
I46
sS'1pp8izH'
p2498
I6835
sS'1jniSDY'
p2499
I2093
sS'1kxQKtM'
p2500
I4998
sS'1kDxQ6q'
p2501
I945
sS'1gb2835'
p2502
I4999
sS'1q6IJCt'
p2503
I2099
sS'1kelpfo'
p2504
I7211
sS'1oYiJqt'
p2505
I6521
sS'1n8HKOL'
p2506
I1712
sS'T9GTnI'
p2507
I6093
sS'1h9Bmc4'
p2508
I4058
sS'mGzf7z'
p2509
I4804
sS'1lgJmmV'
p2510
I4328
sS'TlwOEY'
p2511
I2103
sS'1jrHW8b'
p2512
I6611
sS'1kPtVU6'
p2513
I2179
sS'1kCuPX1'
p2514
I6430
sS'1jOaWr3'
p2515
I960
sS'1l1kwfi'
p2516
I5977
sS'1kx7UfS'
p2517
I2186
sS'1lltlAI'
p2518
I6968
sS'1kvQGzm'
p2519
I2105
sS'1lrXTAR'
p2520
I2913
sS'1oxHiOd'
p2521
I5001
sS'1gxY50S'
p2522
I12
sS'1lLKNQ1'
p2523
I2106
sS'1gslhxL'
p2524
I6522
sS'1msF5ka'
p2525
I4458
sS'UcoKH7'
p2526
I6523
sS'1k8oGmi'
p2527
I803
sS'1hilNyV'
p2528
I3786
sS'1k1QaUE'
p2529
I547
sS'1jaNJEM'
p2530
I4033
sS'1mzp2Q1'
p2531
I5641
sS'1sEcISm'
p2532
I4671
sS'1kxpopk'
p2533
I1015
sS'TC4mhE'
p2534
I2111
sS'1hauFqg'
p2535
I6872
sS'1jXU8U6'
p2536
I1780
sS'1fX4rqx'
p2537
I289
sS'1nUoyEU'
p2538
I220
sS'1kCTd7K'
p2539
I1541
sS'1vhI4Aq'
p2540
I5503
sS'1hgcr6I'
p2541
I1136
sS'1kYYSs1'
p2542
I2115
sS'1gpKklk'
p2543
I2120
sS'1lXq6zb'
p2544
I981
sS'1kHDhUV'
p2545
I5048
sS'1m5odjR'
p2546
I4592
sS'1kPRwXR'
p2547
I5780
sS'1hhGXND'
p2548
I1316
sS'1oVOsZn'
p2549
I2121
sS'1hhUrDC'
p2550
I2122
sS'1gnTj6i'
p2551
I2123
sS'1pywblg'
p2552
I5003
sS'1hHMomV'
p2553
I5175
sS'1rLA8F3'
p2554
I2125
sS'1wMMTCH'
p2555
I5004
sS'Q1aWw3'
p2556
I5005
sS'1jpdG2b'
p2557
I2126
sS'1hYtJzL'
p2558
I6049
sS'1ncu84M'
p2559
I337
sS'1lFySTF'
p2560
I967
sS'1l0Env6'
p2561
I6557
sS'1oM3wt5'
p2562
I571
sS'1h1Vbwi'
p2563
I6911
sS'1f7ZjQ4'
p2564
I5252
sS'1lQPtDb'
p2565
I2051
sS'1ppJfMS'
p2566
I1798
sS'1hlTiuK'
p2567
I3689
sS'1oroSyF'
p2568
I7253
sS'1qAey3G'
p2569
I5007
sS'1hlzV4V'
p2570
I5008
sS'1jfdCTT'
p2571
I2129
sS'1ouEimJ'
p2572
I194
sS'TSsvkp'
p2573
I425
sS'1fChGwR'
p2574
I2130
sS'1pp0u0S'
p2575
I2131
sS'Ty6ZAY'
p2576
I6344
sS'1pkrZWg'
p2577
I2132
sS'1i5Rc5V'
p2578
I5261
sS'RZ7jrv'
p2579
I236
sS'1m1QUPh'
p2580
I1799
sS'1s1mzES'
p2581
I4353
sS'1oKN6Us'
p2582
I4913
sS'1l8QT7n'
p2583
I6528
sS'1kLaIS3'
p2584
I6529
sS'1iLlE5K'
p2585
I6688
sS'1oyKNDL'
p2586
I6530
sS'1pro63D'
p2587
I2133
sS'1l2rtZ4'
p2588
I3497
sS'1jhjGuY'
p2589
I6188
sS'1qvV7v9'
p2590
I1379
sS'1kA8eKO'
p2591
I2134
sS'1iP59AP'
p2592
I7214
sS'1lyNLqh'
p2593
I5521
sS'Uwkd2j'
p2594
I340
sS'1lyNLqa'
p2595
I5522
sS'1lPKAcR'
p2596
I6251
sS'1nPo2v6'
p2597
I6531
sS'1kt6pMm'
p2598
I6490
sS'T0uv9H'
p2599
I121
sS'1fNrCDG'
p2600
I5009
sS'1hoSXHK'
p2601
I2137
sS'1gg8caA'
p2602
I5962
sS'UMhNwP'
p2603
I2599
sS'1if55OT'
p2604
I7215
sS'1lQFUpA'
p2605
I2337
sS'1gulXTb'
p2606
I3347
sS'1mXY6v2'
p2607
I6566
sS'1gf27LZ'
p2608
I5905
sS'1oQIGbF'
p2609
I715
sS'1nCEGfv'
p2610
I5010
sS'1guHqMc'
p2611
I7142
sS'1ioArF6'
p2612
I3961
sS'1nR0Z37'
p2613
I1450
sS'1oNzc0E'
p2614
I2138
sS'1qfLMaC'
p2615
I5013
sS'1lyUccX'
p2616
I5528
sS'1gCWGX1'
p2617
I1327
sS'1lN3Gfx'
p2618
I5014
sS'1iG4eCO'
p2619
I7216
sS'1iZgHXd'
p2620
I4196
sS'T23VwG'
p2621
I443
sS'1fVmiIY'
p2622
I4714
sS'1k0anLy'
p2623
I5015
sS'1vB4DAm'
p2624
I796
sS'1dWziQ5'
p2625
I1336
sS'1pHYYo3'
p2626
I1334
sS'1opThgR'
p2627
I3916
sS'1nz3xkq'
p2628
I5016
sS'1inSqvH'
p2629
I2178
sS'1ja4CtD'
p2630
I6535
sS'RhlK9P'
p2631
I586
sS'1cGTHbj'
p2632
I7217
sS'Urlub2'
p2633
I2353
sS'1dj0mc7'
p2634
I2150
sS'1nRJWe9'
p2635
I2673
sS'1gC1vji'
p2636
I4000
sS'SvqM3I'
p2637
I2025
sS'TsP0vG'
p2638
I2151
sS'1npc8bp'
p2639
I446
sS'1goujvO'
p2640
I1546
sS'1tBUnnE'
p2641
I2154
sS'1kIcUyj'
p2642
I724
sS'1iaY6qc'
p2643
I2414
sS'1nK4kRf'
p2644
I2156
sS'1pnaMwn'
p2645
I6020
sS'1kHdMQY'
p2646
I5020
sS'1nUbzTH'
p2647
I2155
sS'1mn3N5c'
p2648
I982
sS'1s7l603'
p2649
I2157
sS'1nVmkbV'
p2650
I3404
sS'1pIl7Dc'
p2651
I2946
sS'1hfNQPr'
p2652
I6809
sS'1f5UV3L'
p2653
I5244
sS'1myzDLn'
p2654
I548
sS'1lBPqYM'
p2655
I5021
sS'1gh2Cog'
p2656
I1682
sS'1o0LmXd'
p2657
I2158
sS'1mmEgMP'
p2658
I4152
sS'1pgo5xD'
p2659
I2159
sS'1hF0mYO'
p2660
I158
sS'1rNfr9S'
p2661
I2160
sS'1mx33ax'
p2662
I2161
sS'1o6iLQc'
p2663
I896
sS'1mgW3jB'
p2664
I897
sS'UAWPAT'
p2665
I3272
sS'1goctcb'
p2666
I2162
sS'RiaB94'
p2667
I5022
sS'1oN56xH'
p2668
I4740
sS'1jNV8Va'
p2669
I6538
sS'M4xBFg'
p2670
I989
sS'1uDiFkm'
p2671
I1528
sS'1oz7ZAD'
p2672
I631
sS'1htbRxa'
p2673
I3820
sS'1kMXQdZ'
p2674
I2163
sS'1kWCks0'
p2675
I3997
sS'1wRO6HY'
p2676
I1187
sS'1qXcOHw'
p2677
I590
sS'1j6gXDM'
p2678
I6373
sS'1jJQ2Jr'
p2679
I3486
sS'1mw9mgJ'
p2680
I4744
sS'1lpJ6XE'
p2681
I5592
sS'1kVT8w0'
p2682
I1701
sS'1gXzu0D'
p2683
I5703
sS'1pF87Ar'
p2684
I1850
sS'RC8Hjq'
p2685
I2249
sS'1o1MiHj'
p2686
I574
sS'1jR1E1T'
p2687
I3350
sS'1qsNMfV'
p2688
I1412
sS'1sZNOLb'
p2689
I6540
sS'UpCtdp'
p2690
I5023
sS'1iKkin6'
p2691
I3584
sS'Smd6b2'
p2692
I2229
sS'1h6t0fR'
p2693
I5024
sS'1hnHEz2'
p2694
I2551
sS'UCfnkd'
p2695
I5689
sS'1nIDWGj'
p2696
I6243
sS'1pjXK1Z'
p2697
I4059
sS'1tJLsAz'
p2698
I1734
sS'1lgn7Bw'
p2699
I5918
sS'1lAJ4LC'
p2700
I1368
sS'1gjdEtl'
p2701
I4372
sS'1gqiZiv'
p2702
I1983
sS'1mP3V0Q'
p2703
I5549
sS'1lW1ANZ'
p2704
I2250
sS'TpESUE'
p2705
I6302
sS'1jwojfl'
p2706
I4
sS'1owVqnv'
p2707
I1428
sS'1gwSKqB'
p2708
I5025
sS'1lybjdR'
p2709
I4138
sS'1kyHr1u'
p2710
I5026
sS'1fKGp1L'
p2711
I2999
sS'1ggXUag'
p2712
I6543
sS'1cGL96Q'
p2713
I1332
sS'1lEdFXZ'
p2714
I1172
sS'1jpClDq'
p2715
I3004
sS'UZEtT1'
p2716
I2251
sS'1odHXnQ'
p2717
I822
sS'1gQ6ere'
p2718
I5027
sS'VosqWH'
p2719
I5654
sS'1tJNiS9'
p2720
I3657
sS'19UO46y'
p2721
I6545
sS'1p2LVQL'
p2722
I3722
sS'UtR6N1'
p2723
I2252
sS'1nSGbWy'
p2724
I2549
sS'1jnlopg'
p2725
I3943
sS'1hS57bV'
p2726
I1262
sS'1krqnWA'
p2727
I343
sS'VrtU2B'
p2728
I5036
sS'1tHa0KD'
p2729
I6546
sS'1hqRMYf'
p2730
I1641
sS'1mLgHJ9'
p2731
I2287
sS'1ogqZDe'
p2732
I2280
sS'1tBiGSO'
p2733
I3626
sS'1kFrxCy'
p2734
I6547
sS'QA0I6f'
p2735
I4185
sS'1tFpIWD'
p2736
I2281
sS'1lmsqjB'
p2737
I2282
sS'1nyBGUu'
p2738
I860
sS'SH5D6u'
p2739
I6539
sS'1iHQwPI'
p2740
I5611
sS'1scXOU3'
p2741
I5037
sS'1jUAUJh'
p2742
I5038
sS'1h8G0lb'
p2743
I481
sS'1pcJ0T8'
p2744
I5784
sS'1rHeKyS'
p2745
I4008
sS'1kU6fhk'
p2746
I1680
sS'1ljv4lF'
p2747
I3257
sS'1m3zSQL'
p2748
I2446
sS'1hOWaUy'
p2749
I5128
sS'1kEvyT5'
p2750
I2469
sS'1nz8ay0'
p2751
I1457
sS'1gfgEad'
p2752
I6549
sS'1fKm7FJ'
p2753
I407
sS'1odDWOQ'
p2754
I2401
sS'1prSzjB'
p2755
I2310
sS'1poszFE'
p2756
I692
sS'1jkILo1'
p2757
I6960
sS'1o7YbyS'
p2758
I2506
sS'1h1lGCe'
p2759
I6550
sS'1kueB1U'
p2760
I3422
sS'1hqFm2m'
p2761
I2877
sS'1kuPgF9'
p2762
I5348
sS'1vEFWD6'
p2763
I2522
sS'1tFHcSL'
p2764
I1207
sS'1nTnbGI'
p2765
I2313
sS'RmP3Z1'
p2766
I2314
sS'1mXiwCK'
p2767
I2315
sS'1trBJyK'
p2768
I5441
sS'SiiXhD'
p2769
I2316
sS'1m3w3uO'
p2770
I2204
sS'1pLXsRN'
p2771
I2644
sS'1krDSWj'
p2772
I728
sS'1mqS1Wg'
p2773
I4559
sS'1qqEqTX'
p2774
I1432
sS'1iH6xFG'
p2775
I4860
sS'1q8jXRB'
p2776
I367
sS'1kLJ7Sc'
p2777
I2320
sS'1k977m7'
p2778
I809
sS'1gBZDHm'
p2779
I5761
sS'1j2HGfH'
p2780
I870
sS'1kLr8Kp'
p2781
I4564
sS'TuY2bD'
p2782
I365
sS'1ktz327'
p2783
I5145
sS'RVIGws'
p2784
I2321
sS'V7digv'
p2785
I5047
sS'1fI5e9k'
p2786
I3396
sS'1oRgf0g'
p2787
I4569
sS'1jpf99T'
p2788
I5061
sS'1hnlOvx'
p2789
I6038
sS'1l3KcHD'
p2790
I5070
sS'1kZukGy'
p2791
I701
sS'1rqLU7c'
p2792
I4078
sS'1tm4HzW'
p2793
I51
sS'1pqhOTs'
p2794
I2268
sS'1j7LsWH'
p2795
I2338
sS'1m3O3UP'
p2796
I4931
sS'1hiPt9s'
p2797
I4528
sS'1j47NHS'
p2798
I6304
sS'1mt8id1'
p2799
I1299
sS'1lt0ElD'
p2800
I2072
sS'1kR8Qqv'
p2801
I1889
sS'1kZZF96'
p2802
I2236
sS'QBxlAd'
p2803
I5453
sS'1gXEB0C'
p2804
I2079
sS'1mTVRqW'
p2805
I2339
sS'1j300Ku'
p2806
I7186
sS'1hqnDrE'
p2807
I2952
sS'1hRDboG'
p2808
I906
sS'1tEkV7D'
p2809
I2270
sS'1pseXt0'
p2810
I2340
sS'1hwlTly'
p2811
I3449
sS'1qNqune'
p2812
I2478
sS'1kY1J4D'
p2813
I2342
sS'1qHwCyq'
p2814
I1515
sS'1mgwaz6'
p2815
I2062
sS'1hEqiy4'
p2816
I6972
sS'1net802'
p2817
I873
sS'1jGu8MN'
p2818
I28
sS'Qe3r59'
p2819
I5049
sS'1pSnvGW'
p2820
I5050
sS'1mSnuRc'
p2821
I2468
sS'1qKXcXg'
p2822
I530
sS'1m6Z8o3'
p2823
I1392
sS'1nViFr4'
p2824
I6695
sS'1mLvjrH'
p2825
I7166
sS'1kMmiOa'
p2826
I6954
sS'1iDHvHy'
p2827
I1605
sS'1h7fx6m'
p2828
I5054
sS'1mi71aQ'
p2829
I5469
sS'1ghPsaL'
p2830
I2347
sS'1lGspIZ'
p2831
I5587
sS'1krZ4kt'
p2832
I106
sS'1uxLFKg'
p2833
I2349
sS'1kECC2m'
p2834
I50
sS'1tN0g1k'
p2835
I6133
sS'1mLMPvX'
p2836
I3113
sS'1ndNlnm'
p2837
I657
sS'1tBo2gI'
p2838
I5055
sS'1nWXhli'
p2839
I2352
sS'1nIsZ7u'
p2840
I618
sS'1x92zAc'
p2841
I2354
sS'1n1uyhV'
p2842
I5171
sS'1pU7tfM'
p2843
I2296
sS'1jwqRib'
p2844
I3844
sS'1iOzF2t'
p2845
I5056
sS'1pnANxC'
p2846
I534
sS'1ljEQWd'
p2847
I3161
sS'1kU3TC6'
p2848
I5460
sS'1ojG7lv'
p2849
I2081
sS'1gchTSf'
p2850
I1474
sS'1mrPXx1'
p2851
I6820
sS'1yoZm02'
p2852
I5057
sS'1k6lvG0'
p2853
I1857
sS'1oTfJ0E'
p2854
I3491
sS'1kTMjOP'
p2855
I6291
sS'1ogST1X'
p2856
I2358
sS'1kxeNOg'
p2857
I2619
sS'1gXP7VO'
p2858
I2190
sS'1q9Mrgm'
p2859
I5896
sS'RRFm51'
p2860
I804
sS'1qaJ4Do'
p2861
I3873
sS'1gCprD2'
p2862
I405
sS'1ilJAvR'
p2863
I4608
sS'1pwldO0'
p2864
I3571
sS'1izupMF'
p2865
I353
sS'1pDPie5'
p2866
I7230
sS'QmuCKW'
p2867
I2363
sS'1lK0eTu'
p2868
I2203
sS'1j0zdv4'
p2869
I2341
sS'1l4HvkU'
p2870
I623
sS'1mFL87V'
p2871
I1311
sS'1mSvNfQ'
p2872
I6278
sS'1mVCkLl'
p2873
I3229
sS'1kPPMOm'
p2874
I2365
sS'1fS4DBR'
p2875
I3413
sS'QFiyon'
p2876
I4340
sS'1q1dXKz'
p2877
I6461
sS'1vMAtKF'
p2878
I909
sS'1pNGaqc'
p2879
I6246
sS'1mVZu3d'
p2880
I5182
sS'1jhXmgk'
p2881
I983
sS'UmMoR8'
p2882
I2366
sS'1mXqYlr'
p2883
I5967
sS'1n8VbiE'
p2884
I3926
sS'1gkFfKC'
p2885
I4620
sS'1qbUhWD'
p2886
I491
sS'1hCpry3'
p2887
I5854
sS'1oHEwWK'
p2888
I2367
sS'1g18qgp'
p2889
I2368
sS'1hhNSX7'
p2890
I1119
sS'1j9h0KA'
p2891
I5064
sS'1l85sts'
p2892
I5475
sS'1myDGoN'
p2893
I2372
sS'1fDpzSj'
p2894
I4626
sS'1nr3Qfz'
p2895
I267
sS'1jqckoa'
p2896
I2335
sS'1fK2mJ2'
p2897
I5066
sS'1kBpKhO'
p2898
I2373
sS'1gysZko'
p2899
I5894
sS'1jM9Wbi'
p2900
I1142
sS'1gEJiwa'
p2901
I2965
sS'1kv8ivc'
p2902
I6317
sS'1w06RIO'
p2903
I2070
sS'1o10rED'
p2904
I5067
sS'1h4i4iK'
p2905
I2374
sS'1pxLNci'
p2906
I2375
sS'1jyGdxU'
p2907
I5071
sS'1shNh9T'
p2908
I2377
sS'1jfRx2G'
p2909
I174
sS'1h4BqnU'
p2910
I3712
sS'1jb3Ime'
p2911
I6277
sS'17TFmZS'
p2912
I1312
sS'1q7pZ59'
p2913
I1899
sS'1kKbeQq'
p2914
I4873
sS'1jbcHhz'
p2915
I7067
sS'1nTrV0M'
p2916
I5074
sS'1piyvgq'
p2917
I1905
sS'1x5bZNc'
p2918
I2380
sS'1hRdH0A'
p2919
I3925
sS'1vumybK'
p2920
I2381
sS'1h6mNk7'
p2921
I5714
sS'1hCx5Z9'
p2922
I5595
sS'1k3Pamn'
p2923
I2439
sS'1h9PHQm'
p2924
I2242
sS'1kxUyQu'
p2925
I6568
sS'1kGjzUQ'
p2926
I4330
sS'1nJiKy7'
p2927
I3865
sS'1kPggee'
p2928
I5076
sS'1lVatJ1'
p2929
I3937
sS'1uSrxlv'
p2930
I2386
sS'1ih9Jyl'
p2931
I6569
sS'1sd3BsK'
p2932
I5308
sS'1lF3UKy'
p2933
I884
sS'1ka36fM'
p2934
I2388
sS'1oeN05W'
p2935
I5077
sS'1p6zy4F'
p2936
I5486
sS'1cm7k1o'
p2937
I6570
sS'1tLxG3e'
p2938
I5589
sS'1gw4VUW'
p2939
I1017
sS'1gjKIkZ'
p2940
I6280
sS'1oSayMA'
p2941
I2390
sS'1gEMsD4'
p2942
I5079
sS'QeORKs'
p2943
I232
sS'1kEHicR'
p2944
I1105
sS'1lwE9YF'
p2945
I2718
sS'1nXy79K'
p2946
I1315
sS'1sp5rpt'
p2947
I4647
sS'1rkR3O8'
p2948
I2014
sS'1hs6eiM'
p2949
I2392
sS'1hXmzl9'
p2950
I3660
sS'1nWGnU2'
p2951
I4855
sS'1pnIfWz'
p2952
I5083
sS'1mSWy3J'
p2953
I2624
sS'1kxYoJm'
p2954
I723
sS'1kPAzNi'
p2955
I3640
sS'RJMBwh'
p2956
I466
sS'1jwMD0A'
p2957
I5084
sS'1jjkIpr'
p2958
I5085
sS'1o1ZHkH'
p2959
I6573
sS'1pzomvQ'
p2960
I4070
sS'1kAACxQ'
p2961
I5223
sS'1urJs34'
p2962
I2188
sS'1n92Tf9'
p2963
I5224
sS'Pf4XDK'
p2964
I1213
sS'1qyMLVU'
p2965
I2396
sS'1q0cE1y'
p2966
I5086
sS'1gzY50y'
p2967
I2575
sS'1qd3lKM'
p2968
I3824
sS'1kWPtkS'
p2969
I5087
sS'1qyA9eo'
p2970
I1927
sS'1hqc9Vg'
p2971
I4780
sS'1j6cVtl'
p2972
I5227
sS'1prGNo0'
p2973
I5088
sS'1pDegKH'
p2974
I1224
sS'1nZqy0F'
p2975
I2806
sS'1pNmFOs'
p2976
I3624
sS'1kpMZL9'
p2977
I3027
sS'1l93T1s'
p2978
I2398
sS'1ozyvIF'
p2979
I3160
sS'1gT3Hhi'
p2980
I3353
sS'1mjEttn'
p2981
I2914
sS'1lyWBDN'
p2982
I2972
sS'1iHdmIt'
p2983
I1021
sS'1iOYIOa'
p2984
I1259
sS'1sqWlGY'
p2985
I6578
sS'1kDh4UQ'
p2986
I6575
sS'1mfINNR'
p2987
I7226
sS'QNGaHu'
p2988
I582
sS'1jyByfv'
p2989
I2116
sS'1pYLmpc'
p2990
I2399
sS'1kD3VLB'
p2991
I6449
sS'1iErKAf'
p2992
I2461
sS'1m1hWpr'
p2993
I603
sS'1gvS8Sn'
p2994
I6183
sS'1ocAR31'
p2995
I2400
sS'1goHblD'
p2996
I3389
sS'1sr94te'
p2997
I5018
sS'1mhJCSQ'
p2998
I270
sS'1w3ShB3'
p2999
I4681
sS'1wV0Ai0'
p3000
I4204
sS'1jAKrG8'
p3001
I6978
sS'1hlso69'
p3002
I2214
sS'1i5sTAF'
p3003
I5318
sS'1oyZoPG'
p3004
I2271
sS'1p8hjtA'
p3005
I5810
sS'1opUPrb'
p3006
I1631
sS'1jNsfOB'
p3007
I4683
sS'1jCoC8k'
p3008
I2409
sS'n4EiD4'
p3009
I2410
sS'1gtteCY'
p3010
I2411
sS'1jbQEaw'
p3011
I6805
sS'1qWDYgt'
p3012
I6579
sS'1f6CzQB'
p3013
I2426
sS'T84d5K'
p3014
I565
sS'1iLoyn6'
p3015
I5710
sS'1iVVUnm'
p3016
I1529
sS'1uWVJKk'
p3017
I1052
sS'1tydpLF'
p3018
I6800
sS'1lQsbgJ'
p3019
I2429
sS'1ijjB8c'
p3020
I5323
sS'1nIV6Uf'
p3021
I2100
sS'1jOpebd'
p3022
I5097
sS'1nMfT7J'
p3023
I5262
sS'1rBD8Hv'
p3024
I352
sS'R9ZkYa'
p3025
I5098
sS'1k1kz5I'
p3026
I5099
sS'1qqhV1A'
p3027
I6439
sS'1sx6bfN'
p3028
I1154
sS'1iYcOBq'
p3029
I314
sS'1ky5ApR'
p3030
I3642
sS'1i3NXr5'
p3031
I5100
sS'1hscWEX'
p3032
I3822
sS'1iIBkSq'
p3033
I3597
sS'1hshsn3'
p3034
I6612
sS'TCPrV5'
p3035
I2431
sS'1h1mZRx'
p3036
I2432
sS'1hsBNJ0'
p3037
I1748
sS'1n6hEiT'
p3038
I1903
sS'1j2Lopb'
p3039
I4698
sS'1iMwTXP'
p3040
I7072
sS'1kwEKdB'
p3041
I5101
sS'1rOztpM'
p3042
I135
sS'1qsThKP'
p3043
I6925
sS'1l7GXQ6'
p3044
I2433
sS'1hofjZL'
p3045
I6640
sS'1kZ0nXm'
p3046
I1729
sS'1qvQ6F6'
p3047
I4074
sS'1msG0O5'
p3048
I5499
sS'1jKVFr1'
p3049
I2434
sS'1fPWa7y'
p3050
I5991
sS'1obaoTn'
p3051
I4220
sS'1koc8RV'
p3052
I738
sS'1l4UxPr'
p3053
I1848
sS'TwbImI'
p3054
I6580
sS'1lnxHaN'
p3055
I2435
sS'1qwWlbC'
p3056
I2047
sS'1nOSTG0'
p3057
I7228
sS'1lpoFoy'
p3058
I4904
sS'1pz8wkE'
p3059
I1199
sS'1hde4fv'
p3060
I5103
sS'1yTTFHL'
p3061
I5104
sS'1kUuBcr'
p3062
I2436
sS'1kNHaaZ'
p3063
I3289
sS'1lHukdl'
p3064
I4717
sS'1kSKCwl'
p3065
I5105
sS'1ww1MJm'
p3066
I537
sS'1z0XRFV'
p3067
I5534
sS'1mny00y'
p3068
I3115
sS'1pL3GEl'
p3069
I1226
sS'1jDd4Bj'
p3070
I5108
sS'1kyyB3i'
p3071
I6735
sS'1kitpfj'
p3072
I1941
sS'1lioY8f'
p3073
I7229
sS'1kzv0Ou'
p3074
I2438
sS'1r4K9iG'
p3075
I83
sS'1m51g0O'
p3076
I253
sS'1l1QRBa'
p3077
I4803
sS'1k39kzr'
p3078
I1208
sS'1jrV5OC'
p3079
I5111
sS'1nFHB5Q'
p3080
I2604
sS'1jzLR2p'
p3081
I2441
sS'QETA8z'
p3082
I1934
sS'1h4xnIn'
p3083
I2442
sS'1p21HeF'
p3084
I3163
sS'1fLzpSt'
p3085
I4730
sS'1jQqpuL'
p3086
I2449
sS'1nYbCik'
p3087
I151
sS'UUKLu0'
p3088
I6307
sS'1qx0mgo'
p3089
I2450
sS'1y37X8t'
p3090
I2451
sS'1lFpspR'
p3091
I6583
sS'1kcMp30'
p3092
I6584
sS'Tsb9eq'
p3093
I2452
sS'1tAzAkn'
p3094
I5112
sS'R4wYPl'
p3095
I358
sS'1gyRp2w'
p3096
I709
sS'1i5udKt'
p3097
I895
sS'1bf8qWF'
p3098
I959
sS'1oPNuie'
p3099
I3623
sS'1p0GPW2'
p3100
I1229
sS'Swy4E6'
p3101
I372
sS'1iaOGXo'
p3102
I5998
sS'1grnEkk'
p3103
I3271
sS'1kxK0Mr'
p3104
I2453
sS'1oC8rPZ'
p3105
I6045
sS'1iO27BI'
p3106
I3012
sS'1jdJpVi'
p3107
I7231
sS'1pvy0Tt'
p3108
I5113
sS'1gzCxB1'
p3109
I1542
sS'1qpgSiQ'
p3110
I2454
sS'1n5fufK'
p3111
I90
sS'1i2QkKz'
p3112
I6715
sS'1sS2T3j'
p3113
I118
sS'1lcgK2X'
p3114
I2455
sS'1sCnKHI'
p3115
I4566
sS'1jBtvEn'
p3116
I2456
sS'1tzLStp'
p3117
I2457
sS'1pFoJVZ'
p3118
I5114
sS'1lOq34Y'
p3119
I4748
sS'1i053XN'
p3120
I140
sS'1yolTu8'
p3121
I173
sS'1nKz9Er'
p3122
I2465
sS'1j74obm'
p3123
I7006
sS'1i8E4Iq'
p3124
I2466
sS'1iSfYHh'
p3125
I2907
sS'1gkNaIl'
p3126
I6586
sS'1dYfij0'
p3127
I5316
sS'1jerEoI'
p3128
I1640
sS'1pzcSIJ'
p3129
I5546
sS'1kwJ0Nm'
p3130
I2467
sS'1oUrRMP'
p3131
I718
sS'1jcdUd6'
p3132
I6588
sS'1nx0gRg'
p3133
I2487
sS'1pbWDRH'
p3134
I3066
sS'1le2pxP'
p3135
I6589
sS'ToiD16'
p3136
I7203
sS'1gEK41z'
p3137
I6710
sS'1kNQQlt'
p3138
I3694
sS'1mZs7MS'
p3139
I3438
sS'1pN3f9x'
p3140
I2488
sS'1n7laX5'
p3141
I6108
sS'1qR2Ovt'
p3142
I442
sS'1eZWoca'
p3143
I5324
sS'1sB4aK7'
p3144
I2489
sS'SoMCpv'
p3145
I6398
sS'1qmnsXd'
p3146
I2245
sS'1l2sEYm'
p3147
I3093
sS'1kJWCQO'
p3148
I3252
sS'1nk6yn0'
p3149
I4283
sS'TbYhIA'
p3150
I1891
sS'1oIrkh4'
p3151
I2493
sS'1j41W5b'
p3152
I2905
sS'1k9Wv54'
p3153
I1338
sS'1kJiqxo'
p3154
I6190
sS'1pNeKOp'
p3155
I5330
sS'1g8JVDl'
p3156
I1228
sS'1mzcoSy'
p3157
I7019
sS'1mV2PMt'
p3158
I7194
sS'1tHZANw'
p3159
I5331
sS'1iNg6JH'
p3160
I408
sS'1nPOlA5'
p3161
I2497
sS'1h9s0Yv'
p3162
I2669
sS'1mrj1X4'
p3163
I3781
sS'1k7xW4d'
p3164
I2592
sS'1nQSGRG'
p3165
I2498
sS'1sILFFw'
p3166
I3755
sS'ThMB74'
p3167
I5095
sS'1jUBon3'
p3168
I1906
sS'1ejTnCV'
p3169
I6590
sS'1iwPnBp'
p3170
I3448
sS'1gXUwvQ'
p3171
I4537
sS'1lpPyfG'
p3172
I5333
sS'RrDuPa'
p3173
I360
sS'Uo8ClX'
p3174
I3130
sS'1gjI4LU'
p3175
I2887
sS'TKr1IW'
p3176
I215
sS'1qk8IWu'
p3177
I6592
sS'1pCDREa'
p3178
I5785
sS'1jKMMgV'
p3179
I7076
sS'1mskbhz'
p3180
I3759
sS'1kPFq0N'
p3181
I6843
sS'1gpYSB5'
p3182
I6864
sS'1kG8Ds3'
p3183
I5334
sS'1jlZabF'
p3184
I4545
sS'1pFCIf7'
p3185
I5778
sS'1lVmq2g'
p3186
I5203
sS'1p0ObYy'
p3187
I2112
sS'1jvocpX'
p3188
I2510
sS'1kFlBGr'
p3189
I2511
sS'1neR4jT'
p3190
I1348
sS'1fBdqNZ'
p3191
I4553
sS'1kLtbj9'
p3192
I2512
sS'1l039r5'
p3193
I3242
sS'1q4v6Fm'
p3194
I2513
sS'1kDVhuB'
p3195
I1072
sS'1ppFpU9'
p3196
I555
sS'1oqUelO'
p3197
I2459
sS'1ia3BFy'
p3198
I5336
sS'RHInF7'
p3199
I88
sS'1jhQIoY'
p3200
I3740
sS'1iDwYxr'
p3201
I3443
sS'1loHxr8'
p3202
I4441
sS'1hJFcJk'
p3203
I1060
sS'QesC7u'
p3204
I1443
sS'1gR3wbn'
p3205
I6593
sS'1mKh32v'
p3206
I6841
sS'1gXTi3X'
p3207
I2527
sS'1f3HHPK'
p3208
I5135
sS'1h5MNfe'
p3209
I2143
sS'Pod6WN'
p3210
I5276
sS'1nUMfPg'
p3211
I2530
sS'1kWZbiS'
p3212
I4339
sS'1pTh21k'
p3213
I2672
sS'1prci2D'
p3214
I3631
sS'SGfxFX'
p3215
I6594
sS'1gwfPtv'
p3216
I3942
sS'1qFxMtp'
p3217
I4214
sS'1kiTPzf'
p3218
I5338
sS'1rDdrT2'
p3219
I2532
sS'1heYTZt'
p3220
I4108
sS'1ghqpVk'
p3221
I2724
sS'1m35GEV'
p3222
I202
sS'1ppXWiV'
p3223
I5339
sS'1pbZURG'
p3224
I2915
sS'1kwZ5lX'
p3225
I2533
sS'1hSPUey'
p3226
I5146
sS'1pYqIIg'
p3227
I2097
sS'1iTA7fV'
p3228
I2534
sS'1kvCVAO'
p3229
I5340
sS'1qmBCY9'
p3230
I2447
sS'1j8R5qP'
p3231
I472
sS'1hnJSUZ'
p3232
I5341
sS'1lYUp4I'
p3233
I2535
sS'1hvyyE2'
p3234
I5188
sS'1gokYDX'
p3235
I2928
sS'1m5pjh1'
p3236
I5148
sS'1jTGelN'
p3237
I2536
sS'1bixsIy'
p3238
I2537
sS'1tOjNP3'
p3239
I4509
sS'SQqEM4'
p3240
I4922
sS'1gl22Gw'
p3241
I6572
sS'1qu7Y34'
p3242
I2538
sS'1kyTaNB'
p3243
I6548
sS'1kW00d2'
p3244
I2539
sS'1mwYH55'
p3245
I3823
sS'1gfJ9EJ'
p3246
I6692
sS'1qtHJe5'
p3247
I4576
sS'1lX66M4'
p3248
I3344
sS'1hzHgOf'
p3249
I2541
sS'1jenPQz'
p3250
I6597
sS'1o4bosv'
p3251
I2733
sS'1tJfzbo'
p3252
I2543
sS'1iSEbYM'
p3253
I464
sS'1oK1Tfm'
p3254
I5345
sS'1kNiVtn'
p3255
I6599
sS'1lPwzfA'
p3256
I566
sS'1jCmEES'
p3257
I2244
sS'1rlbk6B'
p3258
I5156
sS'1tMkFDR'
p3259
I4926
sS'RRlTBL'
p3260
I1030
sS'1oB8OtS'
p3261
I2632
sS'1iXD7X5'
p3262
I5159
sS'14PrFGg'
p3263
I6842
sS'UQ4aw7'
p3264
I1787
sS'1isisYJ'
p3265
I790
sS'1jNEEfO'
p3266
I2022
sS'1iK55T9'
p3267
I2470
sS'Tvbr36'
p3268
I1477
sS'1kOtxFv'
p3269
I2548
sS'1jNukEo'
p3270
I5090
sS'1jkDb01'
p3271
I5346
sS'1gDkxWu'
p3272
I5347
sS'1gzJv9k'
p3273
I735
sS'ToLxOM'
p3274
I2554
sS'1ryfaJi'
p3275
I2555
sS'1nIOiWw'
p3276
I3819
sS'1oRfdyf'
p3277
I5964
sS'1gSupGB'
p3278
I5748
sS'1gGEhsP'
p3279
I2560
sS'1jvoK9w'
p3280
I2561
sS'1msOjv4'
p3281
I1383
sS'1mA13QY'
p3282
I1002
sS'1sOHd6n'
p3283
I4595
sS'1jielni'
p3284
I4596
sS'1k5q7wa'
p3285
I1221
sS'1nhDf4K'
p3286
I4597
sS'1nTdxoI'
p3287
I239
sS'1gpMctO'
p3288
I1822
sS'1gcYYwb'
p3289
I2563
sS'1kXi7ke'
p3290
I7101
sS'1izrsPq'
p3291
I2395
sS'1jA8OH6'
p3292
I2564
sS'1qL2bX0'
p3293
I5494
sS'1pQdwSD'
p3294
I5353
sS'1lWDkMD'
p3295
I2567
sS'1ld4aQV'
p3296
I2570
sS'1m78ekK'
p3297
I7129
sS'1pWxMDI'
p3298
I3101
sS'UNufMp'
p3299
I196
sS'1g9QDcf'
p3300
I2571
sS'1lF5pZa'
p3301
I5920
sS'1qlSAWG'
p3302
I5704
sS'T3vjdH'
p3303
I4847
sS'1kyFYUd'
p3304
I3685
sS'1hanuc9'
p3305
I2755
sS'1i8aHr5'
p3306
I258
sS'1sJR6UL'
p3307
I2573
sS'1pBr0Sy'
p3308
I5356
sS'1jpSl8t'
p3309
I4738
sS'1iJCKwc'
p3310
I7235
sS'1nrJ0Bd'
p3311
I4565
sS'1plhRQt'
p3312
I5357
sS'1wugMaH'
p3313
I2528
sS'1oyIYnj'
p3314
I386
sS'U8dHhQ'
p3315
I6574
sS'1iCdjga'
p3316
I5178
sS'1p6FpIT'
p3317
I285
sS'1jwLxaG'
p3318
I4583
sS'SY4tnP'
p3319
I22
sS'1gHLQiF'
p3320
I3837
sS'1ftRYrN'
p3321
I2883
sS'1pbdswN'
p3322
I7180
sS'1va9Xrx'
p3323
I2579
sS'1mBQ7Dy'
p3324
I2580
sS'SLvOc4'
p3325
I1430
sS'1uFuwyA'
p3326
I5358
sS'1mt5Bd5'
p3327
I1828
sS'1ikhpik'
p3328
I2581
sS'1ojVN8u'
p3329
I2582
sS'1ngtRj4'
p3330
I6606
sS'1rENVuZ'
p3331
I4226
sS'1pg7Iks'
p3332
I2583
sS'1gBuKCY'
p3333
I2584
sS'1kZOiRk'
p3334
I7095
sS'1gH7Mue'
p3335
I2588
sS'1kJtI80'
p3336
I4161
sS'1o1PCWj'
p3337
I5360
sS'1lkO8Qh'
p3338
I4246
sS'1odtyrL'
p3339
I7236
sS'1x2kEyU'
p3340
I2361
sS'TawiZS'
p3341
I2670
sS'1g2cSeG'
p3342
I4623
sS'1mL25tm'
p3343
I6829
sS'SCDFJB'
p3344
I2495
sS'1oBwHl9'
p3345
I6607
sS'18HQm9O'
p3346
I2593
sS'1jqSPMd'
p3347
I6002
sS'Sz1qSs'
p3348
I5361
sS'1hhOMTs'
p3349
I719
sS'1kPhLZI'
p3350
I2345
sS'1kLloQm'
p3351
I2568
sS'1qLmRhE'
p3352
I6959
sS'1pzfGoZ'
p3353
I5362
sS'1mvKyGP'
p3354
I2430
sS'1mB3X7J'
p3355
I6488
sS'1jtiss7'
p3356
I2976
sS'1m8MpEi'
p3357
I5895
sS'1oUcDaO'
p3358
I6886
sS'1hyrbxY'
p3359
I654
sS'UqmonY'
p3360
I1594
sS'1nUMYjF'
p3361
I3627
sS'U63Nh1'
p3362
I4351
sS'1pbiQPI'
p3363
I2600
sS'1iPJaK3'
p3364
I6305
sS'1gRoNSt'
p3365
I3318
sS'1jD6JWM'
p3366
I5532
sS'1h6sXAw'
p3367
I469
sS'1oTmkXc'
p3368
I3112
sS'1mr0OZB'
p3369
I962
sS'1nVakGU'
p3370
I6608
sS'1qph8v8'
p3371
I5711
sS'SvttCh'
p3372
I5363
sS'1oxTrj6'
p3373
I4355
sS'1l7UFT3'
p3374
I5537
sS'1tJhyws'
p3375
I5757
sS'1o4e2eO'
p3376
I6609
sS'1nHlcGC'
p3377
I2299
sS'SPFKSU'
p3378
I341
sS'1qjEmpo'
p3379
I5364
sS'1uS6LDx'
p3380
I4641
sS'19rj8ua'
p3381
I953
sS'1vuDPBH'
p3382
I2637
sS'U7sBoM'
p3383
I594
sS'1vuDPBD'
p3384
I2638
sS'1pJMwH0'
p3385
I5365
sS'1oZ275A'
p3386
I6173
sS'1hLBVJs'
p3387
I585
sS'1kbQxk2'
p3388
I2639
sS'1haDHUp'
p3389
I3530
sS'1p3p73t'
p3390
I5415
sS'1heirNo'
p3391
I1638
sS'1lmsLD1'
p3392
I5366
sS'1miqXd2'
p3393
I3782
sS'1guQiKF'
p3394
I5214
sS'1jmzeZN'
p3395
I13
sS'UWCYMD'
p3396
I7160
sS'TKQ5Id'
p3397
I2640
sS'R5CK3W'
p3398
I5215
sS'1ku4Ttp'
p3399
I2623
sS'1lpvWW6'
p3400
I5218
sS'1qLzfOQ'
p3401
I2293
sS'1qqQPbs'
p3402
I3592
sS'1hePIYw'
p3403
I1738
sS'1jtxVgh'
p3404
I463
sS'1jaJbyc'
p3405
I6197
sS'1opfQlw'
p3406
I2063
sS'UZ8c5H'
p3407
I5367
sS'1jd9teP'
p3408
I2641
sS'1ky4E0t'
p3409
I6604
sS'1pdOQUq'
p3410
I6143
sS'ROZ1mY'
p3411
I4215
sS'RatVEX'
p3412
I431
sS'1pEO4SE'
p3413
I3879
sS'1fp9bVI'
p3414
I279
sS'1q2bAtg'
p3415
I1620
sS'1gC0Azk'
p3416
I2182
sS'Unhyb7'
p3417
I6361
sS'1mwKjNS'
p3418
I2643
sS'1fyc0hD'
p3419
I5230
sS'1ylDSkI'
p3420
I704
sS'1jIdoza'
p3421
I625
sS'1poHErX'
p3422
I1137
sS'1nNzvbl'
p3423
I4661
sS'1edL3Pk'
p3424
I4053
sS'1hvRQWe'
p3425
I5368
sS'1sPUr4z'
p3426
I5369
sS'1jEYvh2'
p3427
I4664
sS'1hTmfSc'
p3428
I4665
sS'1kyTqMq'
p3429
I4815
sS'1k3T8t1'
p3430
I5370
sS'1hnBteM'
p3431
I2645
sS'1gcS1Lc'
p3432
I4669
sS'UzNM2Z'
p3433
I5861
sS'1gfm0lJ'
p3434
I6770
sS'1jWbAZc'
p3435
I5371
sS'1iKH0jM'
p3436
I5372
sS'1oUmRIB'
p3437
I7237
sS'1fSSnXA'
p3438
I4672
sS'1nKFiSc'
p3439
I2647
sS'1hhpFuq'
p3440
I5373
sS'1pjzC03'
p3441
I6419
sS'1kC2EaK'
p3442
I2648
sS'SWjaHq'
p3443
I2657
sS'1hkiL7D'
p3444
I2613
sS'1kDwA6f'
p3445
I2658
sS'1rdNA3R'
p3446
I1053
sS'1hezq27'
p3447
I1726
sS'1lTeSYf'
p3448
I2659
sS'1gUQQdl'
p3449
I7238
sS'1pJPD1A'
p3450
I4927
sS'1mvL2MJ'
p3451
I5246
sS'1kDF8Jn'
p3452
I5306
sS'TEHQVx'
p3453
I1351
sS'1oX9HtV'
p3454
I4765
sS'1qpvN9s'
p3455
I2841
sS'1jgLsIb'
p3456
I7240
sS'1mxnc04'
p3457
I7161
sS'PRwhI5'
p3458
I2518
sS'1psWwRR'
p3459
I3291
sS'1oYpOuH'
p3460
I363
sS'1kYdepx'
p3461
I3785
sS'1gsYaTw'
p3462
I4162
sS'1gDtdvY'
p3463
I2712
sS'1mvKZiN'
p3464
I418
sS'1l9QNfN'
p3465
I7158
sS'1yVNMdj'
p3466
I5594
sS'1hD5Lu7'
p3467
I1344
sS'1mihbGC'
p3468
I87
sS'V6YpuB'
p3469
I1236
sS'1oROViw'
p3470
I4716
sS'1qie3Ra'
p3471
I503
sS'1jcUemg'
p3472
I5258
sS'1jdw9Qy'
p3473
I6614
sS'1loegi7'
p3474
I6615
sS'1ndZ1Ka'
p3475
I2071
sS'1k0l84k'
p3476
I5518
sS'1hRVEBB'
p3477
I5374
sS'1nwgGL5'
p3478
I551
sS'dqz0JI'
p3479
I3593
sS'1pXONi7'
p3480
I7008
sS'SJtbYb'
p3481
I1162
sS'1hhQ6Ws'
p3482
I1486
sS'1tss2Af'
p3483
I3887
sS'1uqJ0lD'
p3484
I32
sS'ULfR7H'
p3485
I6617
sS'1oDqmm0'
p3486
I5760
sS'1kB9vAW'
p3487
I2837
sS'1oCXHkl'
p3488
I2678
sS'1nmQ936'
p3489
I6208
sS'1sFUDXI'
p3490
I2015
sS'1jBK5y4'
p3491
I5375
sS'1gEDxi3'
p3492
I4137
sS'1nSar2Y'
p3493
I944
sS'1haksVi'
p3494
I2761
sS'1ll0AEo'
p3495
I2680
sS'1l6AaTD'
p3496
I5376
sS'1oRSXFn'
p3497
I5377
sS'QY8FCh'
p3498
I5526
sS'1jWGfog'
p3499
I6520
sS'TdATv'
p3500
I1314
sS'1nbdoMJ'
p3501
I7223
sS'1pBLA82'
p3502
I562
sS'1hufaEc'
p3503
I6619
sS'1jNCYCO'
p3504
I67
sS'1pFlGyD'
p3505
I439
sS'1qHBSBf'
p3506
I7265
sS'1hiz0BQ'
p3507
I1657
sS'1rOFjrb'
p3508
I595
sS'VAgwck'
p3509
I5529
sS'PqyGt8'
p3510
I2682
sS'1hspYCK'
p3511
I5019
sS'QyJHdp'
p3512
I2686
sS'1pSqYWI'
p3513
I6620
sS'1ix2j4j'
p3514
I396
sS'1kyGLsb'
p3515
I4715
sS'1o5zKlN'
p3516
I1533
sS'1kxBfDJ'
p3517
I6621
sS'1sKZ8QM'
p3518
I707
sS'1kOd5DF'
p3519
I528
sS'1gjQnHE'
p3520
I5384
sS'1jaFVCJ'
p3521
I2413
sS'1po4dJV'
p3522
I746
sS'TgLp3Z'
p3523
I6120
sS'1p8CdsZ'
p3524
I4747
sS'82pMG1'
p3525
I6622
sS'1kdJwei'
p3526
I2403
sS'1grPg8U'
p3527
I5385
sS'1kreEMe'
p3528
I72
sS'1oL6Wxy'
p3529
I7120
sS'1kOEm8O'
p3530
I1795
sS'1v5vfcp'
p3531
I5386
sS'1oJsqsO'
p3532
I5575
sS'1kWiZCJ'
p3533
I5092
sS'1tKR8KP'
p3534
I4010
sS'1qa7SeR'
p3535
I5388
sS'1jyNXQE'
p3536
I4368
sS'1pt2VQk'
p3537
I5701
sS'1p9D2pn'
p3538
I208
sS'1gWhH9O'
p3539
I5389
sS'1oNU87I'
p3540
I6491
sS'1jlXcZK'
p3541
I4705
sS'1kW811p'
p3542
I2739
sS'1m4FQ2w'
p3543
I4729
sS'1luklZQ'
p3544
I1436
sS'1pRoMOy'
p3545
I4982
sS'1iN38VQ'
p3546
I5390
sS'1ob3cFk'
p3547
I7241
sS'1jabBs6'
p3548
I6483
sS'1jEwoCS'
p3549
I4160
sS'1kL14Dy'
p3550
I3972
sS'1gBtsrr'
p3551
I3832
sS'1lWGJtC'
p3552
I2690
sS'1oB07Qx'
p3553
I2610
sS'UGh2VL'
p3554
I3342
sS'SpDlxK'
p3555
I5963
sS'1gHrFfl'
p3556
I3444
sS'1kZ7PjJ'
p3557
I2509
sS'1oOP9DO'
p3558
I6187
sS'1oZC4aZ'
p3559
I6801
sS'1k6ckWX'
p3560
I587
sS'1kl66G6'
p3561
I5391
sS'1pPLYgM'
p3562
I2261
sS'1n2sLa6'
p3563
I810
sS'SV0VmC'
p3564
I4741
sS'1kFtGhl'
p3565
I2696
sS'1mDQH2T'
p3566
I5204
sS'1k39TaV'
p3567
I2697
sS'1nSQRVn'
p3568
I5636
sS'1lyp48b'
p3569
I3181
sS'RD9r81'
p3570
I5781
sS'1gPQKVk'
p3571
I2698
sS'1sGYHDt'
p3572
I5394
sS'1mgppA8'
p3573
I2895
sS'1nRyMqJ'
p3574
I963
sS'1vNVIM6'
p3575
I2897
sS'1h8DRWw'
p3576
I3583
sS'1tptIKM'
p3577
I2699
sS'1h9kHjk'
p3578
I6626
sS'1jI2PQP'
p3579
I2226
sS'1jTN3Up'
p3580
I4750
sS'1p3HdCS'
p3581
I2700
sS'1kycVoi'
p3582
I5414
sS'1nKG0Ne'
p3583
I2312
sS'1mfze1w'
p3584
I4019
sS'1lccJeP'
p3585
I5395
sS'1iT4lQ7'
p3586
I1265
sS'UvPFO1'
p3587
I1352
sS'1qqbQT4'
p3588
I2979
sS'1n6dZBw'
p3589
I2702
sS'1pU4ioZ'
p3590
I2477
sS'1jTODVE'
p3591
I6627
sS'1jUTUgD'
p3592
I4759
sS'RnwALZ'
p3593
I5396
sS'1plA2Wl'
p3594
I2811
sS'1qkitGh'
p3595
I2237
sS'1oJW6qe'
p3596
I6000
sS'1oLJdQm'
p3597
I1434
sS'1kYI1ma'
p3598
I2762
sS'1hHpMEj'
p3599
I5326
sS'1s0cgMb'
p3600
I74
sS'YbGEWk'
p3601
I4433
sS'1g8t0RM'
p3602
I6907
sS'1kO3hta'
p3603
I2049
sS'1mkEIVl'
p3604
I2763
sS'1njQExB'
p3605
I286
sS'1odqV5Y'
p3606
I1301
sS'1iL2AVe'
p3607
I2906
sS'1mgcfEM'
p3608
I2764
sS'POvqbb'
p3609
I2765
sS'1fVvnBv'
p3610
I1014
sS'1gsTcql'
p3611
I3009
sS'1pvJkyz'
p3612
I2860
sS'1jdUjdG'
p3613
I7245
sS'1nNPdnY'
p3614
I2766
sS'1mXvMav'
p3615
I6035
sS'1psoCQb'
p3616
I4381
sS'1hWz949'
p3617
I6742
sS'1gceM23'
p3618
I2767
sS'1nZCjlY'
p3619
I2292
sS'TF1qBB'
p3620
I4538
sS'1tYaJau'
p3621
I2083
sS'1klrMlG'
p3622
I2171
sS'1plauIy'
p3623
I6616
sS'1hbLGLc'
p3624
I292
sS'1pUgLeB'
p3625
I4908
sS'1kB9kWo'
p3626
I5402
sS'1kTYrMA'
p3627
I2753
sS'1hrHgA3'
p3628
I1677
sS'TgwIxk'
p3629
I368
sS'1hoR2Ty'
p3630
I5403
sS'1k5usn0'
p3631
I5626
sS'1kTAU1B'
p3632
I1895
sS'1yiO3qj'
p3633
I511
sS'1mvnfNg'
p3634
I3710
sS'19KElBb'
p3635
I6223
sS'1jykfv1'
p3636
I2614
sS'1kk058z'
p3637
I2184
sS'1nOe9ed'
p3638
I2769
sS'1josnOz'
p3639
I5623
sS'1phwy3s'
p3640
I3953
sS'1nZIuGa'
p3641
I5436
sS'1jIHNgo'
p3642
I219
sS'1ucmMRm'
p3643
I1901
sS'RybXwL'
p3644
I1816
sS'1lJOSTJ'
p3645
I5999
sS'1gl5gJH'
p3646
I4551
sS'1hYccee'
p3647
I5130
sS'1iDQ7hi'
p3648
I4552
sS'1pFDb3p'
p3649
I2838
sS'1inT9KI'
p3650
I2041
sS'1nfmTgf'
p3651
I2195
sS'1g36Me9'
p3652
I6998
sS'1r8nymt'
p3653
I4555
sS'1iFMAQt'
p3654
I6999
sS'1gqHfB4'
p3655
I2771
sS'1rrBRPa'
p3656
I805
sS'UrchPQ'
p3657
I3650
sS'1hkGi8z'
p3658
I6636
sS'1n7fGMJ'
p3659
I2773
sS'1kCUn6z'
p3660
I2485
sS'1oRBGP4'
p3661
I6637
sS'1hBhWrr'
p3662
I234
sS'WHuS4B'
p3663
I4417
sS'1nPYC0p'
p3664
I7248
sS'1k3rbGn'
p3665
I2774
sS'1i5tIOl'
p3666
I5627
sS'1jsMbFg'
p3667
I3878
sS'1lRWtPY'
p3668
I6638
sS'1tUKVhe'
p3669
I2385
sS'1hKav0L'
p3670
I6639
sS'1lsQ4GB'
p3671
I6074
sS'1smLiyt'
p3672
I4577
sS'1mLuQ99'
p3673
I6421
sS'1kFCtLw'
p3674
I6830
sS'1sEIO0f'
p3675
I5409
sS'1kJK4dI'
p3676
I1012
sS'TmcZNj'
p3677
I4191
sS'StMzsE'
p3678
I5405
sS'1qIJMHA'
p3679
I626
sS'1vTFIYX'
p3680
I1623
sS'1gdA0MH'
p3681
I2217
sS'1lLvgtM'
p3682
I430
sS'Tq2Hvo'
p3683
I6759
sS'1qqABym'
p3684
I1918
sS'UGWuwo'
p3685
I3015
sS'1iuXvyg'
p3686
I2776
sS'1pWWO6V'
p3687
I2777
sS'1oImBfd'
p3688
I6089
sS'1lv7AcY'
p3689
I5447
sS'1kqZ146'
p3690
I5410
sS'1k2iGKy'
p3691
I182
sS'1lPh478'
p3692
I2779
sS'1nRTqHv'
p3693
I5465
sS'1hXvuRi'
p3694
I2783
sS'SPkSuU'
p3695
I2784
sS'1nS2Q4k'
p3696
I6310
sS'1vlIpPS'
p3697
I3588
sS'1jxBRf2'
p3698
I274
sS'1hh9kcg'
p3699
I2785
sS'1glVo2U'
p3700
I2618
sS'1hkGxQC'
p3701
I5632
sS'1roha6T'
p3702
I2405
sS'1l3A8ix'
p3703
I1652
sS'1nIo0nu'
p3704
I1489
sS'UsrrEs'
p3705
I5868
sS'1gwbfvT'
p3706
I7250
sS'1mslugt'
p3707
I7081
sS'1iwBpdg'
p3708
I756
sS'1myAmKk'
p3709
I1056
sS'1iTPx5L'
p3710
I775
sS'1gtBfYJ'
p3711
I6196
sS'1oMspJ7'
p3712
I5355
sS'1jELMAK'
p3713
I3957
sS'1kJwiKS'
p3714
I6605
sS'1kM0xOy'
p3715
I5044
sS'1hbBAK6'
p3716
I2786
sS'1jtTFmH'
p3717
I5096
sS'1pCOGpO'
p3718
I1671
sS'1kzdaQV'
p3719
I519
sS'1mDeXkU'
p3720
I6709
sS'1lJ8YgV'
p3721
I4376
sS'1jdiSX3'
p3722
I4983
sS'RAyjOe'
p3723
I5456
sS'QNUdNc'
p3724
I2483
sS'1egOlah'
p3725
I2332
sS'1nWGBKH'
p3726
I1171
sS'1dKobfN'
p3727
I5160
sS'1m04Mqr'
p3728
I4589
sS'Sw6Qx2'
p3729
I6641
sS'1oN6Dkv'
p3730
I4396
sS'1k3TcZB'
p3731
I619
sS'1noFvIp'
p3732
I2496
sS'UqZbCg'
p3733
I6600
sS'1nS9fwo'
p3734
I3896
sS'1hzRU7T'
p3735
I5401
sS'1x1mdNI'
p3736
I987
sS'1pCjgiB'
p3737
I2608
sS'1k2b8mv'
p3738
I2787
sS'1ko4jA7'
p3739
I4709
sS'TE6KEH'
p3740
I6656
sS'1jNyRa7'
p3741
I2595
sS'1jlpgM3'
p3742
I6657
sS'1pKeeU8'
p3743
I3641
sS'1mfly6E'
p3744
I2169
sS'1jTNkRF'
p3745
I747
sS'1oqU9CM'
p3746
I2954
sS'S9w2K4'
p3747
I2788
sS'USkpsS'
p3748
I6658
sS'1qSzIMe'
p3749
I6659
sS'1pcls3p'
p3750
I2789
sS'1k9na1Y'
p3751
I2790
sS'16J6ULb'
p3752
I2334
sS'R7qXBR'
p3753
I2607
sS'V5ob29'
p3754
I2791
sS'1kRwtks'
p3755
I2792
sS'UuROtt'
p3756
I7057
sS'1jUT7Y7'
p3757
I5412
sS'1nYdSVS'
p3758
I6660
sS'TpKqhZ'
p3759
I2210
sS'1lPlIVa'
p3760
I295
sS'1m6eTLM'
p3761
I1784
sS'R1iyPu'
p3762
I6565
sS'1oaiDO9'
p3763
I4304
sS'1kKLnMA'
p3764
I5416
sS'1fSnGRQ'
p3765
I6299
sS'1jBxZoL'
p3766
I1873
sS'1dRhFSd'
p3767
I2795
sS'1irnjiP'
p3768
I3776
sS'SM1b6t'
p3769
I4111
sS'T2FOy2'
p3770
I2796
sS'1iklrmN'
p3771
I5194
sS'1irnjiV'
p3772
I5462
sS'1oKRlgJ'
p3773
I1761
sS'1nX6KsS'
p3774
I5418
sS'UNUEtR'
p3775
I6803
sS'1qdOj4z'
p3776
I4948
sS'1kLVL3s'
p3777
I4964
sS'1kKIabr'
p3778
I2803
sS'SFhWkd'
p3779
I4337
sS'1kd3B7E'
p3780
I2804
sS'1nWMkAf'
p3781
I583
sS'1j8cuQW'
p3782
I3072
sS'1jGjlw6'
p3783
I4984
sS'1je0x8H'
p3784
I2805
sS'1q7rDpk'
p3785
I7254
sS'1oXscOZ'
p3786
I2067
sS'1pE4fOW'
p3787
I6667
sS'1oBN0M8'
p3788
I4956
sS'1m5KxpZ'
p3789
I2812
sS'1jOl0Bh'
p3790
I162
sS'1lneSo3'
p3791
I6662
sS'1nNJxfC'
p3792
I5419
sS'1qqcaiP'
p3793
I2813
sS'1jfwzQP'
p3794
I2814
sS'1q1A3yY'
p3795
I66
sS'1kGxhZm'
p3796
I6492
sS'1pB3FzA'
p3797
I5422
sS'TQBlQ5'
p3798
I3146
sS'1poxer2'
p3799
I4624
sS'1pyyF35'
p3800
I2815
sS'SWgHgz'
p3801
I1781
sS'1kPULyz'
p3802
I4454
sS'1q2pUyQ'
p3803
I5424
sS'1mx0i9c'
p3804
I4888
sS'1iGOCQQ'
p3805
I5917
sS'1g0ajd3'
p3806
I4629
sS'1vKA2QT'
p3807
I4630
sS'1kDclFc'
p3808
I5913
sS'Urxr09'
p3809
I1633
sS'1ikvdrS'
p3810
I2726
sS'1nKXvhj'
p3811
I3268
sS'TLtm6U'
p3812
I5011
sS'1fVTXlP'
p3813
I1051
sS'1pk22Gp'
p3814
I5426
sS'1jLza6f'
p3815
I5481
sS'VqTMeN'
p3816
I6663
sS'1hqwiun'
p3817
I1408
sS'1jL3JrI'
p3818
I2241
sS'1peFNRX'
p3819
I7139
sS'1okc4se'
p3820
I2817
sS'1lO1lHb'
p3821
I187
sS'1h4f31R'
p3822
I3688
sS'1kXwTt0'
p3823
I356
sS'1n1h5Sw'
p3824
I6697
sS'1qDiW6t'
p3825
I3412
sS'HZtrxO'
p3826
I4434
sS'1ltIgbu'
p3827
I126
sS'1kTgDsI'
p3828
I7247
sS'1oqnSvv'
p3829
I5200
sS'1kTSPoC'
p3830
I2818
sS'UJiTJr'
p3831
I2819
sS'1pvtsfs'
p3832
I2820
sS'1lcAgfE'
p3833
I5484
sS'1jb7XOJ'
p3834
I6664
sS'1oPWt5H'
p3835
I5420
sS'1sROEvp'
p3836
I2821
sS'1p9pwy4'
p3837
I2822
sS'1mYqImd'
p3838
I1516
sS'UaWzYA'
p3839
I2824
sS'1kjtwf9'
p3840
I3253
sS'Qfp5FV'
p3841
I660
sS'1gI2aQp'
p3842
I2428
sS'1prF9DW'
p3843
I624
sS'1pSrN19'
p3844
I2825
sS'1wmsnbI'
p3845
I4459
sS'1iEQ3hn'
p3846
I2826
sS'UU7oz8'
p3847
I5428
sS'1kJvo0R'
p3848
I748
sS'1hdl2l9'
p3849
I2827
sS'1mMxWtG'
p3850
I417
sS'1h73K97'
p3851
I5754
sS'1fRmUzb'
p3852
I351
sS'Tnd17V'
p3853
I1478
sS'1ljltjn'
p3854
I2319
sS'1mjoizH'
p3855
I6562
sS'OQgZTt'
p3856
I5219
sS'1nXitZw'
p3857
I3002
sS'1ljYUI8'
p3858
I869
sS'UQkKMP'
p3859
I5378
sS'1lok6A1'
p3860
I2829
sS'1iAvW4N'
p3861
I283
sS'1lhViti'
p3862
I2830
sS'1hheIPg'
p3863
I3618
sS'1hiDSNh'
p3864
I3403
sS'1nMIZ6G'
p3865
I2831
sS'T5TsQT'
p3866
I3471
sS'1pCUn5Y'
p3867
I2933
sS'1lt88Fd'
p3868
I2832
sS'1nZSran'
p3869
I2833
sS'1grzqvj'
p3870
I3369
sS'1gHcFTQ'
p3871
I132
sS'1sNURZd'
p3872
I6971
sS'RV2Hna'
p3873
I2836
sS'1ouuvgu'
p3874
I4782
sS'1l47y0v'
p3875
I2185
sS'1lIp1eN'
p3876
I821
sS'1ouItuL'
p3877
I178
sS'1oOHo0B'
p3878
I2782
sS'1h3wFLv'
p3879
I5765
sS'1nRQvyf'
p3880
I4663
sS'1qx0FHZ'
p3881
I6996
sS'fapila'
p3882
I2646
sS'1kNaxth'
p3883
I4668
sS'1jpy289'
p3884
I7239
sS'1g9KJYK'
p3885
I6668
sS'1hlCsM6'
p3886
I2746
sS'1lmI6TZ'
p3887
I5557
sS'1gv5e2e'
p3888
I7258
sS'1hHylju'
p3889
I240
sS'1dYXPa3'
p3890
I2839
sS'1iXhhnQ'
p3891
I1125
sS'T2Bcbj'
p3892
I6334
sS'1o2EmJg'
p3893
I1248
sS'1nrZkSr'
p3894
I4673
sS'S0622z'
p3895
I2843
sS'1nNCDGb'
p3896
I2844
sS'1nSuku8'
p3897
I2704
sS'T6V8Jy'
p3898
I4007
sS'1ikX6wN'
p3899
I6669
sS'1mzzfxc'
p3900
I5560
sS'1pNzg4t'
p3901
I2360
sS'1iFxLk2'
p3902
I5242
sS'1rbCYCD'
p3903
I346
sS'1mzxYWW'
p3904
I5561
sS'SDpBPB'
p3905
I5351
sS'1nZnEZF'
p3906
I384
sS'UOgYDr'
p3907
I6160
sS'1k2mHLz'
p3908
I4474
sS'1ujbjS8'
p3909
I3508
sS'1l5r8Jz'
p3910
I2212
sS'1q4YokW'
p3911
I2846
sS'1mBI3WJ'
p3912
I2847
sS'1jyyRud'
p3913
I2848
sS'1kwUgEQ'
p3914
I2119
sS'1oAqJOo'
p3915
I4032
sS'1q2crHV'
p3916
I2850
sS'1nBsvAb'
p3917
I4687
sS'1kFuCAT'
p3918
I4455
sS'1psVzZG'
p3919
I7219
sS'TVtYH6'
p3920
I2225
sS'1pEYIWL'
p3921
I680
sS'1jZBdnh'
p3922
I5693
sS'1qmhdCR'
p3923
I3780
sS'1tzXPz0'
p3924
I486
sS'1o0ZqfL'
p3925
I1999
sS'VgZCQ0'
p3926
I3299
sS'1sMVVwu'
p3927
I305
sS'1fAdsWa'
p3928
I5997
sS'S0itw2'
p3929
I6861
sS'1iIrYGg'
p3930
I6670
sS'1fAdsWo'
p3931
I4690
sS'1iQRnlY'
p3932
I4165
sS'1lC3PZe'
p3933
I5149
sS'1gXR0l4'
p3934
I3899
sS'1ppaVye'
p3935
I2324
sS'1iKbf5G'
p3936
I2853
sS'1z0LM3q'
p3937
I3275
sS'1mFYZaV'
p3938
I4856
sS'1yFd4fp'
p3939
I2855
sS'1jl38RT'
p3940
I2856
sS'1jhRCTY'
p3941
I2857
sS'1kcAtue'
p3942
I124
sS'1mxwlFM'
p3943
I1381
sS'TEduTr'
p3944
I1788
sS'YsRdUc'
p3945
I6582
sS'UpecnN'
p3946
I819
sS'1pvx1m4'
p3947
I2862
sS'1pltwOO'
p3948
I2810
sS'1qzqzen'
p3949
I2246
sS'1kYq36r'
p3950
I6671
sS'1kLrMMp'
p3951
I2864
sS'1mHCp3m'
p3952
I217
sS'1iVYI3F'
p3953
I5570
sS'1ndJiHw'
p3954
I7031
sS'1hfLm3M'
p3955
I6205
sS'1gEIYO8'
p3956
I3143
sS'1nXgx33'
p3957
I5930
sS'S9IBFx'
p3958
I455
sS'1kPbsKy'
p3959
I2866
sS'1iwvtXi'
p3960
I229
sS'1ljzrSc'
p3961
I6192
sS'1pRuwvr'
p3962
I2867
sS'1hdqtGr'
p3963
I2348
sS'1nK4czZ'
p3964
I5715
sS'1tD4997'
p3965
I6189
sS'1hbHcnU'
p3966
I2065
sS'1lrFghz'
p3967
I2118
sS'1iSuUQC'
p3968
I2868
sS'1qevezS'
p3969
I3842
sS'1kMckQ0'
p3970
I2918
sS'TsQuq1'
p3971
I7099
sS'1qIVMvv'
p3972
I6679
sS'1o2ZXOv'
p3973
I729
sS'1qEK6Kk'
p3974
I7260
sS'1hnjKDM'
p3975
I4245
sS'QqZHNX'
p3976
I4833
sS'1txu3uR'
p3977
I6603
sS'1ew0SqB'
p3978
I5571
sS'T8Nboh'
p3979
I1286
sS'1kZ0tOx'
p3980
I6123
sS'UK9bGX'
p3981
I6716
sS'1ml6h7x'
p3982
I1431
sS'1prUKDK'
p3983
I410
sS'1qXmK2N'
p3984
I5572
sS'1geKbAY'
p3985
I5574
sS'1oK4i9G'
p3986
I2181
sS'STdJK0'
p3987
I2876
sS'1lJaf7I'
p3988
I4407
sS'1oT4hQY'
p3989
I302
sS'1lxR2pA'
p3990
I2064
sS'1o3Jbz2'
p3991
I5068
sS'1heVG63'
p3992
I6029
sS'SNHb36'
p3993
I5536
sS'1pD1coh'
p3994
I7141
sS'1hIfwGY'
p3995
I1514
sS'1nRy8Zo'
p3996
I1559
sS'1j55NQy'
p3997
I4727
sS'1oob089'
p3998
I7261
sS'1hAew7V'
p3999
I2884
sS'1r9XSSZ'
p4000
I5293
sS'1mtQj7K'
p4001
I7135
sS'1hhJKAI'
p4002
I2476
sS'1gyJwKF'
p4003
I2042
sS'R5B4qe'
p4004
I44
sS'1mgxLoH'
p4005
I6646
sS'1ppiHeF'
p4006
I134
sS'TG9elZ'
p4007
I2885
sS'1kChoFV'
p4008
I2578
sS'1mg1O3q'
p4009
I2437
sS'1ikQtzI'
p4010
I518
sS'1ncTCmr'
p4011
I2886
sS'1nwdb73'
p4012
I892
sS'1tLsz0g'
p4013
I886
sS'1llUofe'
p4014
I5452
sS'1hwR4Zg'
p4015
I4126
sS'1nXufFx'
p4016
I1292
sS'1mJv8NJ'
p4017
I37
sS'Uzl8iw'
p4018
I6680
sS'1n4tudc'
p4019
I2888
sS'1sWCuzB'
p4020
I2890
sS'THmU02'
p4021
I4416
sS'1x87CAX'
p4022
I387
sS'17Eto08'
p4023
I5578
sS'1hAhzNq'
p4024
I2009
sS'1gAxcJX'
p4025
I6985
sS'1o7qg60'
p4026
I2720
sS'1klBIub'
p4027
I2770
sS'1oIidwH'
p4028
I5063
sS'1pZ2pY6'
p4029
I2898
sS'1lW2slO'
p4030
I2899
sS'1jNRQBm'
p4031
I2104
sS'1kFoqsA'
p4032
I812
sS'1kxk6g5'
p4033
I1064
sS'1nTg0yd'
p4034
I2900
sS'1gRaUOt'
p4035
I2901
sS'R1ib2a'
p4036
I6182
sS'1jNC9dq'
p4037
I958
sS'SoG5Lr'
p4038
I2902
sS'1ocF2vK'
p4039
I1283
sS'SQcXgi'
p4040
I6107
sS'U3ehgV'
p4041
I159
sS'1jqwtGj'
p4042
I5307
sS'1n1tlbI'
p4043
I2903
sS'1gxB3Y6'
p4044
I6900
sS'RR9jTj'
p4045
I764
sS'Totjgh'
p4046
I5580
sS'1kjHJKt'
p4047
I5541
sS'1guwZId'
p4048
I7187
sS'SOxnpL'
p4049
I447
sS'1iBupju'
p4050
I348
sS'1ooCIzl'
p4051
I2078
sS'T00k2g'
p4052
I4970
sS'1pwIU95'
p4053
I1511
sS'QYePlZ'
p4054
I5545
sS'1ihj8Qy'
p4055
I2234
sS'1lvcfQ4'
p4056
I2937
sS'1k7wVJv'
p4057
I1936
sS'1gvB0Mn'
p4058
I3778
sS'UxhGoD'
p4059
I2945
sS'1jdwtcf'
p4060
I1092
sS'1kLhSKI'
p4061
I6689
sS'ULrZpj'
p4062
I4829
sS'1qfhswT'
p4063
I3595
sS'Tuj6iG'
p4064
I1039
sS'1qIPBYn'
p4065
I2479
sS'1j38Kvn'
p4066
I98
sS'1yVOVBv'
p4067
I6690
sS'1tvAdeW'
p4068
I1325
sS'1nobgSi'
p4069
I2948
sS'1uJnAiP'
p4070
I910
sS'1g5Gbmm'
p4071
I6826
sS'1kPmNKr'
p4072
I1635
sS'1gE2YAr'
p4073
I2949
sS'1gTOBIg'
p4074
I3480
sS'1fc7RyH'
p4075
I6691
sS'1oqAqTv'
p4076
I2950
sS'1nVtcVa'
p4077
I4015
sS'RYXvO1'
p4078
I5431
sS'1nWQeKq'
p4079
I2713
sS'1k4nHBY'
p4080
I3478
sS'1gGmfGG'
p4081
I2443
sS'1ilaAf2'
p4082
I2951
sS'1pNSmFf'
p4083
I5672
sS'1oLFVbF'
p4084
I1269
sS'1hUazLs'
p4085
I5694
sS'1tLHebR'
p4086
I5649
sS'1jSBxDj'
p4087
I1069
sS'1oiWPyl'
p4088
I2517
sS'1pgAWQF'
p4089
I6236
sS'1hht7uB'
p4090
I3999
sS'1gov4oA'
p4091
I1597
sS'Rw8Jdw'
p4092
I1163
sS'1jOQ0UJ'
p4093
I2164
sS'1o5hn0c'
p4094
I5759
sS'1nv9ixN'
p4095
I1708
sS'1gSHz6G'
p4096
I2629
sS'1juonw7'
p4097
I2953
sS'1ggUN2d'
p4098
I2742
sS'1j0w4Q0'
p4099
I4543
sS'1iHa4dJ'
p4100
I745
sS'1gvM7Fk'
p4101
I6696
sS'1rDarpF'
p4102
I3564
sS'1l4y9Wm'
p4103
I5438
sS'1ptgjkV'
p4104
I4092
sS'1pbk39H'
p4105
I5542
sS'1oUpLwE'
p4106
I204
sS'1kMvEs7'
p4107
I801
sS'1pLotFt'
p4108
I2809
sS'UmE585'
p4109
I2959
sS'1kQN0oZ'
p4110
I6065
sS'1qrvBt2'
p4111
I2960
sS'1fUrjH8'
p4112
I4573
sS'1iJvXsN'
p4113
I2665
sS'1hCUlpU'
p4114
I1164
sS'1k9aUyh'
p4115
I1388
sS'1mIqRsC'
p4116
I2961
sS'1heEVZd'
p4117
I2962
sS'1pNcHKi'
p4118
I6087
sS'1i37X1a'
p4119
I7251
sS'1kuqjtH'
p4120
I1339
sS'1kYiPRA'
p4121
I5137
sS'1kMwdFA'
p4122
I3975
sS'RlK5vI'
p4123
I5596
sS'1fSWwKH'
p4124
I4778
sS'TxTEsu'
p4125
I2964
sS'V7w0V7'
p4126
I1642
sS'1jBakuh'
p4127
I2967
sS'1h58mwI'
p4128
I2139
sS'R7eG0b'
p4129
I2968
sS'1qtNCHp'
p4130
I2969
sS'1gj1ssr'
p4131
I4252
sS'1tGah0p'
p4132
I3630
sS'1oJPoUF'
p4133
I5143
sS'P73LCm'
p4134
I2460
sS'1sPcg3Q'
p4135
I2971
sS'1kJw9HJ'
p4136
I6699
sS'1h2fM3K'
p4137
I6700
sS'1hddKhl'
p4138
I3399
sS'1jiyYi3'
p4139
I6314
sS'1immWn7'
p4140
I2394
sS'1mIbgMD'
p4141
I1406
sS'1mVAGIE'
p4142
I6702
sS'1ppCvP1'
p4143
I2973
sS'1wSBZdM'
p4144
I6437
sS'1kxQufW'
p4145
I2882
sS'1hc5pjA'
p4146
I2974
sS'1iEGnUb'
p4147
I3390
sS'1tePkLG'
p4148
I5597
sS'1nMZ3r2'
p4149
I711
sS'1hbOVb3'
p4150
I5406
sS'1mQevSF'
p4151
I5598
sS'SkqU63'
p4152
I5599
sS'1q82P0G'
p4153
I5600
sS'1lsPFbR'
p4154
I5601
sS'1ibNbZ1'
p4155
I6561
sS'UOa55b'
p4156
I5628
sS'1kp1Pl5'
p4157
I4575
sS'TCxXHS'
p4158
I5914
sS'1kxwZak'
p4159
I5724
sS'1kW7kFz'
p4160
I5617
sS'1pD6t2k'
p4161
I2267
sS'1mD6EFR'
p4162
I2729
sS'1nAsP3I'
p4163
I6040
sS'1paeID8'
p4164
I4370
sS'1fJ6QVX'
p4165
I6706
sS'1kQEw0X'
p4166
I6707
sS'1lkqZlg'
p4167
I333
sS'PLiOBI'
p4168
I3470
sS'1p8850p'
p4169
I1980
sS'TmLeof'
p4170
I1078
sS'1psHQTG'
p4171
I1127
sS'1i5k5iq'
p4172
I2989
sS'1gR57ZA'
p4173
I1288
sS'1hiBJM8'
p4174
I4362
sS'1kuHiLY'
p4175
I7263
sS'1iSLOp1'
p4176
I1995
sS'1mdLxfg'
p4177
I1429
sS'1muO2Ib'
p4178
I7126
sS'1mJhDgR'
p4179
I6255
sS'1kZfss4'
p4180
I3704
sS'1pejK25'
p4181
I2991
sS'1pJ93nw'
p4182
I3496
sS'RHBdAo'
p4183
I1741
sS'1kNFXQY'
p4184
I5603
sS'1pI2mPN'
p4185
I3880
sS'1g4aytn'
p4186
I2992
sS'1ppsOy0'
p4187
I5604
sS'TvN4TT'
p4188
I2993
sS'1qtQQb6'
p4189
I1401
sS'1jxun7a'
p4190
I2983
sS'1iMPZMC'
p4191
I6708
sS'1gMsb1c'
p4192
I5605
sS'1pXrtkn'
p4193
I5927
sS'1mVVOw7'
p4194
I2889
sS'1iVtHYK'
p4195
I401
sS'1neNCaJ'
p4196
I5889
sS'1pmr8HT'
p4197
I2995
sS'1g1IIrP'
p4198
I5166
sS'1hV3RrY'
p4199
I2996
sS'1q7t19r'
p4200
I4157
sS'1mtKKZs'
p4201
I5065
sS'1hkNtNR'
p4202
I3817
sS'1qow2C3'
p4203
I5270
sS'1kStNX2'
p4204
I6316
sS'1lqvWZw'
p4205
I3248
sS'RshQLO'
p4206
I101
sS'1gpxe7b'
p4207
I936
sS'1qfjq0k'
p4208
I5606
sS'1ma7vz1'
p4209
I3006
sS'1iK4rEX'
p4210
I5461
sS'1h4vL1k'
p4211
I5397
sS'Stamc2'
p4212
I6783
sS'1kxRh0g'
p4213
I3008
sS'1m2OZtL'
p4214
I355
sS'UxMV2O'
p4215
I7209
sS'1jn7djY'
p4216
I4300
sS'1lWIZBB'
p4217
I5945
sS'1k5hYwo'
p4218
I3010
sS'1oAOB7Q'
p4219
I5496
sS'1pflPrl'
p4220
I5060
sS'1mv1H32'
p4221
I5655
sS'1r4S3WF'
p4222
I2135
sS'1q5ltEe'
p4223
I4168
sS'1kWQKYN'
p4224
I3011
sS'1pRoW8A'
p4225
I7073
sS'1qX5XKf'
p4226
I5616
sS'SbPx4m'
p4227
I3029
sS'1h5euFf'
p4228
I3016
sS'1j7pKAs'
p4229
I2494
sS'1mGH0Sg'
p4230
I1037
sS'1pyzmdC'
p4231
I3656
sS'1vgzhyK'
p4232
I3017
sS'1jBk82B'
p4233
I1952
sS'1tsubMb'
p4234
I3692
sS'1jN7eyC'
p4235
I4038
sS'1kIkeFA'
p4236
I2371
sS'1ktsLMq'
p4237
I3019
sS'1qj7nS8'
p4238
I6494
sS'1prx4Pz'
p4239
I4612
sS'1hnOFQS'
p4240
I4851
sS'1ppBsig'
p4241
I2127
sS'1pXTwjy'
p4242
I325
sS'1qwDGgb'
p4243
I5470
sS'1glCeUc'
p4244
I5620
sS'Su8sZb'
p4245
I5110
sS'1kolW39'
p4246
I1400
sS'1o0Zxd7'
p4247
I1650
sS'1q2dVC9'
p4248
I1503
sS'1x50moC'
p4249
I3199
sS'1nFtoc9'
p4250
I2422
sS'Tay5yq'
p4251
I5621
sS'UnlyZf'
p4252
I4350
sS'1qziwhy'
p4253
I6711
sS'1noJurM'
p4254
I4622
sS'1pi7LfG'
p4255
I6712
sS'1hhKq9c'
p4256
I7198
sS'1py4PwH'
p4257
I3024
sS'1hD0BxP'
p4258
I3401
sS'1gvBa6w'
p4259
I489
sS'1hpmFfn'
p4260
I5622
sS'1kxc33q'
p4261
I2187
sS'1mhBpBg'
p4262
I5190
sS'1l7GB7u'
p4263
I3025
sS'1hj7W5J'
p4264
I6714
sS'1mM9ybi'
p4265
I1206
sS'1mxD3M9'
p4266
I5640
sS'1vAoH5T'
p4267
I4633
sS'1o2V1sV'
p4268
I3035
sS'1kxNSNx'
p4269
I4523
sS'1nJs7zC'
p4270
I6199
sS'1t5iMS8'
p4271
I3039
sS'1jgd9eC'
p4272
I2911
sS'1nzUk8E'
p4273
I3040
sS'1oDH8EI'
p4274
I3041
sS'1jYTVvf'
p4275
I3042
sS'1nKrhm5'
p4276
I2069
sS'1h6zZpd'
p4277
I6424
sS'1p3ugsi'
p4278
I4783
sS'SbZdvS'
p4279
I3043
sS'1koAjzZ'
p4280
I6740
sS'1pCCrbE'
p4281
I5624
sS'1rdp8AM'
p4282
I6463
sS'1mB6qiv'
p4283
I3256
sS'Ul9VSx'
p4284
I2921
sS'1hfzhpd'
p4285
I4530
sS'1kiBupd'
p4286
I7009
sS'1oLFLBP'
p4287
I6717
sS'1qz9Xn0'
p4288
I4190
sS'RShjDB'
p4289
I5651
sS'1pLt4sg'
p4290
I5382
sS'1hNe0qy'
p4291
I5325
sS'1sSdUld'
p4292
I4037
sS'1kolfXD'
p4293
I3045
sS'1qMqjWo'
p4294
I2254
sS'1rnUIek'
p4295
I5207
sS'1mmhS1g'
p4296
I1027
sS'1q282ot'
p4297
I3047
sS'1oO3f8B'
p4298
I1123
sS'1p6mNIp'
p4299
I4874
sS'1eScpvf'
p4300
I5211
sS'1fVHgYi'
p4301
I4322
sS'RM6Qcc'
p4302
I4648
sS'1lRxfDe'
p4303
I5584
sS'Hop79V'
p4304
I3550
sS'1qDPyOm'
p4305
I5990
sS'1qSrh3D'
p4306
I3141
sS'1ju6SvT'
p4307
I7264
sS'1jRlhlZ'
p4308
I4400
sS'1j6nJVr'
p4309
I4327
sS'VpoGUY'
p4310
I2631
sS'1mk4cWj'
p4311
I1390
sS'RKmPHG'
p4312
I736
sS'TLB3tN'
p4313
I5815
sS'1q1Nqg8'
p4314
I3885
sS'1oOE2e6'
p4315
I3050
sS'T0qqmm'
p4316
I5983
sS'1n45JyN'
p4317
I4655
sS'TvaXuK'
p4318
I6719
sS'UtUWpy'
p4319
I5656
sS'1hysaZd'
p4320
I5811
sS'1tJC7KV'
p4321
I3135
sS'1eIfBi5'
p4322
I5228
sS'SxgKiJ'
p4323
I6271
sS'1hM9WUg'
p4324
I404
sS'1kn9dt3'
p4325
I5658
sS'TXm8wz'
p4326
I1068
sS'1kySdVx'
p4327
I7068
sS'1kJxkac'
p4328
I6720
sS'1uutJjM'
p4329
I3901
sS'SZnF4b'
p4330
I6242
sS'UEtRjx'
p4331
I3052
sS'1l9o6nV'
p4332
I3053
sS'1jDiEVI'
p4333
I262
sS'1fSVONB'
p4334
I3239
sS'1hzkC8r'
p4335
I5740
sS'1pu5f9p'
p4336
I4670
sS'1jmVeaS'
p4337
I3054
sS'1oIVxwi'
p4338
I2146
sS'1mUBASd'
p4339
I6703
sS'1p7rO0i'
p4340
I6938
sS'1ofLCzY'
p4341
I6721
sS'1lGg3eb'
p4342
I382
sS'1jlHvkl'
p4343
I5659
sS'1gmLPQP'
p4344
I6722
sS'1rsp3Z8'
p4345
I6858
sS'1pyocFI'
p4346
I3658
sS'1pmgPAm'
p4347
I5116
sS'1rQEpXJ'
p4348
I5666
sS'1meKjCs'
p4349
I5509
sS'1hgqxFn'
p4350
I5058
sS'1ikY2Bv'
p4351
I5240
sS'1nvVKlZ'
p4352
I2662
sS'1kjqLL1'
p4353
I3056
sS'V3pI8Z'
p4354
I1264
sS'1kDuPWH'
p4355
I2257
sS'1pyeNxX'
p4356
I3057
sS'1gLzLqr'
p4357
I5243
sS'1lseH6i'
p4358
I5512
sS'TcaJYE'
p4359
I3718
sS'1kSDiWn'
p4360
I2475
sS'1m6MyVO'
p4361
I6723
sS'1hyX6ZF'
p4362
I641
sS'1kiyXsd'
p4363
I5248
sS'1k7tNxa'
p4364
I1281
sS'1pHFkbm'
p4365
I6724
sS'1u31Caq'
p4366
I1571
sS'1l1Ercw'
p4367
I1933
sS'1oH6Olf'
p4368
I186
sS'1kpvudZ'
p4369
I2417
sS'1oHVfWJ'
p4370
I1920
sS'1kI1yXK'
p4371
I4848
sS'1qXlYjl'
p4372
I5661
sS'1h2c4XI'
p4373
I3060
sS'1hejTtz'
p4374
I2260
sS'1jvTEP9'
p4375
I4692
sS'1mfJsPb'
p4376
I2963
sS'1kWLQL4'
p4377
I433
sS'1iL1KYC'
p4378
I6587
sS'1hvXHLs'
p4379
I3061
sS'1jsAr0X'
p4380
I3062
sS'1pTx6A1'
p4381
I1276
sS'UcPmHO'
p4382
I6736
sS'1hdE8xe'
p4383
I5662
sS'1qCTM84'
p4384
I1802
sS'1gNNiuw'
p4385
I4832
sS'1nI097e'
p4386
I1689
sS'1k7FG62'
p4387
I3378
sS'1gvzQAy'
p4388
I5664
sS'1fLMgR0'
p4389
I1773
sS'15Hcdu5'
p4390
I1303
sS'1yUWwjP'
p4391
I6725
sS'PYaL4D'
p4392
I3065
sS'1mfRwAX'
p4393
I5665
sS'1jyA6cR'
p4394
I55
sS'RIMy45'
p4395
I5275
sS'1p3nSOe'
p4396
I5667
sS'1qATNJF'
p4397
I3194
sS'1kY0opP'
p4398
I5668
sS'THXa47'
p4399
I2165
sS'1sFX1Kq'
p4400
I1674
sS'V7pMEL'
p4401
I2590
sS'1ioR2TD'
p4402
I4710
sS'1lt6Bud'
p4403
I855
sS'1gZrP7e'
p4404
I705
sS'1kcR8lL'
p4405
I3067
sS'1o0ifzL'
p4406
I1587
sS'1hhjYCj'
p4407
I6553
sS'1q7z140'
p4408
I6877
sS'1m8EyDA'
p4409
I4731
sS'1llBLs1'
p4410
I5533
sS'QOxjVO'
p4411
I5673
sS'1nh3eJl'
p4412
I1686
sS'1jmXMVK'
p4413
I3971
sS'1ieeLWF'
p4414
I4737
sS'1oTWK4z'
p4415
I5674
sS'1qhQIvT'
p4416
I5675
sS'1rh4QFo'
p4417
I3068
sS'1qC7829'
p4418
I1709
sS'1jpRllo'
p4419
I6046
sS'1l1HPWn'
p4420
I5676
sS'TcNiPL'
p4421
I2117
sS'UV3oOW'
p4422
I2909
sS'1mjQd5V'
p4423
I6727
sS'1p7dpBa'
p4424
I3276
sS'1m0DcMl'
p4425
I2865
sS'1oQ76BY'
p4426
I1001
sS'1jtHQwG'
p4427
I1139
sS'1jd3RzZ'
p4428
I3069
sS'1pnh7Ha'
p4429
I7266
sS'1jsRe8l'
p4430
I4872
sS'1pEwv1S'
p4431
I2308
sS'1jbCdc1'
p4432
I975
sS'1kSZYEh'
p4433
I3794
sS'1gyA1er'
p4434
I5677
sS'1psWE3A'
p4435
I3071
sS'1x1J7Vd'
p4436
I4898
sS'SZBn7d'
p4437
I6532
sS'1vdJdq4'
p4438
I3099
sS'1nWpnR0'
p4439
I5682
sS'1o0dY2D'
p4440
I1290
sS'1kyoOG4'
p4441
I1031
sS'1iRkYLu'
p4442
I5556
sS'Vnan3e'
p4443
I3297
sS'1pscXkQ'
p4444
I6728
sS'1kTU7wP'
p4445
I1437
sS'1lkQV0J'
p4446
I5684
sS'1gnZGq4'
p4447
I6956
sS'RtqEld'
p4448
I5685
sS'1j74MS1'
p4449
I233
sS'1k2enKB'
p4450
I6729
sS'1lwzlT6'
p4451
I3078
sS'1jwJ8HB'
p4452
I1153
sS'SB2q9f'
p4453
I5686
sS'1prCwji'
p4454
I6318
sS'TBys5A'
p4455
I7227
sS'V6qRwB'
p4456
I3079
sS'1nVvmnR'
p4457
I5687
sS'1l7UPVV'
p4458
I5538
sS'T0aRep'
p4459
I3155
sS'1l3APHZ'
p4460
I811
sS'1orNRPl'
p4461
I4365
sS'1pwu8hL'
p4462
I3080
sS'1lVR8WH'
p4463
I1216
sS'1gyXDzu'
p4464
I2703
sS'1nniBo4'
p4465
I4742
sS'1qPtcsw'
p4466
I2317
sS'UyixoY'
p4467
I4344
sS'1siZbD6'
p4468
I62
sS'1kZaszd'
p4469
I4955
sS'1kEuLBw'
p4470
I3678
sS'1itnIKL'
p4471
I2423
sS'1nRGEdZ'
p4472
I2744
sS'1yY3Zi2'
p4473
I2930
sS'1mDteOJ'
p4474
I5690
sS'RZAvPB'
p4475
I1929
sS'1ek4hZn'
p4476
I6370
sS'1lc5DqA'
p4477
I3094
sS'1pAsbRC'
p4478
I4753
sS'1nFfcxd'
p4479
I5313
sS'1gvN93Q'
p4480
I7267
sS'1szZ8mk'
p4481
I4119
sS'1j5bVHB'
p4482
I598
sS'1uIURM7'
p4483
I142
sS'1qDPDSr'
p4484
I7106
sS'1g0qmYq'
p4485
I102
sS'1qiXgg4'
p4486
I2617
sS'1izf8kG'
p4487
I3084
sS'1pXqnoE'
p4488
I4779
sS'1hzxT1i'
p4489
I3097
sS'1mIEA52'
p4490
I3549
sS'1jnuVSY'
p4491
I3098
sS'1qrO5rj'
p4492
I375
sS'1kBvSGM'
p4493
I3635
sS'1aslED8'
p4494
I7174
sS'1iEwrQY'
p4495
I515
sS'1rWFqkz'
p4496
I5421
sS'1hpEgXP'
p4497
I5322
sS'1pz7dlP'
p4498
I4385
sS'1pNtsFL'
p4499
I5550
sS'1nMfx40'
p4500
I3013
sS'1fUlrOb'
p4501
I3244
sS'1lYpDfT'
p4502
I1185
sS'1m5cEow'
p4503
I2956
sS'Uzzm35'
p4504
I4311
sS'1wVzVBQ'
p4505
I4373
sS'1mGQbSH'
p4506
I1599
sS'Tm1nK0'
p4507
I6734
sS'1vbATZM'
p4508
I5699
sS'1pE37t9'
p4509
I33
sS'1njoWQz'
p4510
I1725
sS'1o27wsI'
p4511
I2569
sS'1pdWz7c'
p4512
I4012
sS'1kYmihr'
p4513
I5700
sS'1lKjSRY'
p4514
I5118
sS'1q0F48d'
p4515
I5125
sS'ZlRjhL'
p4516
I6245
sS'1g6KYTt'
p4517
I7268
sS'1tZPAwz'
p4518
I6737
sS'18dVbbH'
p4519
I6738
sS'1gy8OZm'
p4520
I1249
sS'1gmsQpF'
p4521
I3105
sS'1hivPjJ'
p4522
I770
sS'Spelqj'
p4523
I3106
sS'1pMxhxw'
p4524
I3107
sS'TmJB9B'
p4525
I3108
sS'1iFNJ9P'
p4526
I7085
sS'VltFpB'
p4527
I4258
sS'1ki2FQA'
p4528
I2393
sS'1ihu6ct'
p4529
I4531
sS'1pLMz2g'
p4530
I6739
sS'1rpQuGs'
p4531
I4980
sS'1heoKur'
p4532
I6198
sS'1tD7GXR'
p4533
I3110
sS'1qouydo'
p4534
I3775
sS'1hmYaQf'
p4535
I3296
sS'1clfTDL'
p4536
I4866
sS'1iEIWW2'
p4537
I6450
sS'V01exo'
p4538
I5707
sS'1qJ2Wjk'
p4539
I3665
sS'1lnIRYc'
p4540
I3102
sS'inx6LS'
p4541
I6059
sS'1hZwZON'
p4542
I4542
sS'SxoKzN'
p4543
I4284
sS'1ow4uNX'
p4544
I5433
sS'1tLzM05'
p4545
I5381
sS'1pBebal'
p4546
I1306
sS'1yC13HQ'
p4547
I68
sS'1gqIdOe'
p4548
I5709
sS'1kDXRp5'
p4549
I2935
sS'1hsnpAH'
p4550
I7255
sS'1kMMOqD'
p4551
I4151
sS'1jpeO64'
p4552
I1536
sS'1oOEOrB'
p4553
I7096
sS'RT5eOq'
p4554
I1820
sS'UGaN4o'
p4555
I4979
sS'SWuhjV'
p4556
I4102
sS'1hrDOVL'
p4557
I6792
sS'1kPpsRk'
p4558
I3114
sS'1j7YjXr'
p4559
I6048
sS'1hvkRY3'
p4560
I1632
sS'1jIwaMn'
p4561
I2110
sS'1qWORw1'
p4562
I4900
sS'1gFsWDv'
p4563
I5712
sS'1il5rRa'
p4564
I2656
sS'1iHWkJ5'
p4565
I3117
sS'1hNJnl0'
p4566
I4863
sS'1lCxai5'
p4567
I6682
sS'1dx9HQo'
p4568
I3816
sS'1j9Insi'
p4569
I1444
sS'1hK1zZ8'
p4570
I17
sS'1kThlGt'
p4571
I3354
sS'1nXDr87'
p4572
I732
sS'1gPRBFH'
p4573
I3125
sS'1lMrLYv'
p4574
I510
sS'1meskwm'
p4575
I5773
sS'1qyrxoQ'
p4576
I136
sS'1jbdB3l'
p4577
I2705
sS'1lbylbj'
p4578
I6743
sS'1jCMOMC'
p4579
I6744
sS'1nIVphH'
p4580
I5713
sS'1h6jn0J'
p4581
I454
sS'1klsL0s'
p4582
I4341
sS'1qqPFJz'
p4583
I3127
sS'1y0MsVP'
p4584
I5932
sS'1nIL0RN'
p4585
I3128
sS'1kW5q7E'
p4586
I3129
sS'SRYf8w'
p4587
I3120
sS'1miw2oX'
p4588
I459
sS'1pzkf68'
p4589
I4419
sS'1hm9xaE'
p4590
I7046
sS'1pjBZyV'
p4591
I6473
sS'1jZojbQ'
p4592
I2040
sS'1ptiunL'
p4593
I5718
sS'1kwAeyO'
p4594
I6387
sS'1pljxrd'
p4595
I2333
sS'1qsm70Q'
p4596
I5720
sS'1lssegP'
p4597
I5147
sS'1rvk4qn'
p4598
I3132
sS'1k28U6h'
p4599
I2222
sS'1su0IAW'
p4600
I830
sS'1nKW7uR'
p4601
I3581
sS'1lwFh2j'
p4602
I6748
sS'1oGSViv'
p4603
I7147
sS'1jjAAVm'
p4604
I633
sS'1tPxizX'
p4605
I1227
sS'1oI9jna'
p4606
I1335
sS'RDmdDD'
p4607
I4910
sS'1le1jCy'
p4608
I1693
sS'1qPVzGW'
p4609
I831
sS'UXCUvE'
p4610
I1083
sS'Tf9sjP'
p4611
I2094
sS'UICZUk'
p4612
I3409
sS'1jxbUIP'
p4613
I2872
sS'1kdAqEE'
p4614
I3142
sS'1rvfw7n'
p4615
I2235
sS'1hlbWmq'
p4616
I1601
sS'1mb2bLP'
p4617
I5721
sS'1iXTrcN'
p4618
I3144
sS'1go163R'
p4619
I5663
sS'1mKGfJI'
p4620
I5153
sS'1iHfRt9'
p4621
I5637
sS'1pdmyrZ'
p4622
I5722
sS'Rm4C3j'
p4623
I6672
sS'1kRTe6O'
p4624
I4227
sS'1kpDXKh'
p4625
I4582
sS'1gw82vS'
p4626
I4269
sS'1jocWdm'
p4627
I3930
sS'1lvFqUY'
p4628
I549
sS'1oL5xsj'
p4629
I4899
sS'1ppELCI'
p4630
I2275
sS'UNLjSA'
p4631
I3148
sS'SBXrUR'
p4632
I5838
sS'1piYCXm'
p4633
I5723
sS'1gjYpAo'
p4634
I4442
sS'1gxJv7F'
p4635
I5158
sS'1p9awzV'
p4636
I2597
sS'1heoQT4'
p4637
I2248
sS'1s2Dp6r'
p4638
I5653
sS'1iVYNnW'
p4639
I1681
sS'1sc7ahQ'
p4640
I77
sS'1oW7sXP'
p4641
I3149
sS'1jRKxcG'
p4642
I5078
sS'1pkq2Jo'
p4643
I6751
sS'1qj8LRG'
p4644
I5725
sS'TZNsu5'
p4645
I4590
sS'1gtrx8O'
p4646
I7088
sS'RCZGHl'
p4647
I5726
sS'1k9zsr8'
p4648
I1071
sS'1nIZrqp'
p4649
I1180
sS'1hdAkGs'
p4650
I7269
sS'1m2WhQ7'
p4651
I5239
sS'Vc0fdC'
p4652
I915
sS'1wyuFDQ'
p4653
I374
sS'1hdhlLV'
p4654
I4306
sS'1hYLuPr'
p4655
I6322
sS'1k2mWcS'
p4656
I645
sS'1jtfR4o'
p4657
I2425
sS'1pSFAEL'
p4658
I2666
sS'1j3DEs4'
p4659
I237
sS'1iDvOW7'
p4660
I5259
sS'1peKrAt'
p4661
I1896
sS'1hznEtk'
p4662
I1531
sS'1lJbTEY'
p4663
I890
sS'1iMBGsj'
p4664
I437
sS'1mXOhin'
p4665
I5272
sS'1kov0AD'
p4666
I5727
sS'1qad0mj'
p4667
I1965
sS'1o2wVl1'
p4668
I213
sS'1swrWH7'
p4669
I5728
sS'1hjgEXm'
p4670
I6653
sS'1kLnrJ8'
p4671
I3154
sS'1hCxnz3'
p4672
I4403
sS'1tCEmOj'
p4673
I2145
sS'Us8lOJ'
p4674
I3095
sS'1pnJTLi'
p4675
I6591
sS'1mjM9iK'
p4676
I451
sS'1g5wNyZ'
p4677
I3386
sS'TlyE8i'
p4678
I6753
sS'1mbYbdH'
p4679
I5172
sS'1iStlqK'
p4680
I6485
sS'1eeMymb'
p4681
I6754
sS'1oOGtOE'
p4682
I1366
sS'1nU03c0'
p4683
I2602
sS'UolPLw'
p4684
I5904
sS'1kCIxcz'
p4685
I7270
sS'1nMpAnC'
p4686
I203
sS'ulQJ1i'
p4687
I3157
sS'1qoLiRZ'
p4688
I5729
sS'1qWvWl6'
p4689
I5730
sS'1nUqCkR'
p4690
I5432
sS'1hUEqH0'
p4691
I6755
sS'1sQVz84'
p4692
I2322
sS'1eusKv5'
p4693
I5176
sS'1hfGLP5'
p4694
I3647
sS'1iotX3k'
p4695
I4609
sS'1laNNUY'
p4696
I2858
sS'1l8Lphm'
p4697
I2199
sS'1ppXeCg'
p4698
I648
sS'1nOVosH'
p4699
I5417
sS'1mAKzKU'
p4700
I6085
sS'1txPr2Y'
p4701
I2743
sS'1guikNd'
p4702
I1746
sS'1gmTCy3'
p4703
I5468
sS'1nvsIWT'
p4704
I4997
sS'1hv5YiI'
p4705
I1919
sS'UeQjPV'
p4706
I3164
sS'1tdoFwV'
p4707
I1439
sS'1kwOHL3'
p4708
I4420
sS'1pk9zoq'
p4709
I2206
sS'1k6810D'
p4710
I5043
sS'SIHdK6'
p4711
I2034
sS'1pmUrYr'
p4712
I1454
sS'1kG2Eqh'
p4713
I3576
sS'1mmee5B'
p4714
I252
sS'UV7S8a'
p4715
I6987
sS'1jBRaPn'
p4716
I5886
sS'1q27BdT'
p4717
I3165
sS'1jbOCqV'
p4718
I2574
sS'1maS8Jo'
p4719
I3166
sS'1qw7JFG'
p4720
I5472
sS'1jPDBjr'
p4721
I3167
sS'1hnriGJ'
p4722
I2734
sS'RIAleO'
p4723
I4302
sS'RIAleQ'
p4724
I5474
sS'1qjhrI3'
p4725
I5206
sS'1tKIvCz'
p4726
I3168
sS'1mgwJNs'
p4727
I3169
sS'1lNiKgC'
p4728
I482
sS'1jZEfqz'
p4729
I1025
sS'1kEOyW6'
p4730
I1637
sS'1oAjRAH'
p4731
I3170
sS'1pMOlkj'
p4732
I7070
sS'Tot3yK'
p4733
I3171
sS'1iK8ml8'
p4734
I2231
sS'1lF5v2X'
p4735
I3172
sS'1hHyGQM'
p4736
I5193
sS'1ldkUHS'
p4737
I2440
sS'S701md'
p4738
I533
sS'1kHj6X0'
p4739
I1223
sS'1pUuSR8'
p4740
I5939
sS'1qFAgIU'
p4741
I5633
sS'1kJFHlY'
p4742
I3345
sS'1pQZK4J'
p4743
I7097
sS'1jQumfT'
p4744
I1832
sS'UWfkzV'
p4745
I5052
sS'1kOJzzf'
p4746
I2878
sS'1kenTyV'
p4747
I3924
sS'1v1SfWT'
p4748
I3730
sS'19MGbUD'
p4749
I5094
sS'1qFFJzG'
p4750
I1902
sS'TaaVb8'
p4751
I5535
sS'1jtTdpm'
p4752
I3176
sS'1h7Qhhs'
p4753
I5734
sS'1nMsqtB'
p4754
I7200
sS'1kHQiNC'
p4755
I5735
sS'1n1YDze'
p4756
I4640
sS'1kxWsk3'
p4757
I4981
sS'1kU84ei'
p4758
I3177
sS'1syUeWL'
p4759
I419
sS'1oyDklm'
p4760
I3976
sS'1omNqc1'
p4761
I3180
sS'1oAPGgD'
p4762
I5208
sS'1gxP9sp'
p4763
I6909
sS'1oz1gVY'
p4764
I3048
sS'1mRDin7'
p4765
I5736
sS'1m71rJT'
p4766
I3183
sS'1eSXUNj'
p4767
I4272
sS'1pa80JI'
p4768
I5737
sS'Sobtdl'
p4769
I3184
sS'1jH48eZ'
p4770
I5301
sS'1gzhZc3'
p4771
I7273
sS'1l3y75p'
p4772
I315
sS'1dXdrKR'
p4773
I6140
sS'1orSTyh'
p4774
I2768
sS'W1qccT'
p4775
I1321
sS'1kRM4AG'
p4776
I1140
sS'1hqRTZp'
p4777
I4650
sS'1mGGlhV'
p4778
I2667
sS'1lfzsXf'
p4779
I6804
sS'1qUDXXV'
p4780
I5818
sS'1p7ZxqC'
p4781
I3186
sS'1qpcsFu'
p4782
I5741
sS'1mWR3Bc'
p4783
I4031
sS'1kNQcSw'
p4784
I6764
sS'QdTSD3'
p4785
I7171
sS'1hDfLmT'
p4786
I3187
sS'1jSJ7Om'
p4787
I4469
sS'1sA2LsI'
p4788
I1157
sS'1gpMNfe'
p4789
I2519
sS'1q165bX'
p4790
I6154
sS'1iF6tWS'
p4791
I5767
sS'1ff5DFg'
p4792
I5742
sS'1o3MUzu'
p4793
I5743
sS'1tD5b50'
p4794
I6766
sS'1kwV3qF'
p4795
I6726
sS'1n4JtDd'
p4796
I1509
sS'1pz9l0d'
p4797
I1935
sS'S4iD5F'
p4798
I397
sS'1hDJAcM'
p4799
I4030
sS'1gjfUkq'
p4800
I5349
sS'1hMnKhy'
p4801
I652
sS'1qqBXpO'
p4802
I2351
sS'RcaQCq'
p4803
I800
sS'1goVMNP'
p4804
I3189
sS'1ktmLmP'
p4805
I2149
sS'1pICXWy'
p4806
I5888
sS'1k4qOtT'
p4807
I6533
sS'1oLJOR4'
p4808
I6560
sS'Tpmn2u'
p4809
I3190
sS'1hR8iGk'
p4810
I14
sS'TNkeOW'
p4811
I6172
sS'UnmgWn'
p4812
I4336
sS'1kLaDz4'
p4813
I6613
sS'Ot421Y'
p4814
I5234
sS'10JmmHH'
p4815
I6768
sS'1kzZrnz'
p4816
I6096
sS'1jPH65n'
p4817
I4409
sS'1oQKp0t'
p4818
I3741
sS'UGOQCi'
p4819
I5744
sS'1mN4cMV'
p4820
I5958
sS'1l1RSL3'
p4821
I5506
sS'1mcEFPK'
p4822
I16
sS'1l9c09y'
p4823
I1011
sS'UqKfUw'
p4824
I5745
sS'1k6RaLp'
p4825
I5508
sS'UM5UXE'
p4826
I6769
sS'1p5pbMx'
p4827
I3711
sS'TjPNPA'
p4828
I6226
sS'SkvLUZ'
p4829
I5746
sS'1oTRiRX'
p4830
I3192
sS'1o3UqKU'
p4831
I2514
sS'1ro3xob'
p4832
I3200
sS'UzRk5q'
p4833
I2265
sS'c8DV1F'
p4834
I4081
sS'1oTYKK2'
p4835
I4278
sS'1pX2UEm'
p4836
I2085
sS'U4nPbD'
p4837
I677
sS'1r5vjEq'
p4838
I4464
sS'1lFtSwf'
p4839
I6618
sS'1kFQcnd'
p4840
I3201
sS'1q7UCXj'
p4841
I1279
sS'1ln40BC'
p4842
I7122
sS'Vsl6cS'
p4843
I4167
sS'1gcijgs'
p4844
I4685
sS'1kiHPfz'
p4845
I1498
sS'1gugVGc'
p4846
I58
sS'1hsbzGy'
p4847
I2227
sS'1x2kF6f'
p4848
I5849
sS'1o26Cf3'
p4849
I110
sS'1go3Gao'
p4850
I5768
sS'SLSKIs'
p4851
I5769
sS'Q3w8BD'
p4852
I3254
sS'1hCHGcd'
p4853
I6537
sS'1ppnoVM'
p4854
I1852
sS'1pywTPo'
p4855
I5771
sS'UFc8bR'
p4856
I3205
sS'1h8K6JZ'
p4857
I5772
sS'1h9lPDx'
p4858
I245
sS'QY2O0u'
p4859
I3591
sS'1rnWHz3'
p4860
I3869
sS'1jiT4Je'
p4861
I889
sS'1njQHU1'
p4862
I1837
sS'1gmECAj'
p4863
I3207
sS'1oT82aD'
p4864
I2408
sS'1oqpTHq'
p4865
I179
sS'1jqD9sd'
p4866
I2661
sS'1nW5FF9'
p4867
I3208
sS'1l7AvZm'
p4868
I4130
sS'TImbeQ'
p4869
I3209
sS'1qbjRc3'
p4870
I6772
sS'1nt9EpU'
p4871
I5992
sS'1oUTq8J'
p4872
I3210
sS'1kfHavl'
p4873
I7275
sS'V6vxm5'
p4874
I6685
sS'TwSQnf'
p4875
I211
sS'1iPU0Qf'
p4876
I1260
sS'1knXQFS'
p4877
I100
sS'1gFtv09'
p4878
I5786
sS'1jbNCbR'
p4879
I2740
sS'1fMKna6'
p4880
I477
sS'1kWkQw1'
p4881
I3596
sS'1hMlBlL'
p4882
I383
sS'1kRh3Ne'
p4883
I3211
sS'1lT2xE3'
p4884
I1484
sS'1tFi3rn'
p4885
I6773
sS'1jgfzzo'
p4886
I3212
sS'1nEUuye'
p4887
I6774
sS'1pKbQth'
p4888
I1103
sS'1scWhwi'
p4889
I4700
sS'1jwBbaV'
p4890
I1811
sS'1kZGgno'
p4891
I5629
sS'1gBYbVi'
p4892
I5972
sS'1g2yXKn'
p4893
I564
sS'1ht6jCt'
p4894
I5787
sS'1g4ywVl'
p4895
I2587
sS'1tAqGDq'
p4896
I4144
sS'15GC2KQ'
p4897
I1320
sS'1o4VY7v'
p4898
I5788
sS'1yWMjmP'
p4899
I5593
sS'15NdRMO'
p4900
I4071
sS'1qqxZQU'
p4901
I600
sS'1ovmqEl'
p4902
I604
sS'1ttthPu'
p4903
I5692
sS'1hAdPf4'
p4904
I6090
sS'1pgKEW7'
p4905
I6747
sS'1kpLtop'
p4906
I4713
sS'1kmQI7I'
p4907
I3219
sS'1gXjyvd'
p4908
I6030
sS'1hS8gZp'
p4909
I3220
sS'1gJcurf'
p4910
I6730
sS'1hafWpI'
p4911
I1683
sS'1fPn3IO'
p4912
I1038
sS'1rGsM3O'
p4913
I4256
sS'1k4bwqe'
p4914
I3221
sS'1itcXbq'
p4915
I3818
sS'1g0SHOs'
p4916
I4723
sS'1jYHdj9'
p4917
I6358
sS'1kmMXDR'
p4918
I3434
sS'1oARcvj'
p4919
I4772
sS'1jyVDlS'
p4920
I6326
sS'1uuIcvd'
p4921
I5790
sS'1toQYu0'
p4922
I7246
sS'1vqxUxG'
p4923
I6109
sS'1ki22pY'
p4924
I5791
sS'1g2U8RC'
p4925
I4726
sS'1nikhf4'
p4926
I3223
sS'1he6NMG'
p4927
I3224
sS'1iVybU5'
p4928
I3118
sS'1ktd33H'
p4929
I2444
sS'TksC7p'
p4930
I2026
sS'1qK0Yza'
p4931
I6780
sS'1nMfcwZ'
p4932
I2298
sS'UTwo9D'
p4933
I2924
sS'1r4JGZw'
p4934
I5298
sS'1ttZ1px'
p4935
I2531
sS'1ktZzqb'
p4936
I3572
sS'1iYc4Yh'
p4937
I5698
sS'1gqCDLy'
p4938
I6784
sS'1nRAZkR'
p4939
I570
sS'1qgUHc5'
p4940
I3364
sS'1kGfCkF'
p4941
I5793
sS'UItpAI'
p4942
I6193
sS'1jQesH0'
p4943
I4736
sS'1gpkPQE'
p4944
I5794
sS'1hhJlnx'
p4945
I2285
sS'1jVoX5P'
p4946
I523
sS'1h20FHq'
p4947
I5753
sS'1kqseiq'
p4948
I5033
sS'1kiIbmn'
p4949
I6623
sS'1kJ5BWV'
p4950
I1590
sS'1iSWAEP'
p4951
I6786
sS'1p6nBKx'
p4952
I6817
sS'1pfDy49'
p4953
I261
sS'1juLOtT'
p4954
I6787
sS'1hnQQtm'
p4955
I3260
sS'1lXdmrk'
p4956
I3261
sS'UVzj1F'
p4957
I3372
sS'1oJDMxf'
p4958
I3262
sS'1pyvQlV'
p4959
I2355
sS'T2EiMe'
p4960
I901
sS'1qmFRTm'
p4961
I1796
sS'1o3TWTl'
p4962
I6844
sS'1jh5GBC'
p4963
I2627
sS'1h20ufd'
p4964
I3286
sS'1jDQNJP'
p4965
I2075
sS'1yUKxTh'
p4966
I4430
sS'1nIMdLJ'
p4967
I480
sS'1oRMJEA'
p4968
I5106
sS'1ioyAOi'
p4969
I3263
sS'1mF45lu'
p4970
I7004
sS'1jrkr3d'
p4971
I946
sS'1o0vvI3'
p4972
I2757
sS'1kI6CLW'
p4973
I950
sS'1pXgJm5'
p4974
I2842
sS'1legzng'
p4975
I627
sS'1mCcbfY'
p4976
I3988
sS'UVlVuh'
p4977
I5544
sS'1gj26WY'
p4978
I3300
sS'1ssyJah'
p4979
I5155
sS'1hPdIfB'
p4980
I3301
sS'UkWP7V'
p4981
I1643
sS'1k0F6rT'
p4982
I3273
sS'1kT8Rjx'
p4983
I1098
sS'TWEaia'
p4984
I200
sS'1nU9Y3K'
p4985
I4974
sS'1ktaej9'
p4986
I1804
sS'1jeIRZu'
p4987
I4760
sS'1mlGb2n'
p4988
I5162
sS'1rkE8vA'
p4989
I3302
sS'1kZYitW'
p4990
I4367
sS'1qoG2h3'
p4991
I2346
sS'1kfaPsZ'
p4992
I3197
sS'1lq6F2j'
p4993
I3070
sS'1iOB3lC'
p4994
I5797
sS'1i6WKg9'
p4995
I1668
sS'1pRoqYX'
p4996
I7016
sS'1w2JQF0'
p4997
I2297
sS'18QhqGZ'
p4998
I6789
sS'1lb9PlU'
p4999
I6790
sS'1nBirXZ'
p5000
I393
sS'1k1Mt7i'
p5001
I1363
sS'1kI2TME'
p5002
I2415
sS'1jWj9dN'
p5003
I4163
sS'1gxWoke'
p5004
I5798
sS'1oTpIkG'
p5005
I6941
sS'1sPbsfi'
p5006
I5799
sS'1pjBCYL'
p5007
I2652
sS'y4HPBW'
p5008
I6791
sS'1odlLsp'
p5009
I5800
sS'1lGiInf'
p5010
I5645
sS'1itU8vu'
p5011
I5929
sS'1jbxXcO'
p5012
I6602
sS'1or5GPI'
p5013
I5081
sS'Sl9wyf'
p5014
I41
sS'1nOTnMg'
p5015
I2289
sS'1tjWZGI'
p5016
I264
sS'1rFiEJZ'
p5017
I7157
sS'TxMp3L'
p5018
I2061
sS'1lYZ61X'
p5019
I4534
sS'1kucU4q'
p5020
I52
sS'1k32DMe'
p5021
I4535
sS'1miQjus'
p5022
I4398
sS'1iilphS'
p5023
I4978
sS'1cLbosy'
p5024
I1612
sS'1mGPQ0U'
p5025
I7281
sS'1k5Qkyv'
p5026
I1253
sS'1kTAGra'
p5027
I531
sS'1iuxhgP'
p5028
I5803
sS'1kKiXhi'
p5029
I3929
sS'UUgfAF'
p5030
I4159
sS'1oooEVS'
p5031
I7282
sS'SkNviI'
p5032
I3304
sS'1gBnkzB'
p5033
I5669
sS'1pyOtYa'
p5034
I395
sS'1kwyaUt'
p5035
I7212
sS'Osc0bw'
p5036
I3305
sS'1jUAloF'
p5037
I3306
sS'1gz1f4G'
p5038
I1818
sS'1qiaj2a'
p5039
I4541
sS'1p4p45J'
p5040
I3308
sS'1oQKukW'
p5041
I7283
sS'UxSxd2'
p5042
I4912
sS'1qSia5L'
p5043
I1345
sS'1gqAqJj'
p5044
I5311
sS'1hPfHQZ'
p5045
I3231
sS'1jPjGNq'
p5046
I2017
sS'1nZQ19t'
p5047
I6351
sS'1p8yw9Y'
p5048
I6819
sS'1j5MdxL'
p5049
I4546
sS'1mxDG92'
p5050
I195
sS'1tKC1DG'
p5051
I6153
sS'1qkzIHQ'
p5052
I5804
sS'1j7kLWi'
p5053
I1629
sS'1eI08yK'
p5054
I293
sS'1mVLgz5'
p5055
I5129
sS'1hsrBQN'
p5056
I2490
sS'1kFiYV9'
p5057
I2416
sS'1gXF2Z0'
p5058
I3310
sS'1jmt8NE'
p5059
I4550
sS'1iqpmP9'
p5060
I5957
sS'1pVb14b'
p5061
I1395
sS'1gcseTQ'
p5062
I5609
sS'SAWdd4'
p5063
I988
sS'1od6CY9'
p5064
I2797
sS'1hvsDeW'
p5065
I1427
sS'TKncnq'
p5066
I3312
sS'1lYre4O'
p5067
I3313
sS'1mn35BM'
p5068
I3284
sS'1hs3cL9'
p5069
I2708
sS'1isye9A'
p5070
I5613
sS'1kAf5EO'
p5071
I6331
sS'1mG10Tx'
p5072
I7150
sS'1igf9my'
p5073
I5805
sS'1lABsKC'
p5074
I5286
sS'1j9aubg'
p5075
I3697
sS'1kr3tTj'
p5076
I5069
sS'UH7r13'
p5077
I5974
sS'1o7BQA7'
p5078
I7199
sS'1j7ter5'
p5079
I3314
sS'1jhfaHh'
p5080
I6794
sS'UFPOPk'
p5081
I3315
sS'1fMWs9H'
p5082
I5140
sS'1jmCpk6'
p5083
I350
sS'1qrwims'
p5084
I3451
sS'VnY8Ds'
p5085
I3316
sS'1ifKSKj'
p5086
I5142
sS'1jkVUwO'
p5087
I479
sS'URQGzY'
p5088
I753
sS'1pcaSqt'
p5089
I3579
sS'15z1k01'
p5090
I6880
sS'1hVX4ez'
p5091
I5638
sS'SDoYFV'
p5092
I4371
sS'UxV07B'
p5093
I4345
sS'1mFFONp'
p5094
I6489
sS'RZAsDu'
p5095
I2938
sS'qbe8EW'
p5096
I2277
sS'1hOKugI'
p5097
I141
sS'1fIY6tp'
p5098
I5150
sS'1tyUHDC'
p5099
I6335
sS'1rHZjM1'
p5100
I117
sS'1qkguSg'
p5101
I939
sS'1m3h6ZG'
p5102
I3320
sS'1oIzFRR'
p5103
I5806
sS'12DMbv6'
p5104
I1305
sS'1jNHH7C'
p5105
I4222
sS'1trfTeJ'
p5106
I3321
sS'1tAI8aT'
p5107
I6795
sS'1i9te9J'
p5108
I5899
sS'T5aKO3'
p5109
I4425
sS'1jpQIbq'
p5110
I4868
sS'1ojVoCS'
p5111
I5807
sS'1k3dNAq'
p5112
I3322
sS'1ifCWaw'
p5113
I5017
sS'1qHRxO1'
p5114
I2037
sS'1q54XWU'
p5115
I2472
sS'1hdnjg1'
p5116
I5683
sS'1mgmUue'
p5117
I6798
sS'1ms5ICm'
p5118
I3277
sS'1lS5zMr'
p5119
I1604
sS'1iwhYRB'
p5120
I231
sS'1wcD4NX'
p5121
I4734
sS'1lUTp4w'
p5122
I4771
sS'1nPP6KN'
p5123
I3323
sS'UUBB15'
p5124
I5379
sS'1glaTYl'
p5125
I471
sS'1qrlj9w'
p5126
I3324
sS'1l3iqvC'
p5127
I5808
sS'1fSdk4G'
p5128
I2845
sS'1q2KSy7'
p5129
I6070
sS'1pzV2by'
p5130
I7010
sS'1pT93kO'
p5131
I1287
sS'1glc2iV'
p5132
I5809
sS'1gwYMkA'
p5133
I5157
sS'1jgzwoO'
p5134
I3325
sS'TlZ61E'
p5135
I6812
sS'1nIpqRg'
p5136
I3326
sS'SS9SvU'
p5137
I39
sS'1kymnYK'
p5138
I6813
sS'1tEK9mq'
p5139
I3327
sS'1gDyXG8'
p5140
I1309
sS'UY0Qzm'
p5141
I3328
sS'1sHdejq'
p5142
I5278
sS'1jPlNoD'
p5143
I4366
sS'1kTRoGL'
p5144
I3329
sS'1nkIr6q'
p5145
I3330
sS'1wDbskm'
p5146
I6434
sS'1mZWQoa'
p5147
I3466
sS'1gZWagE'
p5148
I3334
sS'1lArKY7'
p5149
I4415
sS'1rfKZ7S'
p5150
I5196
sS'1yT7mH5'
p5151
I5813
sS'1gorH17'
p5152
I4041
sS'1mkQoXY'
p5153
I3535
sS'1iXksaW'
p5154
I3156
sS'1nz8hcU'
p5155
I696
sS'1kBrIie'
p5156
I6625
sS'1qjSpYY'
p5157
I6624
sS'1jIJBfv'
p5158
I6814
sS'1lWcYun'
p5159
I2484
sS'1qJyuTI'
p5160
I5295
sS'1rtDGLE'
p5161
I5814
sS'1g525Gf'
p5162
I3336
sS'1kKeTSD'
p5163
I2180
sS'1p95ZNZ'
p5164
I1770
sS'1j8WL4e'
p5165
I5816
sS'1rxlvVl'
p5166
I3162
sS'1tka5FD'
p5167
I235
sS'1nicalq'
p5168
I5817
sS'1kNjWyB'
p5169
I2941
sS'1kxcK89'
p5170
I7285
sS'1kIz4Q5'
p5171
I1794
sS'1nWH9jD'
p5172
I3337
sS'1h7yLtC'
p5173
I1805
sS'1oOw4me'
p5174
I828
sS'1fpB4gB'
p5175
I1808
sS'1mRzpic'
p5176
I2544
sS'1gwATAa'
p5177
I5766
sS'1hlVFxq'
p5178
I3669
sS'RSguKw'
p5179
I3338
sS'1k77X1t'
p5180
I1297
sS'1lHXbxN'
p5181
I3339
sS'1kKgyod'
p5182
I6332
sS'1glShbf'
p5183
I2219
sS'1pBUi2F'
p5184
I7167
sS'1o1M5WA'
p5185
I5466
sS'1pNoNmo'
p5186
I3340
sS'1moItcQ'
p5187
I227
sS'1nsOSqA'
p5188
I4314
sS'1jj4jR9'
p5189
I390
sS'1rK3cQF'
p5190
I413
sS'1iylDh1'
p5191
I5181
sS'Uw3qw8'
p5192
I2975
sS'1juKvq1'
p5193
I2336
sS'1p5vZK7'
p5194
I2611
sS'1jm7yDq'
p5195
I3356
sS'1pOOgwt'
p5196
I3357
sS'1hiqq6B'
p5197
I3358
sS'1phdUMn'
p5198
I1373
sS'1kQORdn'
p5199
I2211
sS'1kTDwcs'
p5200
I3359
sS'1q4k2YR'
p5201
I994
sS'RNPtrM'
p5202
I5823
sS'1jmY40n'
p5203
I4200
sS'1lcbWpm'
p5204
I3361
sS'TOGXdo'
p5205
I755
sS'1o7OI8F'
p5206
I6855
sS'1m2gfZ9'
p5207
I3362
sS'1p051ad'
p5208
I5825
sS'1sSpQ6w'
p5209
I5826
sS'1kPfv6r'
p5210
I6822
sS'1klLzwu'
p5211
I1182
sS'1sLPRnU'
p5212
I3363
sS'1pgsIHR'
p5213
I5191
sS'1kEFD29'
p5214
I3343
sS'1hO8UfW'
p5215
I5480
sS'1jul2kD'
p5216
I3366
sS'1q9drNK'
p5217
I4743
sS'1wSvQOA'
p5218
I7178
sS'1h139WE'
p5219
I5198
sS'1l979VE'
p5220
I1440
sS'1iRf7X9'
p5221
I3373
sS'1hpQU9N'
p5222
I3375
sS'1mQ4zYX'
p5223
I1048
sS'1ozAlZW'
p5224
I5831
sS'Vmb2SF'
p5225
I6479
sS'1nZEibA'
p5226
I4164
sS'1ierK9G'
p5227
I97
sS'1p3tOtR'
p5228
I3733
sS'1kH4DHD'
p5229
I3536
sS'1hXoSo5'
p5230
I3376
sS'1dpQkZ7'
p5231
I5833
sS'1kIjgsL'
p5232
I6828
sS'1ms1NaK'
p5233
I3693
sS'1sMvhXZ'
p5234
I5834
sS'1sh5oiS'
p5235
I197
sS'1mJbCRn'
p5236
I3377
sS'1lw0qpp'
p5237
I6204
sS'1wih2cR'
p5238
I2994
sS'tvVNgq'
p5239
I4435
sS'1oGMPlB'
p5240
I4644
sS'1hj72eW'
p5241
I290
sS'1mKMFql'
p5242
I1702
sS'1hizxEg'
p5243
I3379
sS'1wu19Qt'
p5244
I5835
sS'1lPGwWG'
p5245
I1449
sS'SZsOJx'
p5246
I3450
sS'TUmZy9'
p5247
I3629
sS'1hbQzJP'
p5248
I5501
sS'1ptjRCJ'
p5249
I6146
sS'1j4er1C'
p5250
I2391
sS'1n3w00d'
p5251
I888
sS'1kzQeNz'
p5252
I2731
sS'1pu9MFG'
p5253
I5493
sS'1l1wrK0'
p5254
I6195
sS'1kTpB9n'
p5255
I2419
sS'1jQ2xJ9'
p5256
I5836
sS'1ntQWyu'
p5257
I2029
sS'1jXJiaU'
p5258
I1174
sS'1opmCYJ'
p5259
I2172
sS'1tXWxQv'
p5260
I6652
sS'1vjAzZR'
p5261
I4858
sS'1kEpN7Q'
p5262
I6834
sS'1nfKeOJ'
p5263
I3737
sS'1pl09Jk'
p5264
I3381
sS'1q1WmC1'
p5265
I2594
sS'1qg99U2'
p5266
I5853
sS'1pkHxcu'
p5267
I1992
sS'1oGNDUJ'
p5268
I1540
sS'1iL275k'
p5269
I3382
sS'1oaoTUy'
p5270
I3383
sS'1lcnaz8'
p5271
I4480
sS'RsC9JL'
p5272
I5229
sS'1h1sLTb'
p5273
I5965
sS'1i4UatL'
p5274
I5500
sS'1tL8sPF'
p5275
I7271
sS'1qkNY3W'
p5276
I4662
sS'1puOeJ4'
p5277
I5564
sS'1yq5tRM'
p5278
I329
sS'1uAwehR'
p5279
I857
sS'1fKUtsf'
p5280
I5837
sS'1geLjEN'
p5281
I6836
sS'1gELSCp'
p5282
I6175
sS'1jdpi9G'
p5283
I3567
sS'T2NAbe'
p5284
I3808
sS'1k66MQV'
p5285
I249
sS'1jbXoLh'
p5286
I4674
sS'1me5rpU'
p5287
I3034
sS'RQ2Fwp'
p5288
I567
sS'1hlm9ix'
p5289
I1289
sS'1vhI4AA'
p5290
I5505
sS'1gyOlDO'
p5291
I4411
sS'1lEkFBg'
p5292
I7220
sS'1jwEegG'
p5293
I5238
sS'1jtDdEo'
p5294
I3876
sS'1hbLGe5'
p5295
I1419
sS'1lfxy8K'
p5296
I1871
sS'1hNq8do'
p5297
I5840
sS'1hy5Vm3'
p5298
I1673
sS'Up142g'
p5299
I6567
sS'1oITetz'
p5300
I2140
sS'1jyJG0l'
p5301
I5510
sS'1jBCNhZ'
p5302
I5
sS'1hiQ1Mv'
p5303
I1754
sS'TvzpMb'
p5304
I2556
sS'1iSoAxs'
p5305
I2153
sS'SIRYvY'
p5306
I980
sS'1h9uCFz'
p5307
I3416
sS'1pOR5xv'
p5308
I2288
sS'1kmulCT'
p5309
I5299
sS'1qpARgV'
p5310
I2383
sS'1ghmvLZ'
p5311
I5841
sS'1udLDaq'
p5312
I3418
sS'1uJLuc6'
p5313
I1890
sS'1sMyIZB'
p5314
I1940
sS'1sjqGwh'
p5315
I3419
sS'1qGhhKM'
p5316
I4845
sS'1iUXh6u'
p5317
I6097
sS'1myTR7f'
p5318
I6259
sS'1gjLKgH'
p5319
I3421
sS'S3n55a'
p5320
I138
sS'1rZLeEt'
p5321
I139
sS'SBF7eK'
p5322
I5843
sS'T37NgM'
p5323
I591
sS'1kQ9kRP'
p5324
I6445
sS'1kJpsCm'
p5325
I1898
sS'Sj5YMI'
p5326
I1112
sS'TIlthP'
p5327
I5691
sS'1hBHgxo'
p5328
I3423
sS'1pC2cJs'
p5329
I6228
sS'1hLZHFl'
p5330
I1156
sS'1mr27o4'
p5331
I6838
sS'1pK5wFq'
p5332
I2420
sS'1ljK5HC'
p5333
I5263
sS'1oet8Bv'
p5334
I2239
sS'1r0uYrH'
p5335
I4694
sS'1ob2WVO'
p5336
I4217
sS'1tvCQgZ'
p5337
I6559
sS'1rhPpgk'
p5338
I2357
sS'1oYUWJ6'
p5339
I4379
sS'1go0Li2'
p5340
I1661
sS'1kPowfR'
p5341
I2021
sS'1iPJOMl'
p5342
I4315
sS'1pFs1bQ'
p5343
I256
sS'1tAJGlk'
p5344
I6356
sS'1pBL3ja'
p5345
I1331
sS'1kx6SQW'
p5346
I2798
sS'1jTFTyb'
p5347
I120
sS'1k5M02t'
p5348
I3426
sS'1hqdlI0'
p5349
I2481
sS'1vcBPx3'
p5350
I6654
sS'SsHjow'
p5351
I5523
sS'1qw82R3'
p5352
I4697
sS'SUSUwR'
p5353
I5524
sS'1p2XzHN'
p5354
I3081
sS'1oSye4m'
p5355
I852
sS'1q6Kvp0'
p5356
I2849
sS'1kFE60y'
p5357
I1266
sS'1meaeaS'
p5358
I4364
sS'1jjVum2'
p5359
I3428
sS'1nYmGzn'
p5360
I3429
sS'1vhctih'
p5361
I1742
sS'1iwGZPK'
p5362
I3911
sS'1gL5P05'
p5363
I2108
sS'RY0Cqw'
p5364
I3430
sS'1qdVDhc'
p5365
I6005
sS'1nB4RGD'
p5366
I3431
sS'1nSTTeO'
p5367
I3432
sS'1qLuvbL'
p5368
I2427
sS'1kP8HJa'
p5369
I3662
sS'S3domH'
p5370
I5855
sS'1hsJH4R'
p5371
I6077
sS'ROuDsz'
p5372
I2492
sS'RfqU6W'
p5373
I2303
sS'N60snP'
p5374
I6073
sS'1oRdqJo'
p5375
I5756
sS'1l9IdSd'
p5376
I3433
sS'1kJYGwU'
p5377
I1350
sS'RJyreT'
p5378
I5283
sS'RPjJCT'
p5379
I1878
sS'11Phhjv'
p5380
I6301
sS'1gmflGr'
p5381
I5531
sS'1jWKU94'
p5382
I3435
sS'1qLi651'
p5383
I3436
sS'1k6OBur'
p5384
I2114
sS'1qxh3IC'
p5385
I829
sS'1g2Jxky'
p5386
I291
sS'1oHXgUJ'
p5387
I5856
sS'1iQrZwN'
p5388
I6731
sS'1lRIohA'
p5389
I762
sS'1nPUrQ5'
p5390
I498
sS'1pyllg9'
p5391
I2998
sS'VzAUKS'
p5392
I23
sS'Trg0MI'
p5393
I150
sS'1qXWYsd'
p5394
I1763
sS'1gLArsl'
p5395
I5857
sS'1kILvJi'
p5396
I3437
sS'1pCJWQ6'
p5397
I2471
sS'1ghUDaY'
p5398
I3439
sS'1ghqmZF'
p5399
I3440
sS'1j7pukI'
p5400
I5858
sS'1o23NdY'
p5401
I5859
sS'1iND254'
p5402
I6224
sS'1qh4GAE'
p5403
I5696
sS'TlY85q'
p5404
I6846
sS'1fGdf1J'
p5405
I5294
sS'1jZ5Nxj'
p5406
I3442
sS'TzRvww'
p5407
I2020
sS'U5sV7E'
p5408
I4728
sS'1gdvMok'
p5409
I2687
sS'1jfeS9A'
p5410
I2295
sS'TvEVik'
p5411
I4133
sS'1pIszR6'
p5412
I6847
sS'1kwtJfs'
p5413
I3652
sS'1kZ8hOS'
p5414
I2540
sS'1jzSwzN'
p5415
I4733
sS'1lCnP8H'
p5416
I3575
sS'1gqqFkS'
p5417
I4139
sS'1iIuRev'
p5418
I6577
sS'1kxe0Ne'
p5419
I5863
sS'1kDdkW4'
p5420
I3445
sS'1ktwslu'
p5421
I6870
sS'1k9CS8O'
p5422
I6511
sS'R0DRBL'
p5423
I5174
sS'Vpw56D'
p5424
I3446
sS'1iHguT8'
p5425
I116
sS'1x8J9vA'
p5426
I1243
sS'1kqIWyi'
p5427
I5539
sS'1l0OLxV'
p5428
I900
sS'1oBuBAE'
p5429
I3139
sS'1fFHMPk'
p5430
I4746
sS'1mrECuW'
p5431
I3979
sS'1weBWbS'
p5432
I545
sS'1hbwUUN'
p5433
I4148
sS'1kQjVLP'
p5434
I3836
sS'1jbPv7A'
p5435
I3447
sS'1grcFXY'
p5436
I902
sS'1jlpMG0'
p5437
I7003
sS'1w6tpsj'
p5438
I6849
sS'1jxAuJH'
p5439
I6831
sS'1j3yqxy'
p5440
I669
sS'1kNzIsa'
p5441
I3100
sS'1lSHncp'
p5442
I3193
sS'1qBSwiT'
p5443
I4348
sS'V1YK1A'
p5444
I409
sS'1gsc6NU'
p5445
I7105
sS'1ib9VNd'
p5446
I6673
sS'1kK86bG'
p5447
I3453
sS'TyiBE4'
p5448
I4439
sS'1rbIAwz'
p5449
I4483
sS'1q8pJoH'
p5450
I3454
sS'1km53Go'
p5451
I5864
sS'1jvK0vP'
p5452
I2642
sS'1pa5naR'
p5453
I7274
sS'1pb3tXA'
p5454
I2286
sS'1jmOda2'
p5455
I6411
sS'1kQbNww'
p5456
I2679
sS'1mDQgGi'
p5457
I5320
sS'1ueDlhv'
p5458
I3020
sS'1vgycGd'
p5459
I3182
sS'1q3TPr3'
p5460
I7069
sS'1htpOuU'
p5461
I6865
sS'1kh3xEK'
p5462
I4762
sS'QaM0lJ'
p5463
I95
sS'1nYFFHH'
p5464
I3456
sS'1nxyrdk'
p5465
I3147
sS'1jrYM6Z'
p5466
I5652
sS'UmeJae'
p5467
I6811
sS'1rS1v0g'
p5468
I4682
sS'Rp5FPO'
p5469
I3457
sS'TuxQhY'
p5470
I5865
sS'1tAg33z'
p5471
I4107
sS'1mUPXWA'
p5472
I3458
sS'ODEeQK'
p5473
I3459
sS'1mEMcWB'
p5474
I2684
sS'SjwKVm'
p5475
I254
sS'1qz2CVp'
p5476
I5552
sS'1qk4e1W'
p5477
I6678
sS'1lwxAdO'
p5478
I837
sS'1gyNKC2'
p5479
I3460
sS'1h9Mj7Z'
p5480
I6185
sS'1gz6taZ'
p5481
I5117
sS'1glPted'
p5482
I2710
sS'1kDc7LR'
p5483
I7242
sS'RojHRm'
p5484
I6866
sS'SCXNe1'
p5485
I5866
sS'1tsia9E'
p5486
I847
sS'1hSYI3P'
p5487
I2676
sS'1qfNusP'
p5488
I3388
sS'1krZK5h'
p5489
I391
sS'1qX104c'
p5490
I2572
sS'1gXNyqI'
p5491
I6810
sS'1mDD3fw'
p5492
I1209
sS'1pI8zvz'
p5493
I5867
sS'1iQBPyH'
p5494
I1862
sS'1sALvnb'
p5495
I4158
sS'1vkbfQF'
p5496
I1084
sS'1wAUJOI'
p5497
I2559
sS'1iGaT1x'
p5498
I5120
sS'kVECY0'
p5499
I3462
sS'1hBurTm'
p5500
I6868
sS'1hBkLZ1'
p5501
I2920
sS'1oLzXHN'
p5502
I3088
sS'1mNGksL'
p5503
I156
sS'1pfD4c3'
p5504
I4288
sS'1v80YHj'
p5505
I658
sS'1hj1ly7'
p5506
I1062
sS'1pv43Q0'
p5507
I1613
sS'1jup0G0'
p5508
I3463
sS'1ihAb8N'
p5509
I2586
sS'18I8LmO'
p5510
I3562
sS'Tr3P1X'
p5511
I798
sS'1mL0Bz1'
p5512
I3384
sS'1j2q8Fg'
p5513
I3063
sS'1asiqzu'
p5514
I7290
sS'RGJTHi'
p5515
I1310
sS'1l0adnu'
p5516
I6043
sS'1gEX2MT'
p5517
I682
sS'1hu4gyg'
p5518
I6554
sS'1oTosCo'
p5519
I2521
sS'1ocSn5z'
p5520
I4057
sS'1qSmH5e'
p5521
I4211
sS'1pU9ysM'
p5522
I1645
sS'1h11FMb'
p5523
I3464
sS'1kudPlV'
p5524
I3465
sS'1gHVdPg'
p5525
I4481
sS'1i2H5dn'
p5526
I6342
sS'1hyyNuF'
p5527
I1165
sS'1l6mh6k'
p5528
I4827
sS'V5PBFk'
p5529
I4525
sS'1miRN39'
p5530
I3467
sS'1psJZBa'
p5531
I3468
sS'1nd3B9l'
p5532
I893
sS'1m029Yy'
p5533
I6781
sS'Tpoi7p'
p5534
I2863
sS'1l91m7o'
p5535
I5448
sS'1sI109r'
p5536
I1592
sS'1kCgY2Q'
p5537
I6440
sS'1jbL7AS'
p5538
I6309
sS'1sUXSVT'
p5539
I2653
sS'1joQVs7'
p5540
I60
sS'Qz2rcJ'
p5541
I5297
sS'1mUyFcf'
p5542
I2869
sS'1nBnEOI'
p5543
I838
sS'1l3IBCl'
p5544
I6871
sS'1qmwinC'
p5545
I7007
sS'1qgZqN8'
p5546
I2550
sS'Tti86a'
p5547
I3813
sS'1kWUyd1'
p5548
I5444
sS'1qWK9yu'
p5549
I2936
sS'1nJbjW0'
p5550
I3473
sS'1ksZYaJ'
p5551
I3956
sS'1juqwIf'
p5552
I6648
sS'1hsVFMn'
p5553
I4472
sS'1gBxgne'
p5554
I5873
sS'1hp08Q8'
p5555
I2748
sS'1jqaeoo'
p5556
I5874
sS'1o6D0x9'
p5557
I4140
sS'UyXvqd'
p5558
I716
sS'1lUvQWN'
p5559
I1146
sS'T77qC6'
p5560
I6180
sS'1gmLRbj'
p5561
I1589
sS'1jSzMHg'
p5562
I6937
sS'1nYQPvW'
p5563
I7064
sS'1od7zPD'
p5564
I192
sS'1j0eUhq'
p5565
I5179
sS'1oQJr4p'
p5566
I1508
sS'1oUeyfm'
p5567
I1219
sS'1oLvdTe'
p5568
I763
sS'1pwfqZQ'
p5569
I5850
sS'1pK0qsR'
p5570
I3476
sS'1p67tZf'
p5571
I3835
sS'1jEeXOn'
p5572
I5877
sS'1jOOaik'
p5573
I2279
sS'1hYEmWI'
p5574
I3007
sS'1iRJ8CB'
p5575
I1404
sS'1l4cwKI'
p5576
I6873
sS'1l0YQz8'
p5577
I3484
sS'1glVhnR'
p5578
I5642
sS'1lkYELO'
p5579
I7131
sS'1me7j58'
p5580
I6369
sS'1mu5sF8'
p5581
I4584
sS'1khM8Mk'
p5582
I1058
sS'1pvKM46'
p5583
I7136
sS'1nh4Gvg'
p5584
I3485
sS'1kBu3X8'
p5585
I6598
sS'1lEQNrh'
p5586
I4957
sS'1sqTRYW'
p5587
I3109
sS'1giWLiE'
p5588
I5878
sS'1pce6KH'
p5589
I6207
sS'1kW4dxc'
p5590
I5631
sS'1h9zCtP'
p5591
I1198
sS'1o3Akgk'
p5592
I853
sS'Usff6O'
p5593
I5879
sS'1q5przH'
p5594
I6732
sS'1mHkgQt'
p5595
I1558
sS'1kEvtmV'
p5596
I5880
sS'1e9W5Lw'
p5597
I5163
sS'1jbiSlL'
p5598
I3492
sS'1mUlcRU'
p5599
I637
sS'1jyscAo'
p5600
I3493
sS'1hjdRxw'
p5601
I3494
sS'1iSXrup'
p5602
I6874
sS'1joXc5L'
p5603
I5881
sS'1o75arU'
p5604
I6875
sS'1ghE9Kj'
p5605
I7098
sS'1mEaRJp'
p5606
I4892
sS'1uhngHW'
p5607
I5882
sS'1lyVcNT'
p5608
I2331
sS'1jOHqBh'
p5609
I5883
sS'1qBKciR'
p5610
I6876
sS'1iTiRaE'
p5611
I1178
sS'1iaPQGG'
p5612
I5884
sS'Tmibk7'
p5613
I2674
sS'1oONez9'
p5614
I3111
sS'1mclaaf'
p5615
I6525
sS'1hedowz'
p5616
I3499
sS'UtjdvR'
p5617
I6403
sS'1qcrEZj'
p5618
I3500
sS'1kR8GRZ'
p5619
I6878
sS'1jeCrcR'
p5620
I2635
sS'1l3S2BI'
p5621
I5751
sS'1kWTSB3'
p5622
I5885
sS'1nUyhgt'
p5623
I299
sS'1ieOGtX'
p5624
I1526
sS'1hRhyon'
p5625
I3503
sS'1p9TYet'
p5626
I898
sS'1g9SQo4'
p5627
I6857
sS'UEuqtC'
p5628
I3504
sS'1oRxFGT'
p5629
I3664
sS'1gaQtBt'
p5630
I3505
sS'1hUaFTf'
p5631
I978
sS'1pdKXhu'
p5632
I1356
sS'1t17ph1'
p5633
I5126
sS'1h34WKR'
p5634
I7140
sS'1m8kPRV'
p5635
I6482
sS'1msfhmA'
p5636
I3506
sS'1kzPf2q'
p5637
I751
sS'1nKB4st'
p5638
I3507
sS'1bLyyu8'
p5639
I1789
sS'1iG70rF'
p5640
I4149
sS'1mmnWs8'
p5641
I484
sS'1qyJKF2'
p5642
I3509
sS'1g9D6kS'
p5643
I3510
sS'1lFtxtq'
p5644
I952
sS'1kSK4LC'
p5645
I5708
sS'1pF4s2g'
p5646
I973
sS'1nCcrO5'
p5647
I1504
sS'1hLVcbt'
p5648
I3511
sS'1jwX6Jm'
p5649
I4954
sS'1nW2Osh'
p5650
I2207
sS'1fK77aG'
p5651
I3512
sS'1g8FU25'
p5652
I6908
sS'1l6OI3Z'
p5653
I3514
sS'1jiDyy2'
p5654
I3515
sS'1jvfbYe'
p5655
I1939
sS'1hO8WiK'
p5656
I5846
sS'1mB4EvL'
p5657
I3516
sS'Tf5OX1'
p5658
I5887
sS'1gkLKxk'
p5659
I421
sS'1lIjjpi'
p5660
I334
sS'1jf2XYf'
p5661
I5717
sS'1tX9SGP'
p5662
I5476
sS'1qK74j3'
p5663
I3250
sS'1ndyAFo'
p5664
I4627
sS'1paZT3b'
p5665
I4374
sS'Tz2U0c'
p5666
I4696
sS'nOFMJl'
p5667
I3519
sS'1vaqdbY'
p5668
I1246
sS'1pnWDiq'
p5669
I2304
sS'1tKP8lC'
p5670
I3586
sS'V2aMI5'
p5671
I370
sS'1hrWZ1E'
p5672
I3520
sS'1s2KQdV'
p5673
I817
sS'1kEIp97'
p5674
I3204
sS'1kU4u3N'
p5675
I6415
sS'1jkvfLZ'
p5676
I876
sS'1pDNq5B'
p5677
I4920
sS'1uxF4zK'
p5678
I4634
sS'1jovZVq'
p5679
I3022
sS'1kAgK9v'
p5680
I7103
sS'1pGMuzz'
p5681
I1800
sS'ZGjXd6'
p5682
I7295
sS'1vTKBkI'
p5683
I999
sS'1kllhzf'
p5684
I1530
sS'1pwZ0z0'
p5685
I4637
sS'1sLRvpH'
p5686
I4287
sS'1je5F1h'
p5687
I4953
sS'1kFwXwx'
p5688
I4638
sS'1hW7Scp'
p5689
I6879
sS'1heMQVW'
p5690
I2499
sS'1m6uXty'
p5691
I5202
sS'1m1zYZd'
p5692
I2552
sS'1oXtpsQ'
p5693
I1095
sS'SpMma0'
p5694
I3934
sS'1gflBQc'
p5695
I5820
sS'1jV0duA'
p5696
I1111
sS'1paYZUj'
p5697
I5892
sS'1rxly7o'
p5698
I4693
sS'1pwyh6g'
p5699
I3523
sS'1pQWNyf'
p5700
I4099
sS'1mVEERA'
p5701
I5040
sS'1nD4Al4'
p5702
I3524
sS'SCZ4Cd'
p5703
I5489
sS'1tC1Zqa'
p5704
I1175
sS'1sIz20A'
p5705
I4085
sS'1kFfTXb'
p5706
I5329
sS'TuQ5DW'
p5707
I5897
sS'1tD1FaA'
p5708
I5776
sS'1q5MaZa'
p5709
I3281
sS'1gh4uxp'
p5710
I3525
sS'1kNeGLi'
p5711
I2501
sS'1v0DBPU'
p5712
I5492
sS'1oynQkm'
p5713
I2880
sS'TDPG1D'
p5714
I3526
sS'1qhcZwl'
p5715
I3527
sS'1pANB0O'
p5716
I5898
sS'1kKuWNl'
p5717
I3319
sS'1yTpssm'
p5718
I5900
sS'1uHqQv8'
p5719
I6526
sS'1oyEWjg'
p5720
I3528
sS'1pPwatK'
p5721
I6881
sS'1pv2Knc'
p5722
I1008
sS'1kG9Typ'
p5723
I5901
sS'TJfObs'
p5724
I7084
sS'1kKP3Ox'
p5725
I3293
sS'Xvz88Y'
p5726
I6882
sS'1kM0VQf'
p5727
I3532
sS'1pjVjiT'
p5728
I580
sS'1oo8YVm'
p5729
I2176
sS'1pMfMwV'
p5730
I827
sS'1jccUB0'
p5731
I6082
sS'1pAsiiU'
p5732
I300
sS'SMVOnT'
p5733
I3355
sS'T1AhHX'
p5734
I5910
sS'1njgNrr'
p5735
I5911
sS'1ghv7SM'
p5736
I5912
sS'1hlZwjZ'
p5737
I4658
sS'1jyVqPs'
p5738
I5915
sS'1j7GZRU'
p5739
I392
sS'1sPswSo'
p5740
I3037
sS'1kS5EzQ'
p5741
I3537
sS'1jn3yTb'
p5742
I4457
sS'1m8NztD'
p5743
I5706
sS'1pCMgcI'
p5744
I3538
sS'1iAo3MV'
p5745
I3408
sS'UzhQMn'
p5746
I1398
sS'1ttCOpC'
p5747
I879
sS'TG5u3Z'
p5748
I5916
sS'1hfkPDN'
p5749
I1102
sS'1iNiTMF'
p5750
I3036
sS'1hX84vj'
p5751
I957
sS'1tAw5dP'
p5752
I3539
sS'1hl19OL'
p5753
I5507
sS'TqkGSB'
p5754
I6884
sS'1sxS8Xa'
p5755
I3867
sS'TCgDU3'
p5756
I4677
sS'1rQMfR7'
p5757
I3522
sS'1goEOPR'
p5758
I7278
sS'1qd69aP'
p5759
I7132
sS'1lsNKUy'
p5760
I6645
sS'1t0BpXv'
p5761
I3540
sS'1nlXYsq'
p5762
I288
sS'1hC2sDg'
p5763
I3578
sS'1wSyDaB'
p5764
I2208
sS'1nRk9V3'
p5765
I2982
sS'SBoujB'
p5766
I2262
sS'1gUbUXW'
p5767
I43
sS'1sgbXSS'
p5768
I3541
sS'1kukF5W'
p5769
I3636
sS'1k8Qc1n'
p5770
I6885
sS'1kDe9Pa'
p5771
I3542
sS'1pVmhv7'
p5772
I1946
sS'1upRcm6'
p5773
I5614
sS'1pMBKjr'
p5774
I1045
sS'1sJpnn2'
p5775
I3352
sS'1jDsU49'
p5776
I3543
sS'1nMtP3j'
p5777
I5812
sS'1lWcO6d'
p5778
I6867
sS'1gaIFQ4'
p5779
I1595
sS'1kMR8su'
p5780
I5515
sS'1kMR8sw'
p5781
I5516
sS'1prEtfP'
p5782
I3544
sS'1l4qHup'
p5783
I5921
sS'TypqFS'
p5784
I2228
sS'1ljSicW'
p5785
I1230
sS'1gILU1A'
p5786
I3545
sS'1kyyZjI'
p5787
I3546
sS'1jGPYd3'
p5788
I5630
sS'1j3af1c'
p5789
I6887
sS'1hC9Oq5'
p5790
I7221
sS'1gUgb8q'
p5791
I3547
sS'10EGg8H'
p5792
I6681
sS'1sIwoIc'
p5793
I632
sS'1jyFZXK'
p5794
I2689
sS'1qFfju1'
p5795
I4432
sS'1ngAB0h'
p5796
I6643
sS'1mcKJqf'
p5797
I7195
sS'Rfx1s7'
p5798
I6888
sS'1nX6xG9'
p5799
I708
sS'1kXBiHS'
p5800
I48
sS'1lMHOEG'
p5801
I3238
sS'HtMOOn'
p5802
I1405
sS'1m0bChV'
p5803
I278
sS'1h4ife4'
p5804
I6889
sS'TTY5yK'
p5805
I2947
sS'1jpr5ml'
p5806
I6890
sS'1mOhf5u'
p5807
I260
sS'JdFgkm'
p5808
I6917
sS'1mzhyOl'
p5809
I5922
sS'1qxiaI4'
p5810
I5923
sS'1pWsiav'
p5811
I3552
sS'1jXMft3'
p5812
I3553
sS'1gJbr5n'
p5813
I5924
sS'1pi9Snp'
p5814
I1044
sS'RUMNca'
p5815
I3518
sS'1x2F9f0'
p5816
I1817
sS'1sSiAHX'
p5817
I3521
sS'1uYFNZW'
p5818
I875
sS'SLU2TM'
p5819
I6891
sS'1gplMSv'
p5820
I4930
sS'1uV3ZKX'
p5821
I3555
sS'1nejlLb'
p5822
I557
sS'1kGcSa2'
p5823
I3556
sS'1hljPrG'
p5824
I1539
sS'1jqMocb'
p5825
I4321
sS'1psnmwm'
p5826
I6892
sS'17wXrKK'
p5827
I966
sS'1poOjOp'
p5828
I5925
sS'1mVDfvk'
p5829
I5926
sS'1ojEFgD'
p5830
I544
sS'1jeyr0Q'
p5831
I3557
sS'1ioFe43'
p5832
I4413
sS'UStJNk'
p5833
I2166
sS'1nDMsYn'
p5834
I4496
sS'1qL8qdo'
p5835
I6893
sS'1oaWFw0'
p5836
I281
sS'Th2NWa'
p5837
I3598
sS'1pPWkg0'
p5838
I3599
sS'1jyCyjQ'
p5839
I271
sS'1lPTo3b'
p5840
I5933
sS'1oYnLqA'
p5841
I92
sS'1qmtbfi'
p5842
I6687
sS'1nrCdCO'
p5843
I1242
sS'1gC4B6R'
p5844
I920
sS'1ptpZ17'
p5845
I6894
sS'1kBcfOZ'
p5846
I6064
sS'1jL1Jzu'
p5847
I3951
sS'1txNsvB'
p5848
I3602
sS'1iyBVfZ'
p5849
I5607
sS'TlXRzh'
p5850
I3603
sS'1nOr5n9'
p5851
I3604
sS'1m40y5R'
p5852
I5291
sS'1pb4Lmj'
p5853
I6152
sS'1j6yVlF'
p5854
I546
sS'RIjRnl'
p5855
I3605
sS'1nx7tSB'
p5856
I2344
sS'R4HDsX'
p5857
I3606
sS'1jsZdhc'
p5858
I1617
sS'1qvXAIe'
p5859
I5028
sS'V5BSyb'
p5860
I89
sS'QJ53Ep'
p5861
I3607
sS'1geDaAj'
p5862
I3214
sS'1m0KY8H'
p5863
I2043
sS'1kY26MB'
p5864
I2923
sS'1vcBRVq'
p5865
I3608
sS'1pzuBiY'
p5866
I2922
sS'1hqRPn0'
p5867
I1330
sS'TSkYCe'
p5868
I444
sS'SMhkJc'
p5869
I3573
sS'1nONQEo'
p5870
I4732
sS'1v4LRhB'
p5871
I1371
sS'1wmJABQ'
p5872
I7075
sS'1jhEBcG'
p5873
I2201
sS'1wl1ogF'
p5874
I3702
sS'Sn1Cnf'
p5875
I34
sS'T0yT9l'
p5876
I5935
sS'1l3nSgU'
p5877
I5300
sS'SXysvE'
p5878
I3374
sS'1l6UJOe'
p5879
I7000
sS'1qwITSq'
p5880
I2589
sS'1kHSiFM'
p5881
I177
sS'1hq8NSm'
p5882
I3620
sS'1kSRz1T'
p5883
I6896
sS'1pp6V4e'
p5884
I3577
sS'1lFN0uY'
p5885
I5936
sS'1lsBwLK'
p5886
I2473
sS'1h5k2zy'
p5887
I1073
sS'1kHmWel'
p5888
I6683
sS'UU7sOV'
p5889
I1076
sS'PRlDkR'
p5890
I3005
sS'1pHoVUs'
p5891
I5937
sS'1k2EnWl'
p5892
I1275
sS'1ldGfR3'
p5893
I5829
sS'1o83WNc'
p5894
I2218
sS'1kVGsnr'
p5895
I416
sS'1hAsEOz'
p5896
I2274
sS'1kV4yAp'
p5897
I5938
sS'1qyH0aC'
p5898
I2224
sS'1kKOHaH'
p5899
I3734
sS'Tql0kd'
p5900
I4840
sS'1gsLRBx'
p5901
I3614
sS'1hXUzrN'
p5902
I243
sS'1o6dDIz'
p5903
I3615
sS'RLPnk9'
p5904
I4752
sS'1otiFn0'
p5905
I3089
sS'1p2Vsnm'
p5906
I4380
sS'1hfc6Bj'
p5907
I1304
sS'1gPgi51'
p5908
I6408
sS'1h8VTYP'
p5909
I5467
sS'1mHkTJN'
p5910
I6899
sS'TBxN3e'
p5911
I3661
sS'1rcpWES'
p5912
I1752
sS'1jNdG82'
p5913
I4757
sS'TJB2G9'
p5914
I6328
sS'1mJEaue'
p5915
I5942
sS'1l0dy5Y'
p5916
I1931
sS'1hGj9TT'
p5917
I5832
sS'VrsPHV'
p5918
I913
sS'1kBrirE'
p5919
I3489
sS'1qA8w4K'
p5920
I5943
sS'1ou09uz'
p5921
I4894
sS'1qzfee7'
p5922
I3666
sS'1o0AJQI'
p5923
I1707
sS'1nOhhtm'
p5924
I5046
sS'1s6W2pR'
p5925
I1982
sS'UoDe6L'
p5926
I7288
sS'1lIc4iu'
p5927
I3667
sS'TQPxbT'
p5928
I628
sS'1gC1Lie'
p5929
I3461
sS'Su5eF2'
p5930
I1733
sS'1gZyCsc'
p5931
I1036
sS'1qtiW9d'
p5932
I3773
sS'1nIX7kE'
p5933
I4971
sS'1sCoQBm'
p5934
I6901
sS'1iTontN'
p5935
I5777
sS'ROPN9X'
p5936
I3232
sS'SxAkLs'
p5937
I6902
sS'1oFqaVn'
p5938
I2852
sS'TflF7Z'
p5939
I1244
sS'1oAdfoY'
p5940
I6903
sS'1jSENOX'
p5941
I5947
sS'1istn3P'
p5942
I3236
sS'1jsZu4V'
p5943
I5948
sS'1kQeZXs'
p5944
I4949
sS'Tmb7Es'
p5945
I427
sS'1k28S2V'
p5946
I3633
sS'1jql79G'
p5947
I6340
sS'1jgtTCr'
p5948
I5012
sS'Unfz6T'
p5949
I7058
sS'1pct2uN'
p5950
I3026
sS'1jL9ntG'
p5951
I4298
sS'1rdpq9P'
p5952
I6414
sS'1nh4Tig'
p5953
I2384
sS'1gojvxL'
p5954
I3671
sS'1sCDESA'
p5955
I6478
sS'1mXTZxK'
p5956
I2491
sS'1pNo7Ag'
p5957
I5770
sS'1gh1gKe'
p5958
I6216
sS'1o1mvm8'
p5959
I2747
sS'1nsIpvK'
p5960
I2050
sS'1jWOlyc'
p5961
I2276
sS'1iDQpHO'
p5962
I4402
sS'1lGpJq2'
p5963
I3672
sS'1kF8mIW'
p5964
I5906
sS'1oYvxgL'
p5965
I1414
sS'1nrXPQ1'
p5966
I990
sS'1kuImPX'
p5967
I3673
sS'1ggrwov'
p5968
I1210
sS'UUB52Z'
p5969
I3848
sS'1hZqgky'
p5970
I3674
sS'1pMwFr7'
p5971
I1696
sS'1gvDAlx'
p5972
I6333
sS'1nyZ7Nj'
p5973
I3675
sS'1jUUdI1'
p5974
I3676
sS'Sm0Qr1'
p5975
I5987
sS'1qFJUu9'
p5976
I3779
sS'1hl17Xg'
p5977
I3859
sS'1kQj9yn'
p5978
I49
sS'1pTEj08'
p5979
I3677
sS'1kFsB4R'
p5980
I5678
sS'U3wefn'
p5981
I280
sS'1o0C79n'
p5982
I6895
sS'1kpn469'
p5983
I4556
sS'1nwcZDF'
p5984
I4854
sS'1kSHN34'
p5985
I7207
sS'1p0OlM9'
p5986
I3659
sS'1ogQy7f'
p5987
I3680
sS'1lIK96C'
p5988
I5138
sS'U0V2o7'
p5989
I3681
sS'1mwRC2s'
p5990
I5953
sS'1gwYwZz'
p5991
I6905
sS'TlF2fI'
p5992
I972
sS'1kNyhy1'
p5993
I6906
sS'1uejQXp'
p5994
I4561
sS'1poyes4'
p5995
I209
sS'1kYhA46'
p5996
I3682
sS'1lFcc59'
p5997
I3235
sS'1oAw48c'
p5998
I6420
sS'1hrfzHu'
p5999
I2389
sS'1mEFWio'
p6000
I75
sS'1kI8e6F'
p6001
I3811
sS'1v3AGaX'
p6002
I441
sS'1m7oFxg'
p6003
I6100
sS'1jrn2WM'
p6004
I4989
sS'1pXWRPU'
p6005
I3683
sS'1m89hCc'
p6006
I3684
sS'1iXTwNM'
p6007
I3944
sS'1pcqv0e'
p6008
I2480
sS'1qJSd8u'
p6009
I5954
sS'1fefF7e'
p6010
I5199
sS'1pCd7mr'
p6011
I5955
sS'1qGaPHq'
p6012
I7102
sS'Q76USI'
p6013
I6913
sS'1o1VNpT'
p6014
I1234
sS'1mWtXiI'
p6015
I4347
sS'1onNb0l'
p6016
I1034
sS'1g1xDan'
p6017
I6536
sS'1j16TLQ'
p6018
I5679
sS'1rqsAXP'
p6019
I3699
sS'1jZV9sq'
p6020
I5151
sS'1rzy06B'
p6021
I1215
sS'1pteLrc'
p6022
I5975
sS'1kDeKgB'
p6023
I3233
sS'1pfoXpc'
p6024
I905
sS'1hcqRiT'
p6025
I6915
sS'1lXhNDQ'
p6026
I6916
sS'1oqSFYr'
p6027
I7257
sS'RQePoL'
p6028
I6464
sS'1gwCZQs'
p6029
I3638
sS'1gvEY7T'
p6030
I2701
sS'1pB6Isk'
p6031
I5455
sS'1haHHyB'
p6032
I7143
sS'1gpEHDq'
p6033
I3855
sS'1lfoDkT'
p6034
I3705
sS'177GBNH'
p6035
I3706
sS'1kO1LJ1'
p6036
I3707
sS'1qKXhJR'
p6037
I5029
sS'1jaeAuG'
p6038
I1989
sS'1kLwz0m'
p6039
I6497
sS'1q0YTPa'
p6040
I5966
sS'1qeOGPv'
p6041
I1353
sS'1hADetE'
p6042
I5796
sS'1oRrLsG'
p6043
I6919
sS'1k6DTQ1'
p6044
I6486
sS'1lmEYYn'
p6045
I3708
sS'1tBbOon'
p6046
I5971
sS'UAHksE'
p6047
I2576
sS'1l7vnEC'
p6048
I6920
sS'1kqN95l'
p6049
I394
sS'1jsUj8q'
p6050
I2076
sS'1ktTUTY'
p6051
I4500
sS'1m7qOZQ'
p6052
I4460
sS'1jn6J1U'
p6053
I5968
sS'17cZAKX'
p6054
I5566
sS'1vcF7Aa'
p6055
I6644
sS'1pg4td4'
p6056
I5969
sS'1ieCSI8'
p6057
I5970
sS'TDtEfY'
p6058
I6610
sS'TC7rhI'
p6059
I4936
sS'1mjdQov'
p6060
I6921
sS'1qDS8jV'
p6061
I5458
sS'1jwwc4t'
p6062
I3858
sS'1kI367e'
p6063
I4937
sS'1hc9HBR'
p6064
I4479
sS'1gry0kd'
p6065
I3398
sS'1hwZDDb'
p6066
I2170
sS'1qwbMOA'
p6067
I3714
sS'1o5S2mZ'
p6068
I6686
sS'1mJeH40'
p6069
I3216
sS'QoJmZJ'
p6070
I934
sS'1m61zqK'
p6071
I7277
sS'SVTEmd'
p6072
I1169
sS'1odx6qH'
p6073
I1340
sS'16rqfTy'
p6074
I3715
sS'1qlWrmO'
p6075
I1634
sS'1kmGslK'
p6076
I2068
sS'1hf7g7e'
p6077
I3716
sS'1kVANgY'
p6078
I6922
sS'1oruWEr'
p6079
I954
sS'1ljYe8X'
p6080
I3717
sS'1ggI0Nw'
p6081
I2799
sS'1ljFBBK'
p6082
I5608
sS'Ungi84'
p6083
I5779
sS'1hCCvmN'
p6084
I3091
sS'1s8oR57'
p6085
I931
sS'1g8Q42E'
p6086
I3719
sS'1gEKGV8'
p6087
I4605
sS'1lqTKNg'
p6088
I3191
sS'1oM5Fo6'
p6089
I5986
sS'TH9e5E'
p6090
I2194
sS'1nKhNaA'
p6091
I3075
sS'1pQ5kCn'
p6092
I6632
sS'1pf4DlI'
p6093
I362
sS'1pxYTD2'
p6094
I3570
sS'1msufuv'
p6095
I7280
sS'1ocqNaa'
p6096
I5993
sS'1t5TYMI'
p6097
I5274
sS'1sKiuSr'
p6098
I5994
sS'1da7GHU'
p6099
I3721
sS'TwbzQo'
p6100
I1019
sS'1phIrXa'
p6101
I5180
sS'1pK2bUy'
p6102
I5946
sS'1m5qacE'
p6103
I4911
sS'1nYkt7f'
p6104
I3877
sS'1oKcCJA'
p6105
I6923
sS'1h014KG'
p6106
I2709
sS'1hzHlkZ'
p6107
I943
sS'1nkKgT9'
p6108
I601
sS'1nVLrJ7'
p6109
I4614
sS'1mJNEFA'
p6110
I3723
sS'TlJwTG'
p6111
I5053
sS'1q5jOBD'
p6112
I1510
sS'1okfmf7'
p6113
I3724
sS'1qYyDkw'
p6114
I3725
sS'1qjTXCe'
p6115
I109
sS'1pGET4l'
p6116
I6009
sS'1hfZREF'
p6117
I3646
sS'1oTXmHn'
p6118
I3726
sS'TtT5jp'
p6119
I3280
sS'1nFM8Fi'
p6120
I3152
sS'VgJ1fc'
p6121
I1009
sS'1kLByy2'
p6122
I3727
sS'Sa1OXE'
p6123
I6011
sS'1nubNRK'
p6124
I6749
sS'TlBrOM'
p6125
I6012
sS'1gmOQRk'
p6126
I6718
sS'1k5Gt91'
p6127
I2066
sS'1v4H6HQ'
p6128
I786
sS'1g9WqP9'
p6129
I6014
sS'1jgWjll'
p6130
I6015
sS'1mk2pA9'
p6131
I5235
sS'1mFwqtd'
p6132
I5978
sS'1gYzwFi'
p6133
I6924
sS'1wCqFlS'
p6134
I777
sS'1iPVlqg'
p6135
I4895
sS'1p6mPPt'
p6136
I5479
sS'1fCr4Ax'
p6137
I1598
sS'1tFZ8fR'
p6138
I6016
sS'1jeO9nP'
p6139
I6926
sS'1gm5bG6'
p6140
I6017
sS'1nSHQOA'
p6141
I1258
sS'1mIfvYx'
p6142
I2854
sS'1gBWEOZ'
p6143
I4178
sS'1mKtPmi'
p6144
I4171
sS'Vsp2dp'
p6145
I3732
sS'1psNCDS'
p6146
I4174
sS'1vkievJ'
p6147
I6080
sS'1gGZeUt'
p6148
I3743
sS'1m6qY3y'
p6149
I4636
sS'1gB72qs'
p6150
I3202
sS'TsLlOf'
p6151
I207
sS'1gCcnxL'
p6152
I2625
sS'1oki59I'
p6153
I6018
sS'1mDZ3tl'
p6154
I3611
sS'1hh5rqv'
p6155
I769
sS'1iT8HXA'
p6156
I2243
sS'S8woAV'
p6157
I5870
sS'1pwGC8R'
p6158
I3744
sS'1gHrmo4'
p6159
I3745
sS'1l3e07N'
p6160
I242
sS'1niNFSu'
p6161
I6975
sS'1pBOKW4'
p6162
I3188
sS'TALTC0'
p6163
I2932
sS'1gt9qiI'
p6164
I2301
sS'1lFwTuL'
p6165
I5671
sS'1ti0a1s'
p6166
I4642
sS'1pC0ZS7'
p6167
I1912
sS'1tHvHKD'
p6168
I70
sS'1h5kqhm'
p6169
I3746
sS'SpRLxy'
p6170
I6927
sS'1mZVo8S'
p6171
I369
sS'1j0Ggb6'
p6172
I3747
sS'1oKwv31'
p6173
I2944
sS'1sWXdVS'
p6174
I4816
sS'1lL2Syg'
p6175
I6025
sS'1pC6uka'
p6176
I164
sS'1m44weE'
p6177
I6392
sS'1lRVRsA'
p6178
I4323
sS'UO5qzL'
p6179
I4206
sS'UuGu0k'
p6180
I2290
sS'1lIoDfa'
p6181
I3411
sS'1jXd1Ss'
p6182
I2621
sS'1hiuZxG'
p6183
I7018
sS'1ho2w9y'
p6184
I6026
sS'1qtNEz3'
p6185
I3928
sS'1g6us6B'
p6186
I400
sS'1hhkBMg'
p6187
I6061
sS'1jwdsC0'
p6188
I3748
sS'1sBm9TC'
p6189
I5220
sS'ThPLb9'
p6190
I5648
sS'1mdg0Gb'
p6191
I795
sS'1p8hg10'
p6192
I4940
sS'1qndQbz'
p6193
I6027
sS'qbFATP'
p6194
I6028
sS'1oOrTWZ'
p6195
I4652
sS'1ji4fTm'
p6196
I3119
sS'TpvvVn'
p6197
I385
sS'1pdLCPz'
p6198
I1106
sS'1iJxRJ9'
p6199
I4654
sS'1nOy7bM'
p6200
I3749
sS'1h4dpNQ'
p6201
I5876
sS'1m4U5Va'
p6202
I1308
sS'1kjNq9S'
p6203
I6033
sS'1kUzKCL'
p6204
I6034
sS'ToBola'
p6205
I3750
sS'1nXxgXr'
p6206
I0
sS'pk8iCP'
p6207
I3751
sS'1x6mYVT'
p6208
I4295
sS'1jc2syn'
p6209
I3752
sS'1jBym8l'
p6210
I3753
sS'1gF9NXM'
p6211
I4795
sS'1hKv3Mw'
p6212
I1091
sS'1n8Reuu'
p6213
I6997
sS'1wG4qw9'
p6214
I1695
sS'1kMRTOy'
p6215
I2463
sS'1jXVtdD'
p6216
I3754
sS'SO5a2H'
p6217
I30
sS'Tma7Qn'
p6218
I2507
sS'1iQU4UD'
p6219
I6793
sS'1jXTzbq'
p6220
I3058
sS'1hDmP2M'
p6221
I3663
sS'Tx1x1b'
p6222
I5429
sS'1p3BiK1'
p6223
I6286
sS'1lSKksR'
p6224
I3501
sS'1pNqKB5'
p6225
I3756
sS'1jXp3KA'
p6226
I1786
sS'1nZV5JO'
p6227
I6655
sS'1o4fXDk'
p6228
I2706
sS'1smhuns'
p6229
I1061
sS'1mjOM0K'
p6230
I4383
sS'1ndrcDM'
p6231
I6596
sS'1fTzbmO'
p6232
I4281
sS'THEf9R'
p6233
I4073
sS'TkA6au'
p6234
I1841
sS'1qcPzb2'
p6235
I6750
sS'1jIaACa'
p6236
I6084
sS'1inK6JO'
p6237
I6912
sS'1q7iSZI'
p6238
I6933
sS'1jxMOJ4'
p6239
I3757
sS'PvspHg'
p6240
I4143
sS'1pyug0n'
p6241
I5245
sS'1v79JkR'
p6242
I4212
sS'1hSCJGG'
p6243
I5513
sS'1hudc6K'
p6244
I5782
sS'1kx1jSE'
p6245
I6039
sS'1kWSvCB'
p6246
I2197
sS'1qpov8N'
p6247
I3134
sS'1lzENrS'
p6248
I956
sS'1u911Sz'
p6249
I4967
sS'1oRdGYX'
p6250
I3849
sS'1oaibOT'
p6251
I6117
sS'1m2KeBf'
p6252
I3758
sS'1o7QQiL'
p6253
I6051
sS'1hal5yf'
p6254
I6677
sS'Tq1UdT'
p6255
I7100
sS'1lIn2WD'
p6256
I3488
sS'Ws6VOc'
p6257
I3153
sS'1gUWEdo'
p6258
I814
sS'1v5uJLs'
p6259
I6940
sS'1kChJ97'
p6260
I7218
sS'1hYXvV4'
p6261
I6151
sS'1kvTT1q'
p6262
I971
sS'1gqhOA6'
p6263
I7148
sS'1iY5dCZ'
p6264
I1267
sS'1nS5wSS'
p6265
I6931
sS'1ny2FOJ'
p6266
I6300
sS'1nS5wSQ'
p6267
I6775
sS'1mxeLlj'
p6268
I7244
sS'1ogrLST'
p6269
I2912
sS'1wtkqSg'
p6270
I3021
sS'1jCLip2'
p6271
I3760
sS'RICuYd'
p6272
I2633
sS'1pzhsJY'
p6273
I6055
sS'1llhgLL'
p6274
I3761
sS'1li1ZH9'
p6275
I3241
sS'1pmNLIN'
p6276
I27
sS'OONQIZ'
p6277
I6942
sS'1gEK7KF'
p6278
I2107
sS'Spn3EH'
p6279
I5618
sS'1lU03rD'
p6280
I4695
sS'1onqY2x'
p6281
I5716
sS'1imDOds'
p6282
I3255
sS'1gnbM3d'
p6283
I6944
sS'R3N7ou'
p6284
I2
sS'1wQs8WK'
p6285
I1567
sS'1psQ0gV'
p6286
I3763
sS'1lnx8NG'
p6287
I4436
sS'1gcQuVJ'
p6288
I1501
sS'1p67aOo'
p6289
I1717
sS'1gsfGHA'
p6290
I452
sS'OyJ8OI'
p6291
I1263
sS'1jwOtEi'
p6292
I4702
sS'1bxMaXS'
p6293
I6945
sS'1ylHR0M'
p6294
I3765
sS'1gIult9'
p6295
I843
sS'1kmROp3'
p6296
I4704
sS'1oTSSQK'
p6297
I6057
sS'TxqfOP'
p6298
I3766
sS'1guA62L'
p6299
I3767
sS'1dzyQcS'
p6300
I6946
sS'16WUGgT'
p6301
I1319
sS'1nWibTB'
p6302
I1349
sS'1sEIKh7'
p6303
I4242
sS'1jUtXMl'
p6304
I4686
sS'TmeZ8j'
p6305
I3698
sS'1oyFlSr'
p6306
I5280
sS'SEvnko'
p6307
I3768
sS'1kIc18W'
p6308
I495
sS'1nCQNsE'
p6309
I6058
sS'1mnbJ4W'
p6310
I3769
sS'1jFEn2y'
p6311
I3770
sS'1sjt4xP'
p6312
I3771
sS'9DW8I2'
p6313
I6947
sS'1loAgrl'
p6314
I6948
sS'1kLDj9W'
p6315
I4718
sS'1leowEO'
p6316
I6221
sS'1kQDsbJ'
p6317
I163
sS'1oUGuCX'
p6318
I4720
sS'1isLg70'
p6319
I4721
sS'RFZ2c8'
p6320
I303
sS'RB1DE0'
p6321
I2986
sS'1p2wW6j'
p6322
I4724
sS'1nJseew'
p6323
I6060
sS'1gpqNBy'
p6324
I5392
sS'1lzF90x'
p6325
I5292
sS'1rQEue2'
p6326
I2515
sS'Lxoey2'
p6327
I6684
sS'1pCnN4k'
p6328
I7293
sS'1o9OVc6'
p6329
I6631
sS'1gZWhZA'
p6330
I3774
sS'1sxe8S5'
p6331
I1724
sS'RJ5L5w'
p6332
I6752
sS'1jbO9uw'
p6333
I6001
sS'1lWgra5'
p6334
I2524
sS'1yTUNeo'
p6335
I5451
sS'1lpIIbu'
p6336
I6062
sS'1ip75S3'
p6337
I4522
sS'1nFBuiK'
p6338
I320
sS'1tUrZ1X'
p6339
I104
sS'Tdaugb'
p6340
I2096
sS'1nBpaPu'
p6341
I3777
sS'1h6chZY'
p6342
I1932
sS'1pNB9Op'
p6343
I6542
sS'1gxfRRV'
p6344
I3783
sS'1kOILgP'
p6345
I3137
sS'RjcmUd'
p6346
I5152
sS'1fGJXwK'
p6347
I3784
sS'1jDktpl'
p6348
I516
sS'1jmoQpx'
p6349
I1507
sS'1pedeFd'
p6350
I4928
sS'1tDO3fg'
p6351
I2273
sS'TJnNFs'
p6352
I3582
sS'1kvsYCY'
p6353
I6856
sS'1kRNSwz'
p6354
I3077
sS'1oQ5bgW'
p6355
I7005
sS'1hoXbit'
p6356
I6206
sS'1meLm1x'
p6357
I2230
sS'1qmpJBC'
p6358
I6860
sS'1ghxBLU'
p6359
I1921
sS'1lwMdIT'
p6360
I3919
sS'1us8lKY'
p6361
I414
sS'1pzZMM5'
p6362
I3622
sS'1qu92lj'
p6363
I61
sS'1kEUZs7'
p6364
I161
sS'1iiciyY'
p6365
I5317
sS'1g4hruD'
p6366
I7110
sS'1hCzz9P'
p6367
I3590
sS'1nRVaiB'
p6368
I2311
sS'1jpQ0uY'
p6369
I5801
sS'1gidIcL'
p6370
I6063
sS'1j7IxR1'
p6371
I5871
sS'QNUFLm'
p6372
I144
sS'1uZUha1'
p6373
I6951
sS'1hK2eKx'
p6374
I4293
sS'1pD50qu'
p6375
I3351
sS'1laCjks'
p6376
I4808
sS'UsuL2l'
p6377
I5697
sS'1lrsEpQ'
p6378
I714
sS'1jWj21N'
p6379
I3283
sS'1onBB5F'
p6380
I2987
sS'1iWCEpE'
p6381
I3788
sS'1jMfXAc'
p6382
I2330
sS'1pdtZn6'
p6383
I3789
sS'1hJUPul'
p6384
I2840
sS'1j3fSJn'
p6385
I1143
sS'1dIgFlP'
p6386
I3790
sS'1jttEUw'
p6387
I593
sS'1hdjKGW'
p6388
I2516
sS'Lx1MFb'
p6389
I2283
sS'1pWFD5m'
p6390
I6990
sS'1nX8TG2'
p6391
I3791
sS'1qALvBr'
p6392
I5080
sS'1oDlVvc'
p6393
I38
sS'1s7IIML'
p6394
I791
sS'1wQrUik'
p6395
I517
sS'1llnjjN'
p6396
I6952
sS'1l7masI'
p6397
I6068
sS'1qjzFMk'
p6398
I6953
sS'1jz3GCn'
p6399
I3195
sS'1oVVe51'
p6400
I1974
sS'1o2XK5m'
p6401
I1615
sS'1lMMveb'
p6402
I354
sS'TNnw4z'
p6403
I3792
sS'1oMvJPX'
p6404
I6069
sS'1yjhHvu'
p6405
I5122
sS'1gRscKS'
p6406
I6779
sS'1jYeMi7'
p6407
I3282
sS'1kDkrv7'
p6408
I1458
sS'1gAiQJq'
p6409
I2957
sS'1jBgwm1'
p6410
I4036
sS'1pc9aVX'
p6411
I663
sS'1oVW3qX'
p6412
I6267
sS'1pDueoM'
p6413
I3798
sS'1inHjxc'
p6414
I5615
sS'1qqYUwZ'
p6415
I3341
sS'S9yekM'
p6416
I5434
sS'1iL7yAQ'
p6417
I5435
sS'1hgfTJ1'
p6418
I3799
sS'1kC9j4G'
p6419
I5752
sS'1pz0YhU'
p6420
I1081
sS'TtAggv'
p6421
I6563
sS'1nUYPfK'
p6422
I6202
sS'1mBD8Sn'
p6423
I3498
sS'1mxdVVO'
p6424
I2615
sS'1lxJUVl'
p6425
I1433
sS'Uo0EJa'
p6426
I105
sS'1hAksOq'
p6427
I4548
sS'1meMeqC'
p6428
I5437
sS'1ocUyaX'
p6429
I1651
sS'1tCuc07'
p6430
I7189
sS'1dL3P6u'
p6431
I3800
sS'1uTgDvG'
p6432
I4349
sS'1jvVgx8'
p6433
I4789
sS'1ggfBQN'
p6434
I1584
sS'1gqF3tg'
p6435
I3801
sS'1piWbAV'
p6436
I3474
sS'1gsBCND'
p6437
I5610
sS'10g2biR'
p6438
I6071
sS'1jbIgxs'
p6439
I2738
sS'1kLouHe'
p6440
I6456
sS'1nz7W9Z'
p6441
I4688
sS'1i2TaiE'
p6442
I5577
sS'1yU9e2g'
p6443
I3288
sS'U0CKDs'
p6444
I5845
sS'1r0iMq7'
p6445
I3332
sS'UrONdb'
p6446
I3803
sS'1jvKcfy'
p6447
I927
sS'1pYNX1H'
p6448
I4397
sS'1iwOYfM'
p6449
I3804
sS'1huPiYI'
p6450
I2402
sS'1qtjpbh'
p6451
I6076
sS'QrtW7l'
p6452
I5139
sS'1qB3jdK'
p6453
I65
sS'fY6sp2'
p6454
I2997
sS'1gAgGts'
p6455
I2990
sS'1jsV1OD'
p6456
I4563
sS'1gsY0f3'
p6457
I5949
sS'19F0voI'
p6458
I3805
sS'1nTjtQu'
p6459
I813
sS'1peUd5N'
p6460
I7222
sS'1qEUeCQ'
p6461
I5400
sS'1k7e4SZ'
p6462
I3806
sS'1yVV3cV'
p6463
I2919
sS'1g8Meqe'
p6464
I3807
sS'1kU82FX'
p6465
I2668
sS'UnkNPP'
p6466
I6649
sS'1nX4TFm'
p6467
I3812
sS'1gf9AKM'
p6468
I321
sS'SqWDSX'
p6469
I7114
sS'WXRZxx'
p6470
I3001
sS'1k6EPHg'
p6471
I3246
sS'1jWykTg'
p6472
I3076
sS'1jb7OoE'
p6473
I1342
sS'1bFjrmb'
p6474
I5576
sS'1pyZwfr'
p6475
I3857
sS'1giRpDK'
p6476
I6083
sS'1lWG5z6'
p6477
I3814
sS'1oNw1Gh'
p6478
I6939
sS'1phiQhq'
p6479
I3815
sS'1wlGld0'
p6480
I2397
sS'1jB0FhO'
p6481
I5568
sS'1kKppsZ'
p6482
I5907
sS'1hdJAQI'
p6483
I2722
sS'1l0Y4D2'
p6484
I7232
sS'1oCzMjH'
p6485
I5657
sS'TywS3B'
p6486
I1654
sS'1x9f5jf'
p6487
I1000
sS'1pQ3eSm'
p6488
I3032
sS'1pKsJED'
p6489
I6949
sS'UbdQkM'
p6490
I4241
sS'Si5x5e'
p6491
I6958
sS'1nB2G5N'
p6492
I6628
sS'1jwvqcl'
p6493
I3825
sS'1gmQwtS'
p6494
I6091
sS'1jW6sEj'
p6495
I4585
sS'1kGj5zL'
p6496
I3420
sS'1p69WD0'
p6497
I2931
sS'1kOeD0k'
p6498
I6898
sS'1lzYX61'
p6499
I6092
sS'SbIMjz'
p6500
I4950
sS'1oghZyt'
p6501
I3826
sS'UFOuf9'
p6502
I1343
sS'1ouNfZ6'
p6503
I3881
sS'1jIm6lG'
p6504
I5569
sS'1rCbWZ9'
p6505
I789
sS'1n3YE2Y'
p6506
I5852
sS'1lGd5v3'
p6507
I3827
sS'I1pEjd'
p6508
I3828
sS'1nILNBz'
p6509
I834
sS'1gnsrTI'
p6510
I3158
sS'1jAhqJR'
p6511
I3829
sS'1hkFLmY'
p6512
I6095
sS'1nhY8MN'
p6513
I926
sS'1gKqr2T'
p6514
I4777
sS'1iLuMr1'
p6515
I5670
sS'1kRuwHW'
p6516
I6468
sS'1iOlTz5'
p6517
I7184
sS'1xz5jHj'
p6518
I1141
sS'1ptdy25'
p6519
I3831
sS'1qL5Ap1'
p6520
I6853
sS'1mdTSC7'
p6521
I1698
sS'1gZx3Pi'
p6522
I5222
sS'1grXDBu'
p6523
I1985
sS'1oBiEfy'
p6524
I5819
sS'1g84EVx'
p6525
I5170
sS'1q3IZnh'
p6526
I7012
sS'1fNcKzR'
p6527
I3833
sS'1sEDxG4'
p6528
I3834
sS'1q0ntzG'
p6529
I6007
sS'1uvobVe'
p6530
I3838
sS'1oO3KE1'
p6531
I189
sS'1uto90Z'
p6532
I4602
sS'1hHFJ8O'
p6533
I3839
sS'1jXMCIM'
p6534
I1621
sS'RcMWqG'
p6535
I1396
sS'1nz8olq'
p6536
I3840
sS'1fOFQhM'
p6537
I5173
sS'1qqi59d'
p6538
I3234
sS'1fIOpkj'
p6539
I3841
sS'1mfDCPi'
p6540
I1158
sS'1jhBma1'
p6541
I1907
sS'1tFqaEl'
p6542
I5413
sS'1jqEewp'
p6543
I429
sS'1hzVFdh'
p6544
I4613
sS'1qn2WDv'
p6545
I6647
sS'1l29otX'
p6546
I5950
sS'1mE38eh'
p6547
I6098
sS'1nSn69E'
p6548
I5951
sS'1iXH3JY'
p6549
I3247
sS'1jmX0Zm'
p6550
I6099
sS'1hIgRDp'
p6551
I284
sS'1qqZuak'
p6552
I4410
sS'1uSFu3L'
p6553
I3939
sS'1jx4SZh'
p6554
I4611
sS'1jizUDp'
p6555
I5774
sS'1heL5bd'
p6556
I5006
sS'1kUb25t'
p6557
I3845
sS'1iPzO5I'
p6558
I2892
sS'1hpKzXY'
p6559
I1471
sS'1mTlJ6a'
p6560
I1737
sS'1l0bN8K'
p6561
I1499
sS'1jyjke0'
p6562
I3483
sS'1gcyULS'
p6563
I440
sS'SOBC4S'
p6564
I2445
sS'1nXggfC'
p6565
I5473
sS'1pUPsAV'
p6566
I1569
sS'UHdZwy'
p6567
I3846
sS'1tsnVUN'
p6568
I3847
sS'1k8udcr'
p6569
I5425
sS'1kY8umC'
p6570
I6961
sS'1jVCNFN'
p6571
I1013
sS'1gjCCJb'
p6572
I6101
sS'1mAwInR'
p6573
I6581
sS'1a4q2YZ'
p6574
I6102
sS'1ih9LGJ'
p6575
I6103
sS'1r1ZMmJ'
p6576
I5189
sS'1hcP7qH'
p6577
I2379
sS'1wd8C6l'
p6578
I3856
sS'1nXggfy'
p6579
I5478
sS'1gPKsoD'
p6580
I6676
sS'TWJD99'
p6581
I1960
sS'1lVc5BI'
p6582
I4631
sS'1jaN8BO'
p6583
I6966
sS'1jClTLS'
p6584
I815
sS'1mXolQR'
p6585
I1791
sS'1p9wBhL'
p6586
I6104
sS'1lpu0RJ'
p6587
I1007
sS'1k02xSg'
p6588
I3266
sS'1ghfW5D'
p6589
I5195
sS'1kHUZaW'
p6590
I6823
sS'TfQHwB'
p6591
I6287
sS'1hJu7rn'
p6592
I832
sS'Rs2wyI'
p6593
I1900
sS'1mBSzda'
p6594
I1776
sS'1kTQzhh'
p6595
I3391
sS'18UuLv1'
p6596
I965
sS'1jeh2WR'
p6597
I2801
sS'1joDS9O'
p6598
I6105
sS'1j0qRYk'
p6599
I4788
sS'UGMTWq'
p6600
I7243
sS'1hhAT82'
p6601
I5842
sS'1meW6R1'
p6602
I5483
sS'1yL1kIw'
p6603
I754
sS'1ku3812'
p6604
I2525
sS'1isP2wT'
p6605
I5201
sS'1hbq5Iz'
p6606
I5485
sS'1i0eQAk'
p6607
I282
sS'1q3eTk6'
p6608
I1968
sS'1gEJL7m'
p6609
I2048
sS'1pHx9M3'
p6610
I3860
sS'1hauN3z'
p6611
I3853
sS'1oQ7Gjc'
p6612
I2278
sS'1kwWDdL'
p6613
I487
sS'1qkOdsK'
p6614
I3861
sS'1mrqnpV'
p6615
I1670
sS'V7mRIe'
p6616
I7225
sS'1oOJz4j'
p6617
I3558
sS'QVWvdi'
p6618
I2520
sS'TXeL8i'
p6619
I2404
sS'1mD3O2t'
p6620
I82
sS'1tGZzGK'
p6621
I6054
sS'1nPvvdQ'
p6622
I145
sS'SRnxnN'
p6623
I3862
sS'1iVJmJc'
p6624
I6928
sS'1mfTJfI'
p6625
I3237
sS'1gomsy6'
p6626
I6106
sS'1o2PrXe'
p6627
I2553
sS'1z0KhCk'
p6628
I5491
sS'1ldjflD'
p6629
I2247
sS'1qeCR9k'
p6630
I5217
sS'1nzniZ2'
p6631
I1023
sS'1poz21V'
p6632
I760
sS'1m3Gsph'
p6633
I3863
sS'1lQUFI9'
p6634
I462
sS'1pm7oFx'
p6635
I4056
sS'15SlJA5'
p6636
I1955
sS'1nXvWmu'
p6637
I2174
sS'1kOQHi0'
p6638
I3864
sS'1lhq5RW'
p6639
I125
sS'1p4qj6B'
p6640
I2095
sS'1l7s4xf'
p6641
I5497
sS'1g4yoW2'
p6642
I5359
sS'1stdbFa'
p6643
I4331
sS'1ojLGAr'
p6644
I3882
sS'1lwR0dm'
p6645
I1688
sS'1oVWbHr'
p6646
I4660
sS'1dS9bwk'
p6647
I5231
sS'1hp0wOo'
p6648
I7038
sS'1mHHndA'
p6649
I3883
sS'1oL2O2h'
p6650
I2448
sS'UUqNjq'
p6651
I2675
sS'HBVjEx'
p6652
I3122
sS'1if0xYW'
p6653
I6110
sS'1oSDiof'
p6654
I6840
sS'1oFYG1N'
p6655
I4905
sS'1hhLY96'
p6656
I6455
sS'1gw9kXS'
p6657
I3687
sS'1kK29da'
p6658
I277
sS'1kx1cBU'
p6659
I1033
sS'1kvE3DZ'
p6660
I807
sS'1iRxUBL'
p6661
I4478
sS'UIJuq8'
p6662
I221
sS'VqP94p'
p6663
I3888
sS'QBXK1k'
p6664
I3889
sS'1kmfEzB'
p6665
I3890
sS'1qCJe93'
p6666
I1362
sS'1jgZNnY'
p6667
I4338
sS'1ftLJW8'
p6668
I2284
sS'1gDxVdf'
p6669
I4632
sS'1hrd0oM'
p6670
I6869
sS'1ip8ey9'
p6671
I19
sS'1hCCIqm'
p6672
I6412
sS'1jo9FGx'
p6673
I780
sS'1mvt51b'
p6674
I1596
sS'1sS71OX'
p6675
I4679
sS'1jBciLc'
p6676
I6859
sS'1mTSGzw'
p6677
I1233
sS'1k3fM7X'
p6678
I2474
sS'1oNhcUz'
p6679
I867
sS'1l1BzOr'
p6680
I6191
sS'1gcnhua'
p6681
I5586
sS'1wnlpU6'
p6682
I4915
sS'1fRZbEz'
p6683
I6839
sS'StBtnm'
p6684
I6394
sS'rq5mxa'
p6685
I5644
sS'1gFeZez'
p6686
I6112
sS'1mHG7XR'
p6687
I3292
sS'1jeRJOQ'
p6688
I5650
sS'1oFRz8f'
p6689
I3196
sS'SrVwSX'
p6690
I3654
sS'SJ9PmK'
p6691
I4689
sS'1ryDz57'
p6692
I388
sS'1gpBKTe'
p6693
I7294
sS'1myIcWx'
p6694
I865
sS'1kwKcQW'
p6695
I3892
sS'1tzQRKk'
p6696
I6186
sS'1orK5G8'
p6697
I3893
sS'1gHe4tQ'
p6698
I3894
sS'1pY0gyV'
p6699
I3895
sS'1nV4R1M'
p6700
I4691
sS'1pFAwTY'
p6701
I2828
sS'1ildtvZ'
p6702
I5221
sS'1hys7fU'
p6703
I2266
sS'TrTe6X'
p6704
I3140
sS'1hzA6tD'
p6705
I3600
sS'1l1BOd8'
p6706
I6032
sS'NJqzHb'
p6707
I6118
sS'1gTeCHI'
p6708
I1538
sS'1jksvU7'
p6709
I3601
sS'1iFtMa3'
p6710
I3031
sS'1gIeDDt'
p6711
I1963
sS'1nWrill'
p6712
I6585
sS'1jlcEmp'
p6713
I5264
sS'1lJoOrQ'
p6714
I304
sS'1g8ZEgf'
p6715
I335
sS'1gIyKzM'
p6716
I5265
sS'OrhF1r'
p6717
I5305
sS'1nVKBNB'
p6718
I6757
sS'1jAkSEl'
p6719
I1591
sS'1rYt8Vk'
p6720
I1413
sS'1oKOnYG'
p6721
I6423
sS'1nO9MCX'
p6722
I2943
sS'1iL08uc'
p6723
I541
sS'1gwaa6Y'
p6724
I6119
sS'1iul6R7'
p6725
I2707
sS'1qFUuCt'
p6726
I2601
sS'1hgufij'
p6727
I4023
sS'1kSPJj7'
p6728
I5952
sS'1fWVayZ'
p6729
I3897
sS'1gArXKb'
p6730
I4448
sS'1nrwE7M'
p6731
I6244
sS'1iNdCVh'
p6732
I5681
sS'Ungwfr'
p6733
I6003
sS'1kSf75M'
p6734
I4001
sS'UuyMn0'
p6735
I7300
sS'1k2Bdqr'
p6736
I6465
sS'1heJUOV'
p6737
I1502
sS'1tKZPVe'
p6738
I2504
sS'1t5dru9'
p6739
I4635
sS'1jXi4lY'
p6740
I6527
sS'1oyPVoS'
p6741
I4172
sS'1jK2L4s'
p6742
I4708
sS'UnmHjo'
p6743
I3898
sS'1jkmT7m'
p6744
I1588
sS'1qgzMFZ'
p6745
I5643
sS'1hldzR3'
p6746
I3787
sS'1qq6chb'
p6747
I1505
sS'1o5bSx2'
p6748
I7196
sS'1xy6maE'
p6749
I344
sS'1poZ59p'
p6750
I3175
sS'1yXEHAE'
p6751
I3900
sS'1inxTBv'
p6752
I6121
sS'1icKnld'
p6753
I5075
sS'1ltVxx5'
p6754
I1132
sS'1hCxvi1'
p6755
I3903
sS'1o4Nbiv'
p6756
I6122
sS'1nCwIls'
p6757
I5285
sS'1pcPiC5'
p6758
I6124
sS'1pguUAa'
p6759
I6777
sS'1gwFPoI'
p6760
I3904
sS'1k16IPO'
p6761
I5287
sS'1j7VTMH'
p6762
I3198
sS'1ckytBP'
p6763
I2305
sS'1jwEVct'
p6764
I6044
sS'1oys7UV'
p6765
I3905
sS'1k8ZQRL'
p6766
I4466
sS'1mfjQPc'
p6767
I3729
sS'1mePfVc'
p6768
I6125
sS'1qF7FDB'
p6769
I3906
sS'OLS7MK'
p6770
I5303
sS'UZCFkf'
p6771
I1836
sS'1fstAJE'
p6772
I3907
sS'1gC4UP4'
p6773
I2622
sS'1fVqYDT'
p6774
I3230
sS'1kx5AW2'
p6775
I1322
sS'1hgTHOw'
p6776
I5554
sS'1kbQdBJ'
p6777
I3908
sS'1mEKhQm'
p6778
I7262
sS'1h9c5id'
p6779
I107
sS'RhTpRB'
p6780
I5827
sS'1o0Jdsf'
p6781
I6930
sS'1lGBEsN'
p6782
I2881
sS'T2cKan'
p6783
I2196
sS'1kMiWsU'
p6784
I6127
sS'YwTsaa'
p6785
I3303
sS'1l2D7Tf'
p6786
I6053
sS'1hrLFZ7'
p6787
I3736
sS'1hzv1BA'
p6788
I4885
sS'1kJoo4A'
p6789
I7025
sS'T45gmX'
p6790
I4867
sS'TRDbA1'
p6791
I2307
sS'1n3DWP1'
p6792
I4735
sS'1mWmSKe'
p6793
I3477
sS'1lNHbfi'
p6794
I3083
sS'1mJsHPK'
p6795
I3910
sS'1sYM1Gh'
p6796
I273
sS'1vSyh4j'
p6797
I3912
sS'1ibC2Mh'
p6798
I4739
sS'1grpFro'
p6799
I7164
sS'1hj8lLk'
p6800
I1005
sS'RYCSSS'
p6801
I6973
sS'1kaq7iQ'
p6802
I3913
sS'RfA3fU'
p6803
I6498
sS'1kOsaGS'
p6804
I2421
sS'1qv87n2'
p6805
I7208
sS'1yT7Wo0'
p6806
I3686
sS'1kfoR9P'
p6807
I3914
sS'1mIEWJh'
p6808
I3651
sS'1jGSJew'
p6809
I1669
sS'1qpRFVn'
p6810
I6128
sS'1kOPfHH'
p6811
I3915
sS'1sxQ4P8'
p6812
I3936
sS'1kYC4bt'
p6813
I76
sS'1mFPsEt'
p6814
I3938
sS'1xVcBpf'
p6815
I2978
sS'1jV0SNW'
p6816
I5775
sS'1qbHuV1'
p6817
I4568
sS'1gtSF7h'
p6818
I2711
sS'UqXi8B'
p6819
I1500
sS'1pLzw2w'
p6820
I5660
sS'1oURuwZ'
p6821
I5039
sS'1modArV'
p6822
I977
sS'Uj6g7W'
p6823
I5547
sS'1lczo6s'
p6824
I4756
sS'1fju0BY'
p6825
I6067
sS'1qpmbP7'
p6826
I2306
sS'1sIe13z'
p6827
I5319
sS'1ie5rC5'
p6828
I3713
sS'1lF35l7'
p6829
I3051
sS'Tvv3VS'
p6830
I5107
sS'1mqB3K9'
p6831
I5548
sS'SX4tnB'
p6832
I3917
sS'1oGMrk0'
p6833
I3533
sS'1kSpWoH'
p6834
I4761
sS'1huFLBb'
p6835
I3414
sS'1hfq0h8'
p6836
I6131
sS'1hhIAeb'
p6837
I3964
sS'1pbVjPz'
p6838
I6132
sS'1kQLhzO'
p6839
I4830
sS'1pMPIz1'
p6840
I2016
sS'1jLjGy6'
p6841
I1225
sS'1nMH6qI'
p6842
I7272
sS'1mccI8m'
p6843
I7256
sS'1gDz9oM'
p6844
I3294
sS'1kjTydq'
p6845
I4764
sS'1huFLB5'
p6846
I3854
sS'Tvkv95'
p6847
I3495
sS'1gmMp0V'
p6848
I1118
sS'1lQ4vIH'
p6849
I6134
sS'1tN7Toq'
p6850
I3612
sS'1r39abf'
p6851
I3709
sS'1jqJkg7'
p6852
I3941
sS'1pbA7sb'
p6853
I6974
sS'1huihfr'
p6854
I402
sS'RStm3F'
p6855
I4395
sS'1pzUzGi'
p6856
I4532
sS'1rL18nC'
p6857
I2557
sS'1luAFbT'
p6858
I1691
sS'1jXlF2s'
p6859
I7286
sS'1ipKPdC'
p6860
I3945
sS'1geZSIu'
p6861
I6448
sS'1luNEtN'
p6862
I3946
sS'1k2nM9V'
p6863
I1272
sS'T8drhP'
p6864
I4891
sS'1lUwaZK'
p6865
I5719
sS'1kSACVr'
p6866
I6910
sS'1wmCDRg'
p6867
I1166
sS'1qJS4z4'
p6868
I1245
sS'1nyRQx7'
p6869
I309
sS'1hMI5J1'
p6870
I6136
sS'1mAehwE'
p6871
I6388
sS'1lS3HCo'
p6872
I2988
sS'1pBrQRC'
p6873
I5763
sS'1k5Kj5u'
p6874
I1517
sS'1eEhEUO'
p6875
I5123
sS't8ygx2'
p6876
I1583
sS'V7mscG'
p6877
I6137
sS'1gP7bkX'
p6878
I2879
sS'1pJVOA0'
p6879
I6056
sS'1silNQC'
p6880
I3935
sS'1q0jJvo'
p6881
I5127
sS'1js5cmy'
p6882
I3948
sS'1tD0AzP'
p6883
I3949
sS'1uup7Yf'
p6884
I160
sS'1oJiJLm'
p6885
I6138
sS'1hmxXRN'
p6886
I4547
sS'1lAT2fS'
p6887
I5563
sS'1pJsLx6'
p6888
I712
sS'1l2r7WW'
p6889
I6802
sS'1qr2iTf'
p6890
I3950
sS'1qjYmWu'
p6891
I7048
sS'1mN6HSo'
p6892
I1422
sS'1mQ3MFC'
p6893
I6139
sS'1pDEtvn'
p6894
I3159
sS'1kL5dY4'
p6895
I5439
sS'1hWjFaw'
p6896
I4050
sS'1pot3f1'
p6897
I4558
sS'1wYrSF3'
p6898
I5851
sS'1nJN2DO'
p6899
I3185
sS'1hzqOxl'
p6900
I3952
sS'1gFrDd3'
p6901
I3958
sS'UFW9dx'
p6902
I3959
sS'1tVQ34P'
p6903
I2406
sS'1jttcKL'
p6904
I3960
sS'R1ggA4'
p6905
I6141
sS'1hv5lp6'
p6906
I6977
sS'1gjMdQ6'
p6907
I6142
sS'1tsnLNb'
p6908
I7297
sS'TYxqAL'
p6909
I3962
sS'1gZexYr'
p6910
I3963
sS'1qp92T3'
p6911
I2128
sS'1nSPTIQ'
p6912
I2098
sS'UO2MdF'
p6913
I5688
sS'1q7XE0B'
p6914
I629
sS'1ppCt8G'
p6915
I5442
sS'1nxuELq'
p6916
I3469
sS'1noou4n'
p6917
I4649
sS'1pCnkz1'
p6918
I3023
sS'1fRNqIO'
p6919
I3174
sS'1mHxX1G'
p6920
I7059
sS'1okItz6'
p6921
I3966
sS'1oOK4LN'
p6922
I2695
sS'TBTHUc'
p6923
I1016
sS'1ggzE8e'
p6924
I5445
sS'RLx6Do'
p6925
I3967
sS'Ti7EGM'
p6926
I1393
sS'1gmevt8'
p6927
I2750
sS'1nYVLCL'
p6928
I3968
sS'V71f2I'
p6929
I3969
sS'1qxqdVB'
p6930
I4841
sS'1hsUpZp'
p6931
I3970
sS'1rsFYdO'
p6932
I2566
sS'1oZJMBW'
p6933
I3639
sS'Oz3ZBD'
p6934
I5869
sS'1gbycDT'
p6935
I3049
sS'1l3LuOK'
p6936
I4887
sS'1kXTkg6'
p6937
I539
sS'1lhPzPS'
p6938
I532
sS'TmauKN'
p6939
I7292
sS'1mE6u5S'
p6940
I6144
sS'1q96ueu'
p6941
I2861
sS'1pKfhkJ'
p6942
I7279
sS'1lOyMEp'
p6943
I4579
sS'1mym4wA'
p6944
I7169
sS'1o9BhXV'
p6945
I942
sS'1jeh4hp'
p6946
I5639
sS'1jPohpd'
p6947
I5281
sS'1lJKgf8'
p6948
I5822
sS'1kNi9wz'
p6949
I6675
sS'11TZLUf'
p6950
I1333
sS'1gB1aYK'
p6951
I1271
sS'1mfvbFu'
p6952
I1973
sS'1i6XcNW'
p6953
I339
sS'1iZcJxn'
p6954
I5705
sS'1jqf1WH'
p6955
I7296
sS'1kxhLgP'
p6956
I6145
sS'1lxOT8C'
p6957
I2650
sS'1kModlN'
p6958
I2503
sS'1pHCd3q'
p6959
I7130
sS'1pHUKQ6'
p6960
I2327
sS'1oBXJtT'
p6961
I6765
sS'1sRO2WP'
p6962
I6460
sS'1q8OcuU'
p6963
I3921
sS'1lbFd8A'
p6964
I2664
sS'1qyrdpX'
p6965
I5253
sS'UH58eq'
p6966
I6149
sS'1gkyPLE'
p6967
I3954
sS'1gCIOvX'
p6968
I1792
sS'1jDnKQA'
p6969
I6493
sS'1fkvx8m'
p6970
I5169
sS'1g5YZlc'
p6971
I2894
sS'1sD2EJj'
p6972
I6354
sS'1rTgwyG'
p6973
I3700
sS'1kLddEb'
p6974
I287
sS'1lwHoPT'
p6975
I6980
sS'1pvMdMS'
p6976
I6883
sS'1nYG7DS'
p6977
I3978
sS'1nPDvdm'
p6978
I4775
sS'1kUvy1B'
p6979
I6215
sS'UTfI1Z'
p6980
I6155
sS'1jXI5C4'
p6981
I6156
sS'1nA4jRe'
p6982
I4604
sS'1kQepKU'
p6983
I6157
sS'1g9Zgne'
p6984
I6601
sS'1kWyagB'
p6985
I1555
sS'1kv9wXl'
p6986
I6158
sS'1l25fX8'
p6987
I3701
sS'1hwvC6H'
p6988
I6159
sS'1qbyWgE'
p6989
I4201
sS'SAuY2F'
p6990
I3981
sS'1gPJ5Xc'
p6991
I6981
sS'TvlOUQ'
p6992
I3982
sS'PJbI0r'
p6993
I5872
sS'1kTPNOd'
p6994
I6395
sS'TCHIFW'
p6995
I6161
sS'1ifIMZy'
p6996
I1284
sS'UAjyx0'
p6997
I4861
sS'UDshOY'
p6998
I2012
sS'1mKc0Om'
p6999
I6162
sS'1qrXhy2'
p7000
I2329
sS'1gwdPSb'
p7001
I3983
sS'1pt24vD'
p7002
I3003
sS'UZqrb1'
p7003
I3984
sS'Un38rr'
p7004
I4142
sS'1gSOX1Y'
p7005
I2916
sS'1kZqRHq'
p7006
I7011
sS'1jRdA3f'
p7007
I3985
sS'1jbt4z1'
p7008
I3227
sS'1jV2KGk'
p7009
I4476
sS'1pwhUpb'
p7010
I6982
sS'1ld3drU'
p7011
I2144
sS'1ggsfpn'
p7012
I3136
sS'1ggunh0'
p7013
I1692
sS'1lCC291'
p7014
I951
sS'1ijlcLo'
p7015
I458
sS'1kQaD0U'
p7016
I2033
sS'1myI4G8'
p7017
I4616
sS'1kFLZ1L'
p7018
I3987
sS'1isxXPx'
p7019
I8
sS'1jQGw7B'
p7020
I6852
sS'1l99aG4'
p7021
I6163
sS'1uUhJZe'
p7022
I2326
sS'1ofS22d'
p7023
I6824
sS'Tm4qSu'
p7024
I4423
sS'1qsyreG'
p7025
I2294
sS'1sqbrSc'
p7026
I9
sS'1fNZSic'
p7027
I4645
sS'1q25Bo5'
p7028
I6983
sS'1j78k6M'
p7029
I205
sS'1pWI08h'
p7030
I7133
sS'1iWFCpC'
p7031
I2084
sS'1gfddjz'
p7032
I3989
sS'1j3hTJ7'
p7033
I1928
sS'1nptZjp'
p7034
I4628
sS'1k6z8oq'
p7035
I3030
sS'1lQUpnz'
p7036
I606
sS'1pjXDDj'
p7037
I5919
sS'1kJE0oz'
p7038
I6166
sS'1qjrL5I'
p7039
I2612
sS'1sIWw5Y'
p7040
I1082
sS'1kF5U21'
p7041
I7289
sS'1lKQtIp'
p7042
I275
sS'1hsNcsr'
p7043
I6167
sS'1qwvEEa'
p7044
I3991
sS'1m9JIPJ'
p7045
I6168
sS'TJoj6K'
p7046
I6776
sS'1mpP6P4'
p7047
I6970
sS'1jfu1rp'
p7048
I7291
sS'1g4lJCg'
p7049
I3993
sS'1hlIY63'
p7050
I1532
sS'1kFBNKS'
p7051
I3994
sS'1gXszUU'
p7052
I3696
sS'Q4D1Tl'
p7053
I3932
sS'1fRL2Hj'
p7054
I4919
sS'1k7Fvrw'
p7055
I338
sS'1jEKIXD'
p7056
I2741
sS'1hFIJbs'
p7057
I1824
sS'1prLtZ3'
p7058
I3996
sS'1qLME9n'
p7059
I6986
sS'UmPYe9'
p7060
I4136
sS'1hAsFlP'
p7061
I7204
sS'1smUbNI'
p7062
I3998
sS'1qo31cz'
p7063
I6571
sS'1gyI0bk'
p7064
I3990
sS'YHcjNS'
p7065
I4035
sS'1gFDOkI'
p7066
I255
sS'1hTF308'
p7067
I969
sS'1mnwV8Y'
p7068
I7234
sS'1mtOVC4'
p7069
I2893
sS'1kEGJwp'
p7070
I6989
sS'1fNbVvZ'
p7071
I5073
sS'1jNBZr1'
p7072
I1409
sS'1maKJUQ'
p7073
I667
sS'1x8Vn7l'
p7074
I1573
sS'1kZh68s'
p7075
I6169
sS'1i5HSPl'
p7076
I4002
sS'1iTeEDQ'
p7077
I6634
sS'1onAfJ4'
p7078
I4324
sS'1oIUcGl'
p7079
I1842
sS'1jT16nz'
p7080
I1803
sS'1nxIgKO'
p7081
I1070
sS'1ktvbfN'
p7082
I5216
sS'1rbTDG2'
p7083
I1843
sS'1k2nA5x'
p7084
I5902
sS'SlweWY'
p7085
I6170
sS'1n4hCpw'
p7086
I137
sS'R64Ziu'
p7087
I7121
sS'1jdn4kV'
p7088
I1656
sS'Tojz6w'
p7089
I4003
sS'1o9j8JO'
p7090
I6171
sS'1kqFPn4'
p7091
I4004
sS'1syB17O'
p7092
I4005
sS'1mMWG4G'
p7093
I3843
sS'1l53Fnk'
p7094
I4896
sS'1klRfr7'
p7095
I4653
sS'1lRK8HK'
p7096
I2148
sS'U6RWzk'
p7097
I26
sS'1phlyUH'
p7098
I2023
sS'1mvEzhP'
p7099
I7013
sS'1hgh3UU'
p7100
I6174
sS'1lchmTm'
p7101
I5226
sS'1k5vkba'
p7102
I6962
sS'1it8FqY'
p7103
I4009
sS'1kwqsZ0'
p7104
I349
sS'1kLCY73'
p7105
I6066
sS'1pCEmxQ'
p7106
I3565
sS'1rc0mA3'
p7107
I7202
sS'1gcojX8'
p7108
I6918
sS'1ji4Q63'
p7109
I4659
sS'1rC13qe'
p7110
I6115
sS'1obZ3kq'
p7111
I2802
sS'1iwCxNw'
p7112
I7014
sS'1gCCtR0'
p7113
I4877
sS'1gCeykK'
p7114
I6010
sS'UhEEzQ'
p7115
I2264
sS'1mgGrLJ'
p7116
I4013
sS'1sIIXQn'
p7117
I5504
sS'1huxPzR'
p7118
I4382
sS'1pGNEJi'
p7119
I4014
sS'1poknTv'
p7120
I2927
sS'1qfyRbr'
p7121
I6964
sS'1kNl4Cn'
p7122
I1676
sS'1l4Q8Am'
p7123
I1032
sS'1gcg90G'
p7124
I3407
sS'1h7U9iA'
p7125
I1994
sS'1gwXSeC'
p7126
I7015
sS'1oJOfsI'
p7127
I4016
sS'1pipNhY'
p7128
I4017
sS'1oEuMuU'
p7129
I5404
sS'1i4UYsH'
p7130
I558
sS'1oMSGXh'
p7131
I4018
sS'1pBiVPX'
p7132
I4676
sS'1iHoeFc'
p7133
I2715
sS'1hj9fBK'
p7134
I6693
sS'1pDumUu'
p7135
I1318
sS'1qlQLZD'
p7136
I4020
sS'1lXWhgX'
p7137
I4680
sS'1kUT2Ib'
p7138
I2008
sS'1qfC8XI'
p7139
I1721
sS'1m3O2ju'
p7140
I6176
sS'1qlZeKa'
p7141
I7017
sS'URyarV'
p7142
I6177
sS'1htkzem'
p7143
I7259
sS'1sS5DxQ'
p7144
I6178
sS'TEcrTx'
p7145
I3427
sS'1peb9cA'
p7146
I1421
sS'UApnue'
p7147
I6179
sS'SpphEn'
p7148
I3529
sS'1feHUVM'
p7149
I5249
sS'1qpefgJ'
p7150
I4021
sS'1r924BX'
p7151
I4025
sS'1sRXlUN'
p7152
I6181
sS'V3UYEK'
p7153
I6806
sS'1mkHJYY'
p7154
I2649
sS'1pg2E0p'
p7155
I6422
sS'1jhfGLd'
p7156
I6763
sS'1uVFAHX'
p7157
I7119
sS'SZJbG3'
p7158
I5517
sS'1py9qOx'
p7159
I1416
sS'1gPJVTL'
p7160
I1307
sS'1rqiQNu'
p7161
I5256
sS'1kPhNAU'
p7162
I2233
sS'1miUDtL'
p7163
I1762
sS'1iQTmGR'
p7164
I4026
sS'1jxVj6U'
p7165
I317
sS'1maLvEk'
p7166
I3796
sS'1iN11IH'
p7167
I759
sS'1nT7Qtc'
p7168
I914
sS'SAnkol'
p7169
I4027
sS'VnlyJl'
p7170
I781
sS'1maUEww'
p7171
I2677
sS'1jJrWyq'
p7172
I2052
sS'1l3WGjQ'
p7173
I5042
sS'1mvPutP'
p7174
I423
sS'1gmWf2X'
p7175
I3371
sS'1keVR6e'
p7176
I2663
sS'1jhw6gK'
p7177
I1793
sS'1jeDM3s'
p7178
I6630
sS'1jOrKOt'
p7179
I4354
sS'1mRtT1i'
p7180
I907
sS'1gjSPOM'
p7181
I7020
sS'1pO1gF9'
p7182
I2955
sS'1kqAhfk'
p7183
I1402
sS'1tNWpBh'
p7184
I4028
sS'1m1a32k'
p7185
I4357
sS'1kBdde9'
p7186
I2942
sS'1pGEfnj'
p7187
I4039
sS'1eqpj8A'
p7188
I5269
sS'1vk8n6j'
p7189
I1104
sS'1nMbqne'
p7190
I490
sS'1sDn7Ba'
p7191
I1418
sS'1tsf5WU'
p7192
I4043
sS'1h9KJTx'
p7193
I4044
sS'1tzPQC1'
p7194
I7021
sS'1nf6a98'
p7195
I7022
sS'1mHpb5o'
p7196
I1849
sS'1kSgLUT'
p7197
I4045
sS'1oD0Eyj'
p7198
I2263
sS'1hB86ZZ'
p7199
I5277
sS'1tudxf9'
p7200
I7108
sS'1nYMqut'
p7201
I5588
sS'1li8u1p'
p7202
I6210
sS'1jPOhut'
p7203
I2167
sS'1jB1uId'
p7204
I1888
sS'1rIXwDb'
p7205
I7299
sS'1pIpa4W'
p7206
I7023
sS'OdmlYF'
p7207
I5282
sS'Vkpj2e'
p7208
I1411
sS'1iJvWVL'
p7209
I1487
sS'1kVIC88'
p7210
I3531
sS'1rCwIb1'
p7211
I84
sS'1fSGujZ'
p7212
I1026
sS'1psKqeq'
p7213
I483
sS'TGhaDz'
p7214
I1028
sS'1k0KgnY'
p7215
I6211
sS'1r2Kfr9'
p7216
I361
sS'1pgdeEG'
p7217
I7024
sS'1jldGR4'
p7218
I3405
sS'V6mGRr'
p7219
I3365
sS'1j0ZeKm'
p7220
I3534
sS'1qaQQPR'
p7221
I2142
sS'1jrYQ6M'
p7222
I5839
sS'1o7Bl7c'
p7223
I3267
sS'1kV86FZ'
p7224
I4047
sS'1pt4tpZ'
p7225
I7026
sS'SjRwDX'
p7226
I4048
sS'1klvl8L'
p7227
I4049
sS'1pBighx'
p7228
I6558
sS'1iit4bF'
p7229
I6761
sS'182Xkbt'
p7230
I4051
sS'UZOdUr'
p7231
I6212
sS'1q2dhXn'
p7232
I7027
sS'1paSwtb'
p7233
I4052
sS'1soZXuK'
p7234
I47
sS'1yX57m6'
p7235
I2382
sS'1pfzQp2'
p7236
I1894
sS'1plhghN'
p7237
I6213
sS'1kD7cL8'
p7238
I5141
sS'1kQrsLw'
p7239
I1328
sS'1jl0Vpu'
p7240
I671
sS'1iikKx0'
p7241
I2756
sS'1jozAOM'
p7242
I2758
sS'1oADWtN'
p7243
I2760
sS'1l3Ft4x'
p7244
I4198
sS'1gweNhn'
p7245
I453
sS'1nJfqav'
p7246
I7028
sS'1gPm46y'
p7247
I4054
sS'1vNKN4U'
p7248
I4055
sS'1opXYbx'
p7249
I1192
sS'1kMxtJS'
p7250
I7029
sS'1lBdPzf'
p7251
I7030
sS'1kDkRl0'
p7252
I6674
sS'1q0tLiH'
p7253
I7001
sS'1holZvu'
p7254
I4060
sS'1tsvD15'
p7255
I6019
sS'UEzoqr'
p7256
I1649
sS'1gs9qQ0'
p7257
I3278
sS'1pUfC4q'
p7258
I6845
sS'1iUNLiQ'
p7259
I4061
sS'1krmCVF'
p7260
I6396
sS'1etQ2fn'
p7261
I5304
sS'1q1UZ8W'
p7262
I4062
sS'1q21Y1j'
p7263
I4521
sS'1hoTk4Z'
p7264
I2727
sS'1jy4FVK'
p7265
I4600
sS'1kxHSsN'
p7266
I6513
sS'1gbDQq6'
p7267
I1666
sS'1nEGkjM'
p7268
I4657
sS'1jVop63'
p7269
I3116
sS'1l4g7Iz'
p7270
I4977
sS'1jdLRFI'
p7271
I4064
sS'1mhde9t'
p7272
I4749
sS'1nU4T8h'
p7273
I885
sS'1kPQ5Z0'
p7274
I4751
sS'1tjV1YB'
p7275
I1445
sS'1jXtd6e'
p7276
I5045
sS'1jfDC1k'
p7277
I3587
sS'1lkTBva'
p7278
I4065
sS'1kBnkj0'
p7279
I2591
sS'1kNEs5l'
p7280
I4066
sS'1hKAk3T'
p7281
I5315
sS'1pGENJO'
p7282
I6642
sS'UUnEjt'
p7283
I1971
sS'1gZyVn1'
p7284
I2505
sS'1kPQ6N4'
p7285
I6218
sS'wqVFOJ'
p7286
I4075
sS'TnL0NE'
p7287
I3240
sS'1gEbeFV'
p7288
I1972
sS'1hp2azE'
p7289
I6219
sS'1mK5mc4'
p7290
I6969
sS'1jj8NJl'
p7291
I296
sS'1kQqVIP'
p7292
I4301
sS'1iKig6k'
p7293
I7032
sS'1kuLrQu'
p7294
I4076
sS'1iaLteO'
p7295
I1200
sS'1rva7t4'
p7296
I5034
sS'1gPp5Jy'
p7297
I4646
sS'1gppWk4'
p7298
I7033
sS'1sNPJV8'
p7299
I5940
sS'1oO8LrQ'
p7300
I6495
sS'1nZe0El'
p7301
I5553
sS'1golP8b'
p7302
I3000
s.