(dp1
S'1pzcud9'
p2
I548
sS'1lBfBS5'
p3
I20
sS'1iBHjgn'
p4
I21
sS'1oJIgE5'
p5
I22
sS'1qzYO0H'
p6
I232
sS'R5pZpv'
p7
I40
sS'1s8oR57'
p8
I760
sS'1nKk0Ec'
p9
I48
sS'1oVFcEK'
p10
I1492
sS'1glU1RP'
p11
I74
sS'1hjlMot'
p12
I75
sS'1nWztho'
p13
I109
sS'1lwOgT6'
p14
I129
sS'1nLjPd9'
p15
I130
sS'1ho3WAG'
p16
I138
sS'1lLiqQr'
p17
I139
sS'1lNybp8'
p18
I144
sS'1h5mCuX'
p19
I153
sS'1p1JvhN'
p20
I154
sS'1jhFWip'
p21
I4647
sS'1kzyj9x'
p22
I3806
sS'Svxq9Y'
p23
I165
sS'1jqrHs5'
p24
I166
sS'1vtusBf'
p25
I167
sS'ROe7bw'
p26
I169
sS'1gaPLEb'
p27
I170
sS'UsrZdy'
p28
I198
sS'1hU6BIA'
p29
I200
sS'Tm6V7u'
p30
I4318
sS'1tYVO1A'
p31
I216
sS'1kH2NJl'
p32
I234
sS'1j1OOZL'
p33
I5783
sS'1gfMTGC'
p34
I5222
sS'1l8U98p'
p35
I264
sS'1iBT7jY'
p36
I265
sS'1pDRntc'
p37
I270
sS'1qk3dqD'
p38
I271
sS'1k2DmSo'
p39
I281
sS'1oflcxF'
p40
I284
sS'1qeyMlK'
p41
I285
sS'1kYDYpU'
p42
I286
sS'1kAZRdb'
p43
I288
sS'1sWWxxU'
p44
I1024
sS'1pHV8f7'
p45
I294
sS'RToASZ'
p46
I295
sS'1qmO5Xe'
p47
I299
sS'1pf4DlI'
p48
I733
sS'UtSBuB'
p49
I322
sS'Lyg3eA'
p50
I326
sS'1o0nCSU'
p51
I1138
sS'1oODd65'
p52
I331
sS'TzP0Le'
p53
I1145
sS'1vjI1En'
p54
I1447
sS'YtPP9E'
p55
I370
sS'1jyjke0'
p56
I6491
sS'1lGhJcD'
p57
I372
sS'1hw5OYd'
p58
I373
sS'1grmt4n'
p59
I376
sS'1hiipEa'
p60
I379
sS'1jBgSEo'
p61
I1298
sS'1qh5ENH'
p62
I392
sS'1sWA300'
p63
I6597
sS'1psWYj1'
p64
I403
sS'1o51RQu'
p65
I405
sS'1s7vTEI'
p66
I406
sS'1jtvVVv'
p67
I409
sS'1o7ZAp7'
p68
I413
sS'1nWQb4N'
p69
I1315
sS'1hswd9m'
p70
I415
sS'1nYWfW4'
p71
I416
sS'1l48Ecv'
p72
I419
sS'1jygWE4'
p73
I2995
sS'1ioGOsb'
p74
I424
sS'1nYCP5o'
p75
I451
sS'1nVSBhA'
p76
I1459
sS'1dStp9m'
p77
I460
sS'1kJWHUy'
p78
I476
sS'1q8l99G'
p79
I481
sS'1jhuZO1'
p80
I482
sS'1ns7k1D'
p81
I1570
sS'1jNHH7C'
p82
I491
sS'UVXpcx'
p83
I492
sS'StPvF4'
p84
I494
sS'RLxh1z'
p85
I495
sS'STzcTl'
p86
I496
sS'1nZMrMG'
p87
I155
sS'1h5MNfe'
p88
I538
sS'1jcQTT7'
p89
I5990
sS'R8YsUm'
p90
I544
sS'1kKzzdk'
p91
I1670
sS'1l2bSIq'
p92
I547
sS'1ncm9JL'
p93
I433
sS'1oMYNLL'
p94
I556
sS'1nYIqbR'
p95
I559
sS'1nYHLsL'
p96
I111
sS'1oDF9gP'
p97
I569
sS'1ixC91M'
p98
I470
sS'1kL1iHN'
p99
I570
sS'1kG2cHQ'
p100
I571
sS'19lGf8'
p101
I572
sS'1kl5ptK'
p102
I573
sS'1mljOtQ'
p103
I575
sS'1lRgypD'
p104
I578
sS'1iRBXxW'
p105
I617
sS'1ot0oFn'
p106
I4217
sS'1mXrD6t'
p107
I620
sS'1ploIce'
p108
I236
sS'1sUpOLi'
p109
I1987
sS'1kJuT4l'
p110
I623
sS'1g3hYaz'
p111
I82
sS'1jwKHdc'
p112
I624
sS'1jRydZ5'
p113
I2975
sS'1g03k9A'
p114
I629
sS'1kQ7b6z'
p115
I2029
sS'1roqDyW'
p116
I635
sS'162YC39'
p117
I3537
sS'1huYwEy'
p118
I657
sS'1jnOrZO'
p119
I2107
sS'U8a0sN'
p120
I660
sS'1mp4Hyf'
p121
I661
sS'1pUb6F6'
p122
I667
sS'UOfucq'
p123
I671
sS'1nc5SRJ'
p124
I2288
sS'1rsmLJx'
p125
I550
sS'1hiyjhV'
p126
I2179
sS'1kB9kWo'
p127
I4638
sS'1lc8T5r'
p128
I5881
sS'1jiT4Je'
p129
I563
sS'1iYZ9We'
p130
I690
sS'1khXVWU'
p131
I691
sS'1qmkp0V'
p132
I695
sS'1q9ElnA'
p133
I630
sS'1pamVUi'
p134
I705
sS'TEZaJY'
p135
I716
sS'1jdNjHV'
p136
I2359
sS'1mcnGNF'
p137
I4358
sS'1jVtHc1'
p138
I718
sS'1o4GbCj'
p139
I2381
sS'1p5zU9J'
p140
I730
sS'1jyMPSs'
p141
I2446
sS'TwSQnf'
p142
I513
sS'1fa5IY7'
p143
I6170
sS'1hapzou'
p144
I744
sS'1rRVnmS'
p145
I749
sS'1mvwjoA'
p146
I149
sS'1nSj79B'
p147
I758
sS'1fUXSVq'
p148
I218
sS'1kzxQY5'
p149
I2619
sS'1hiLRdp'
p150
I765
sS'1gySBDb'
p151
I4722
sS'1pdI2oK'
p152
I766
sS'1lpyfMw'
p153
I768
sS'1oXsVD4'
p154
I769
sS'QBsMGc'
p155
I2579
sS'SObDdX'
p156
I774
sS'1iHkfxO'
p157
I782
sS'1sOeb8S'
p158
I6357
sS'1kZ7Vb7'
p159
I788
sS'1mIksDN'
p160
I746
sS'1nXkzpv'
p161
I785
sS'1gTJQyi'
p162
I790
sS'1fI6Cyf'
p163
I520
sS'TBS5Kj'
p164
I791
sS'1ot78Dh'
p165
I800
sS'V5GJiV'
p166
I4645
sS'1kvY1ig'
p167
I801
sS'1poKOLa'
p168
I802
sS'1guhArn'
p169
I803
sS'1nW8gxl'
p170
I2702
sS'1mJxpIK'
p171
I824
sS'1mLjDFy'
p172
I853
sS'1iYz26z'
p173
I2731
sS'1kTo5RN'
p174
I3870
sS'1nZkhoe'
p175
I866
sS'SGlgvd'
p176
I3732
sS'1jCKzEm'
p177
I878
sS'1qQXIzw'
p178
I879
sS'1jCKzEq'
p179
I880
sS'1gyZJtR'
p180
I881
sS'1p69vJ3'
p181
I882
sS'1nUqZs7'
p182
I883
sS'1tX5aJ7'
p183
I884
sS'1mbJZSm'
p184
I890
sS'1pb7jDs'
p185
I891
sS'1tD1vjM'
p186
I2841
sS'1maK6Pg'
p187
I893
sS'SpKlKN'
p188
I897
sS'1hBpyK7'
p189
I898
sS'Q8PTZ5'
p190
I2861
sS'1jSVdfS'
p191
I3000
sS'1hMtgXf'
p192
I287
sS'1onNb0l'
p193
I918
sS'1i5NWHo'
p194
I919
sS'1nRzRxN'
p195
I924
sS'1nNan4Q'
p196
I937
sS'1vhmxVN'
p197
I938
sS'1o7HlhW'
p198
I3588
sS'1jwbo1G'
p199
I6481
sS'V7qr98'
p200
I982
sS'1u6WT8l'
p201
I983
sS'1pG8xXa'
p202
I984
sS'1l0aJD2'
p203
I2949
sS'1lMGgKR'
p204
I2950
sS'1hQK8Ld'
p205
I989
sS'1m8gpu4'
p206
I275
sS'1nhvGw6'
p207
I725
sS'1l7rP2r'
p208
I991
sS'UTIf7A'
p209
I2315
sS'TwIfIZ'
p210
I352
sS'UBEmE6'
p211
I2987
sS'1jReZCK'
p212
I1001
sS'1pdHaAq'
p213
I1003
sS'1tCXxrj'
p214
I3004
sS'1oAW0UA'
p215
I3009
sS'1nZoJCz'
p216
I3010
sS'1pm8XCo'
p217
I2586
sS'1mdQPXw'
p218
I323
sS'VrSFf5'
p219
I3345
sS'1kmYuD8'
p220
I961
sS'1mByNyI'
p221
I640
sS'1mRL2rI'
p222
I361
sS'1o6XVx4'
p223
I1010
sS'1kUVvT6'
p224
I3388
sS'1omcUXa'
p225
I3398
sS'1oUI7NS'
p226
I1512
sS'1ekRfL3'
p227
I4934
sS'TDbevU'
p228
I1019
sS'RI0MRH'
p229
I3434
sS'UuIdTo'
p230
I3435
sS'1yZv8kO'
p231
I1023
sS'1iNqqAE'
p232
I2290
sS'1qoJwQJ'
p233
I1025
sS'1jacF9g'
p234
I1027
sS'1lFK2Wf'
p235
I3512
sS'1glu1WI'
p236
I1033
sS'1ntDb1V'
p237
I1034
sS'1tEBf8s'
p238
I157
sS'1ivBJhT'
p239
I335
sS'1jhqtF1'
p240
I1036
sS'Tw3ADi'
p241
I1040
sS'1uL1QEn'
p242
I745
sS'1mpzhaW'
p243
I1042
sS'1kjHzkO'
p244
I3607
sS'Txsbao'
p245
I1048
sS'1iCPLrc'
p246
I3616
sS'1n8TBME'
p247
I110
sS'1h10UCG'
p248
I1050
sS'1sPVB0b'
p249
I1051
sS'1gQd7di'
p250
I1052
sS'1lwo2KF'
p251
I3637
sS'1mRP29I'
p252
I1059
sS'1kx7upy'
p253
I1065
sS'1sMzANP'
p254
I1075
sS'SnXB2w'
p255
I1077
sS'1fHMCps'
p256
I5636
sS'1hnUaPo'
p257
I946
sS'1mr3G5n'
p258
I1092
sS'1xYOCp0'
p259
I1245
sS'1kMitbT'
p260
I1106
sS'1jkg2AK'
p261
I1110
sS'1lVTkLe'
p262
I0
sS'1pEWV3K'
p263
I1121
sS'1jKG6iZ'
p264
I1125
sS'1sStPQE'
p265
I1126
sS'1oytaEc'
p266
I3708
sS'1mdgwGd'
p267
I2809
sS'QNtAbe'
p268
I1778
sS'1pMcirm'
p269
I1134
sS'1njts1l'
p270
I2297
sS'1jEnpmt'
p271
I1137
sS'1mtbN32'
p272
I1139
sS'1q8TXWn'
p273
I6701
sS'1hbwUUN'
p274
I1144
sS'1hUDEqo'
p275
I99
sS'1pEGSmR'
p276
I1162
sS'1kC2638'
p277
I1170
sS'1klHXuT'
p278
I1175
sS'1heWcRR'
p279
I1176
sS'1gxcNW6'
p280
I1177
sS'1vhLZxi'
p281
I1178
sS'1o7JOZK'
p282
I1179
sS'1m1C5e7'
p283
I3875
sS'1qeFJTN'
p284
I2317
sS'1ic3JQk'
p285
I1187
sS'1pNUPQM'
p286
I2755
sS'1jLfspG'
p287
I1199
sS'1oaHm6s'
p288
I1200
sS'1jMQYm9'
p289
I1203
sS'1kno0bm'
p290
I1210
sS'1hd0PiJ'
p291
I3926
sS'16JARdZ'
p292
I1222
sS'1jjyogt'
p293
I1226
sS'1ickj7r'
p294
I1228
sS'1nACS9Q'
p295
I1236
sS'1hgSVBq'
p296
I1237
sS'1iTBIlU'
p297
I2877
sS'1uIaNy8'
p298
I1238
sS'1oZCotE'
p299
I1241
sS'1qEQ8s5'
p300
I343
sS'1ga1nBX'
p301
I1242
sS'1k5hdnW'
p302
I792
sS'1nYgovm'
p303
I1243
sS'1kkxnnK'
p304
I1244
sS'1g2xjxs'
p305
I1246
sS'1oLYWy6'
p306
I4201
sS'1oToo14'
p307
I1249
sS'1mvsRas'
p308
I1251
sS'1ntVw07'
p309
I3983
sS'1nGg1HE'
p310
I1252
sS'1tuCya3'
p311
I4131
sS'1hbBtE1'
p312
I1257
sS'1nglKTo'
p313
I4046
sS'1ijX5bY'
p314
I3091
sS'SNgT1o'
p315
I1259
sS'1qjPFOy'
p316
I1260
sS'1odA9Q5'
p317
I6664
sS'UowvKb'
p318
I5723
sS'1fSlKsZ'
p319
I5136
sS'UGaN4o'
p320
I4074
sS'MR0Z3t'
p321
I1284
sS'1rvt7I1'
p322
I63
sS'1nWdkQ6'
p323
I1285
sS'1ttohfE'
p324
I1290
sS'1pT5ew1'
p325
I1291
sS'1oxJKE8'
p326
I173
sS'1oOucMp'
p327
I1294
sS'1pULFBb'
p328
I1515
sS'WHuS4B'
p329
I4194
sS'1sX2kFx'
p330
I1295
sS'1fKAmu0'
p331
I1296
sS'1yHHuxF'
p332
I870
sS'To33Ua'
p333
I1122
sS'1oBD0p0'
p334
I1300
sS'1qfAsLI'
p335
I1301
sS'1pPh339'
p336
I1305
sS'TypqFS'
p337
I4620
sS'1o6FABh'
p338
I752
sS'1pBIrTW'
p339
I1306
sS'1mMj91Y'
p340
I979
sS'1howvhL'
p341
I1308
sS'1h0X1O4'
p342
I1309
sS'1nNTtkC'
p343
I1310
sS'1k7b9cQ'
p344
I1311
sS'1ktr1m7'
p345
I1312
sS'1pb5rXN'
p346
I4280
sS'1iYAINw'
p347
I5329
sS'1nTRIVE'
p348
I1316
sS'SLEqzG'
p349
I4324
sS'1hmS7es'
p350
I1318
sS'1iPMyF1'
p351
I4308
sS'1pdSLQa'
p352
I1321
sS'1mSsR2O'
p353
I4497
sS'UoXC7Z'
p354
I1055
sS'16pDTth'
p355
I1324
sS'1kIK9yp'
p356
I1327
sS'1jwuA0d'
p357
I3490
sS'1pvY0h7'
p358
I1330
sS'1mLuQ99'
p359
I3497
sS'TtTz9G'
p360
I1332
sS'1idI52S'
p361
I2404
sS'Tgo1mW'
p362
I1382
sS'1pglrv3'
p363
I1383
sS'1pDlVeZ'
p364
I1384
sS'1nZpBp7'
p365
I1385
sS'S7pBY3'
p366
I1386
sS'1oeaD02'
p367
I1387
sS'1h5pmCV'
p368
I1388
sS'1uHRJit'
p369
I1389
sS'1gwfOG7'
p370
I2131
sS'1h0wssq'
p371
I1390
sS'1paV72f'
p372
I1391
sS'1qC0r3l'
p373
I4428
sS'1nJKFhi'
p374
I1163
sS'1n9edWt'
p375
I5144
sS'1jMFQ34'
p376
I2584
sS'1lie4Ri'
p377
I6358
sS'1ggTGze'
p378
I1397
sS'1lzqS53'
p379
I1399
sS'1kChga5'
p380
I641
sS'1kYwLuH'
p381
I1400
sS'1q54FNs'
p382
I1407
sS'UUepjk'
p383
I1408
sS'Tuj3mV'
p384
I3770
sS'1jerei7'
p385
I737
sS'UJ4hdd'
p386
I5393
sS'1pB6rbg'
p387
I1344
sS'1o8QSqq'
p388
I1414
sS'1dxrncs'
p389
I4505
sS'TyiuID'
p390
I1415
sS'1g50t9O'
p391
I468
sS'1unIRiZ'
p392
I1416
sS'1pHJGlQ'
p393
I1265
sS'SyiYhL'
p394
I1417
sS'1jXuZTN'
p395
I1419
sS'1q1vmls'
p396
I1420
sS'1qIJMHA'
p397
I4143
sS'1qHhmR6'
p398
I506
sS'1wdtryz'
p399
I3119
sS'1nRkzsF'
p400
I3673
sS'1jepFzO'
p401
I1427
sS'1goWaM3'
p402
I1428
sS'1j6gXDM'
p403
I1434
sS'1sFL6MJ'
p404
I1435
sS'1iZgHXd'
p405
I1846
sS'1ktbTXW'
p406
I1436
sS'1poqOsM'
p407
I1444
sS'1phQPtk'
p408
I4806
sS'1nBNSPY'
p409
I4567
sS'1nHZqFI'
p410
I1445
sS'1sxQ4P8'
p411
I6710
sS'1l3Ft4x'
p412
I4573
sS'1pC0ZS7'
p413
I3058
sS'1pYnHqX'
p414
I1449
sS'1m74Feb'
p415
I1450
sS'1mVvOQ8'
p416
I1451
sS'1kK9HcT'
p417
I28
sS'1puK0C8'
p418
I65
sS'1oLfhzG'
p419
I1452
sS'1kW9t3P'
p420
I4696
sS'1ms2m5n'
p421
I1456
sS'TmSFMo'
p422
I3079
sS'1jHN4oY'
p423
I1346
sS'1mAx5fc'
p424
I1458
sS'1o0i7DI'
p425
I1460
sS'1kLJ7Sc'
p426
I3357
sS'1kI2TME'
p427
I1461
sS'1mRGov3'
p428
I1462
sS'T8k7Ni'
p429
I603
sS'1lLpokQ'
p430
I399
sS'1pqhOTs'
p431
I4681
sS'1kYIKYC'
p432
I1517
sS'1mjsTAB'
p433
I1518
sS'1he6NMG'
p434
I3919
sS'1jMCYmP'
p435
I1519
sS'1ywMPb4'
p436
I805
sS'1jaZ0iI'
p437
I1521
sS'1p5kwgM'
p438
I4783
sS'RWdE7y'
p439
I1528
sS'1jt1jT0'
p440
I3121
sS'1gC7uES'
p441
I1533
sS'1pXT595'
p442
I1534
sS'1lYx9as'
p443
I5451
sS'1k1I92k'
p444
I1535
sS'1phBJAH'
p445
I6238
sS'1kxFvGz'
p446
I1540
sS'1mTz12y'
p447
I5266
sS'1goSkTi'
p448
I1541
sS'1qk1CTR'
p449
I2391
sS'So4zoj'
p450
I6239
sS'1mS89jr'
p451
I105
sS'TqfRbU'
p452
I257
sS'1jLgzfb'
p453
I1547
sS'1gjKIkZ'
p454
I1550
sS'1jl2y1W'
p455
I1551
sS'Tbdz0j'
p456
I1552
sS'1kXD8g9'
p457
I6278
sS'1kJMR9N'
p458
I1554
sS'1lpK59r'
p459
I380
sS'1geMWCz'
p460
I1564
sS'1feKTaj'
p461
I1565
sS'1wV0Ai0'
p462
I4926
sS'1laTHCq'
p463
I5022
sS'1i0dWji'
p464
I1567
sS'1qqrEVM'
p465
I4320
sS'1dN9Rn0'
p466
I1571
sS'1mafooj'
p467
I1573
sS'1jSWKmc'
p468
I1574
sS'1qttwux'
p469
I11
sS'1mYjQ8C'
p470
I1576
sS'1xQdK1b'
p471
I909
sS'1hRNc58'
p472
I1577
sS'1jLUDk2'
p473
I1223
sS'1nV40fE'
p474
I1579
sS'1mI2VdI'
p475
I1580
sS'14IClID'
p476
I4994
sS'1kUPANI'
p477
I1584
sS'1h1egii'
p478
I1585
sS'1jzaoZ4'
p479
I1588
sS'1pN1ycq'
p480
I1589
sS'1rP4Qgy'
p481
I3244
sS'1lRKRrE'
p482
I5018
sS'1lcn5eF'
p483
I1621
sS'1gh9TEF'
p484
I1581
sS'1krCjfc'
p485
I1624
sS'1pwswoU'
p486
I1626
sS'1o16x7Z'
p487
I1627
sS'1jUBz30'
p488
I1628
sS'RkJjPI'
p489
I1629
sS'1h2zsEH'
p490
I2372
sS'1qFxMtp'
p491
I1631
sS'1pkDEsx'
p492
I3367
sS'1oZzMZr'
p493
I1637
sS'1obvH7p'
p494
I1639
sS'1nQVwYB'
p495
I976
sS'1ptmIir'
p496
I1640
sS'1kBGsxs'
p497
I1641
sS'1h1J3Ba'
p498
I1642
sS'1tsEtvG'
p499
I1394
sS'1nu1xge'
p500
I1644
sS'1jF5JpX'
p501
I1645
sS'1jtY1eF'
p502
I1646
sS'1oo3PND'
p503
I952
sS'1pvnzMf'
p504
I1652
sS'1kTUavC'
p505
I1654
sS'1nUkrZs'
p506
I1661
sS'1nHQNLl'
p507
I1662
sS'1t3h6bX'
p508
I1424
sS'1oOVMWW'
p509
I1664
sS'1igtEHY'
p510
I1665
sS'1kKne48'
p511
I665
sS'1mr0OZB'
p512
I1668
sS'1nBGaIY'
p513
I1671
sS'1ngtQeX'
p514
I1336
sS'1qwgcrF'
p515
I1164
sS'1mQI5p3'
p516
I3017
sS'1rPCVNA'
p517
I1936
sS'1pBaZeq'
p518
I1345
sS'1gh1uLQ'
p519
I1686
sS'1ld7paY'
p520
I1687
sS'1sCPJXY'
p521
I2403
sS'1hYFEMJ'
p522
I1688
sS'1j28vjQ'
p523
I1691
sS'QNR682'
p524
I850
sS'1mV2IFj'
p525
I253
sS'1h4ksGp'
p526
I1702
sS'1mHOhTJ'
p527
I1703
sS'PRwhI5'
p528
I1704
sS'1lyee4p'
p529
I1705
sS'1vL2J0a'
p530
I3548
sS'1kzZt0l'
p531
I1708
sS'1sGoX4i'
p532
I1709
sS'TpOT1b'
p533
I1710
sS'SVOLti'
p534
I5242
sS'1rhaqLF'
p535
I1716
sS'1gpkPQE'
p536
I6259
sS'1lSfNMV'
p537
I889
sS'1kU68ph'
p538
I1721
sS'1hFxzxW'
p539
I1722
sS'1pfVGI6'
p540
I1725
sS'1jwm3cs'
p541
I5270
sS'1tEbHII'
p542
I1726
sS'1jDKeAU'
p543
I1727
sS'1nFM8Fi'
p544
I6120
sS'1jbpXCY'
p545
I1728
sS'TjvEZy'
p546
I148
sS'1lyp48b'
p547
I1730
sS'1pjv5uE'
p548
I5914
sS'1jpKYQ4'
p549
I1731
sS'TtHmkR'
p550
I2763
sS'1jTXxmU'
p551
I1733
sS'1oH3wdu'
p552
I6352
sS'1jOC9tH'
p553
I486
sS'1hcldgv'
p554
I1902
sS'1lmLu1l'
p555
I241
sS'1hczwl3'
p556
I1735
sS'1gf26HH'
p557
I1736
sS'1gwt2CL'
p558
I1737
sS'1j8NMfH'
p559
I4422
sS'1lSv13o'
p560
I1743
sS'1pbXlzj'
p561
I1774
sS'1myAmKk'
p562
I872
sS'1hZWPyN'
p563
I1745
sS'1mlWEi7'
p564
I3994
sS'1jvsA48'
p565
I1747
sS'1hvQcXP'
p566
I1748
sS'1hp4OVQ'
p567
I1749
sS'1kOrUdY'
p568
I5402
sS'1m6H7Gk'
p569
I4900
sS'1vavF0o'
p570
I1695
sS'1joNEvz'
p571
I1752
sS'1meU976'
p572
I4898
sS'1n9WvW4'
p573
I1757
sS'UIykSl'
p574
I4227
sS'1gTewzJ'
p575
I1764
sS'SjCU88'
p576
I1765
sS'ULdUrK'
p577
I1766
sS'1npYIdF'
p578
I1767
sS'1hyhcrj'
p579
I1768
sS'1r6GYac'
p580
I1769
sS'UGfQlj'
p581
I1770
sS'1pPCCSa'
p582
I1771
sS'1pJ37eo'
p583
I1772
sS'TvKJIN'
p584
I1150
sS'1lcAgfE'
p585
I1788
sS'1kUvgw5'
p586
I5434
sS'1q5PJkz'
p587
I1796
sS'SjFpqY'
p588
I2005
sS'1l3305T'
p589
I1797
sS'1ntHBqp'
p590
I4302
sS'1lgAm38'
p591
I5595
sS'1kF1gB6'
p592
I3819
sS'1ktfhQz'
p593
I4068
sS'1khCV2J'
p594
I1810
sS'1jhjCWy'
p595
I306
sS'TaNjmL'
p596
I2128
sS'1jb1gLC'
p597
I6565
sS'1jui9B5'
p598
I1813
sS'1mxh3Tl'
p599
I142
sS'1k8R3ia'
p600
I1815
sS'1nO0zqY'
p601
I4008
sS'V3Ptpj'
p602
I1820
sS'1lGCovR'
p603
I1560
sS'1pjLgKN'
p604
I1823
sS'1jaHPDC'
p605
I46
sS'1qflntJ'
p606
I1825
sS'1hcXiDi'
p607
I1834
sS'1mdmh8o'
p608
I6035
sS'1k3Fvut'
p609
I1840
sS'1m7XNKI'
p610
I447
sS'us78jd'
p611
I1841
sS'1msfupX'
p612
I1842
sS'1puGFlK'
p613
I1843
sS'SDtROZ'
p614
I2477
sS'UiCK23'
p615
I1849
sS'Ulzpz8'
p616
I5734
sS'1kjRCqm'
p617
I228
sS'1r7B0WO'
p618
I3604
sS'V3z0lu'
p619
I1851
sS'1q3IZnh'
p620
I6679
sS'1hjdsuO'
p621
I5421
sS'1fWadmY'
p622
I1854
sS'1nhONIF'
p623
I1855
sS'1v2TtRL'
p624
I1856
sS'SIkgXo'
p625
I1860
sS'ULm2bV'
p626
I2183
sS'1lwgxmQ'
p627
I1861
sS'1oE1azf'
p628
I507
sS'1kWTsOl'
p629
I1866
sS'U0VPpb'
p630
I1867
sS'1qcgxzY'
p631
I4591
sS'1gj1ssr'
p632
I1868
sS'1jG35jz'
p633
I1869
sS'1jo1evs'
p634
I1870
sS'1hkbRxQ'
p635
I1873
sS'1jiyYi3'
p636
I1234
sS'1oDepAk'
p637
I438
sS'1jpJJPT'
p638
I5780
sS'1jv7t0q'
p639
I1875
sS'1nZEJRq'
p640
I1876
sS'1ggpRiR'
p641
I1877
sS'1lEItch'
p642
I1878
sS'1hsXb0Q'
p643
I1879
sS'1hkNtNR'
p644
I1880
sS'1ggDB7C'
p645
I1188
sS'1gpxe7b'
p646
I5166
sS'UoXNQq'
p647
I1885
sS'1ppiQ22'
p648
I1886
sS'UioA0Q'
p649
I4502
sS'1kYBtlY'
p650
I1887
sS'1ji3WrO'
p651
I455
sS'1tJPZ5Z'
p652
I5769
sS'1grRuoL'
p653
I1147
sS'1pBovyL'
p654
I6272
sS'1mXt8kW'
p655
I1895
sS'1hqB5Mb'
p656
I1897
sS'1qFIX57'
p657
I2901
sS'SOOqbo'
p658
I1903
sS'1l805O0'
p659
I4054
sS'1monFUn'
p660
I1904
sS'1fptlPq'
p661
I1905
sS'1lp3HLJ'
p662
I5861
sS'1qwbMRy'
p663
I1907
sS'1lV3xc7'
p664
I590
sS'1lctwtZ'
p665
I437
sS'1g1EiXZ'
p666
I5808
sS'1locTja'
p667
I1974
sS'1q6jxxu'
p668
I2888
sS'1sMOUfh'
p669
I1975
sS'UEsaCK'
p670
I1779
sS'1iFNJ9P'
p671
I3764
sS'1h63APv'
p672
I3450
sS'1qhcRu2'
p673
I1091
sS'1mnpNcV'
p674
I1977
sS'1lUApAd'
p675
I1277
sS'1odxg4H'
p676
I1981
sS'1i3xnJ4'
p677
I1468
sS'1gBw7RZ'
p678
I1983
sS'1iO2ImP'
p679
I6677
sS'1jWAu5c'
p680
I3652
sS'1oF6tfk'
p681
I8
sS'1j2kAqX'
p682
I1989
sS'1gaQLIl'
p683
I1990
sS'1hl03Ta'
p684
I6057
sS'1pm8q3m'
p685
I1991
sS'1qJl8tf'
p686
I1994
sS'1kSdGbX'
p687
I1995
sS'SsAymG'
p688
I5564
sS'1gFlIog'
p689
I786
sS'1kMYGJb'
p690
I1996
sS'1k4kbZI'
p691
I471
sS'1nvfJkT'
p692
I2015
sS'1mzoUBq'
p693
I4262
sS'1pbejxu'
p694
I1763
sS'1hl03T8'
p695
I6567
sS'1tANrHq'
p696
I849
sS'1hDmP2M'
p697
I6575
sS'1jbdB3l'
p698
I2027
sS'1jIYihx'
p699
I2028
sS'1it9tHf'
p700
I1275
sS'1kNp4me'
p701
I2030
sS'1pCpQFx'
p702
I2031
sS'1go163R'
p703
I328
sS'1ntX0qL'
p704
I2035
sS'1uEiNzn'
p705
I242
sS'1idzKyE'
p706
I2036
sS'1gXjLhX'
p707
I5571
sS'1glb2ev'
p708
I2037
sS'1qyU8wq'
p709
I6119
sS'1hYLuPr'
p710
I2040
sS'1vovCz1'
p711
I120
sS'1lJc2d4'
p712
I2041
sS'RmHGkk'
p713
I2042
sS'SR7yFA'
p714
I1700
sS'1tuYXE7'
p715
I531
sS'1k0F6rT'
p716
I6279
sS'1pKrpBy'
p717
I2043
sS'TbHmpv'
p718
I2046
sS'1sGoETL'
p719
I2047
sS'1hrNsLe'
p720
I2048
sS'1eSXUNj'
p721
I4915
sS'1iNcO2G'
p722
I1608
sS'1paXFRf'
p723
I1672
sS'1h68Is7'
p724
I2051
sS'SPLMTe'
p725
I2052
sS'1n40xPT'
p726
I2053
sS'1pM9gpZ'
p727
I358
sS'1kWPuW2'
p728
I2056
sS'1jna8Jo'
p729
I69
sS'1uWdnAA'
p730
I3070
sS'1gjfUkq'
p731
I5097
sS'1pF08QR'
p732
I2068
sS'1q4EwBx'
p733
I2071
sS'1qoVf1y'
p734
I6715
sS'1jym9f7'
p735
I1719
sS'1mxg8Fo'
p736
I1409
sS'1kxYvok'
p737
I2072
sS'1iY5ciA'
p738
I2073
sS'1mbAsLb'
p739
I2074
sS'1mUIGe6'
p740
I2076
sS'1gooXk6'
p741
I2077
sS'1sqR8E9'
p742
I2078
sS'RAY40S'
p743
I279
sS'SOc5bM'
p744
I4737
sS'1qu26Vr'
p745
I1545
sS'1pDyaIc'
p746
I704
sS'1mROYq0'
p747
I4833
sS'1fTzbmO'
p748
I5484
sS'UEFJSs'
p749
I2216
sS'1tAqrZ3'
p750
I6253
sS'1eWTPXZ'
p751
I2106
sS'RIB6od'
p752
I2081
sS'1kurbOR'
p753
I2109
sS'1kXrf5I'
p754
I2110
sS'1oSy38g'
p755
I1289
sS'1nBirXZ'
p756
I205
sS'1kYNjfR'
p757
I2113
sS'1pNhXAi'
p758
I2115
sS'1p6sDXe'
p759
I2116
sS'1hvM6iG'
p760
I1413
sS'UiHPr0'
p761
I2121
sS'1okktuo'
p762
I4
sS'1oWwVE2'
p763
I1039
sS'1jkVUwO'
p764
I962
sS'1l88TDk'
p765
I2125
sS'1q1n6Ta'
p766
I1288
sS'1fpSCZL'
p767
I6013
sS'Snym07'
p768
I2129
sS'1iWNN6y'
p769
I50
sS'1j99UtX'
p770
I2132
sS'TxoO2J'
p771
I5578
sS'1kdNiJ9'
p772
I6372
sS'rQTXCf'
p773
I2144
sS'1qDPyOm'
p774
I5858
sS'TmKSho'
p775
I2148
sS'1jME6qz'
p776
I2149
sS'1w0xEpt'
p777
I3259
sS'1fglw9r'
p778
I2151
sS'1lo2QIi'
p779
I5447
sS'ROcnzw'
p780
I2154
sS'1kDfoNB'
p781
I2155
sS'1lphX6A'
p782
I2156
sS'1hiJOjT'
p783
I2157
sS'1lsf9WF'
p784
I2158
sS'1qtmvcB'
p785
I6318
sS'1kKcYum'
p786
I2163
sS'1iIoovZ'
p787
I1773
sS'1oMhUBW'
p788
I2165
sS'1o4t7Nr'
p789
I2167
sS'1l0vRt8'
p790
I2168
sS'1k7fXio'
p791
I456
sS'1j03uNC'
p792
I2169
sS'1mYqImd'
p793
I1135
sS'1kChoFV'
p794
I2100
sS'1nzwdNl'
p795
I2443
sS'1pDBpwZ'
p796
I2175
sS'1mCE6Rp'
p797
I1803
sS'1nW8cOa'
p798
I2176
sS'1hhFIho'
p799
I2177
sS'1pGJ5AR'
p800
I2178
sS'1r6sjcK'
p801
I1732
sS'1jbvSNK'
p802
I6434
sS'1istn3P'
p803
I6578
sS'1k3SaPH'
p804
I2221
sS'UQNjJL'
p805
I2222
sS'SOkUm5'
p806
I2223
sS'1kMm3RT'
p807
I2225
sS'1ijb4BW'
p808
I6024
sS'1mRJuQU'
p809
I2227
sS'1nm4Fqb'
p810
I6450
sS'VoIGqQ'
p811
I2920
sS'1rSM9IN'
p812
I2230
sS'UoTVz9'
p813
I2232
sS'1o6nfmT'
p814
I2166
sS'1kTP0LG'
p815
I2234
sS'1rqgCxs'
p816
I2235
sS'1jv3wsk'
p817
I2236
sS'1lf4XMs'
p818
I2237
sS'1jhHMQl'
p819
I4822
sS'1pxQnEL'
p820
I6429
sS'1fDK9gb'
p821
I2063
sS'1kOt0Gt'
p822
I2241
sS'1kauZEs'
p823
I2108
sS'1hbRF8l'
p824
I5585
sS'UyTjqx'
p825
I6469
sS'1kSg96o'
p826
I2243
sS'1kR0mSd'
p827
I2244
sS'1jtubvk'
p828
I940
sS'1nX9czT'
p829
I2003
sS'1hdQ4cE'
p830
I2247
sS'1jGEjjz'
p831
I2248
sS'1gsZaat'
p832
I2249
sS'1qePpOd'
p833
I2250
sS'Utqo7f'
p834
I2252
sS'1pKfW6w'
p835
I784
sS'1sI109r'
p836
I4581
sS'1hQ8Ah1'
p837
I2258
sS'1mNB2xp'
p838
I2259
sS'1mLbBMY'
p839
I2261
sS'1jzG96M'
p840
I2262
sS'1krFMGj'
p841
I2105
sS'1hEdpaw'
p842
I2269
sS'UDOzQx'
p843
I3043
sS'1z0SPZQ'
p844
I2270
sS'1mzkoTH'
p845
I2272
sS'UH0gG6'
p846
I6281
sS'USeHax'
p847
I2273
sS'1fvCSVm'
p848
I137
sS'1hd9FiH'
p849
I2275
sS'1fSrbb4'
p850
I2276
sS'1t17ph1'
p851
I2277
sS'1p7DLDo'
p852
I2331
sS'1iiIMZ4'
p853
I696
sS'1mzRt0a'
p854
I2279
sS'1qGh6CS'
p855
I2280
sS'1uBzlYC'
p856
I2283
sS'QebSNP'
p857
I722
sS'1oh8pd9'
p858
I2284
sS'1kAgK9v'
p859
I2303
sS'1nzYb7d'
p860
I2060
sS'1oyuDKO'
p861
I6053
sS'1lQPtDb'
p862
I1016
sS'1hrYanz'
p863
I6423
sS'1hfFxmS'
p864
I3452
sS'1ws6Crh'
p865
I812
sS'1kmWr41'
p866
I2310
sS'1qqPznY'
p867
I3869
sS'1nITGrp'
p868
I5933
sS'1r8tesH'
p869
I1062
sS'1kypkss'
p870
I1501
sS'1m0PhkP'
p871
I2349
sS'1lbx4kw'
p872
I6532
sS'1nFnDwk'
p873
I262
sS'1kIAivD'
p874
I6424
sS'1pTj8iD'
p875
I96
sS'1pVzkga'
p876
I3448
sS'1nOTnMg'
p877
I6297
sS'1geLgZC'
p878
I4366
sS'1sCT8pF'
p879
I4064
sS'1njJvsq'
p880
I1837
sS'1tBCfdD'
p881
I1411
sS'1kIrBOA'
p882
I2371
sS'1kIbC1B'
p883
I1233
sS'1fozc58'
p884
I6553
sS'1nZL7vA'
p885
I490
sS'1geDaAj'
p886
I2096
sS'1vfdKpj'
p887
I4656
sS'1hHf105'
p888
I2376
sS'1kxedLu'
p889
I771
sS'1oTuCRS'
p890
I1221
sS'1kLz1Pv'
p891
I6025
sS'1hkE2yh'
p892
I2378
sS'11NRGYe'
p893
I6136
sS'1jOyCLY'
p894
I1896
sS'1lifXgV'
p895
I2383
sS'1jcAaEI'
p896
I2384
sS'1cDzlzG'
p897
I6574
sS'SB0WuU'
p898
I2352
sS'1livc4E'
p899
I4820
sS'1eookpq'
p900
I2444
sS'1vbIhm7'
p901
I545
sS'1nYgm8A'
p902
I2445
sS'VrmXi0'
p903
I1636
sS'1jnqj9B'
p904
I2981
sS'1pbW9hQ'
p905
I4592
sS'Sm0Qr1'
p906
I5062
sS'TksVzF'
p907
I2453
sS'1mjKA7A'
p908
I2264
sS'1pt2nqg'
p909
I2454
sS'1iilphS'
p910
I4403
sS'1lFM1L2'
p911
I2455
sS'T5rxAc'
p912
I6580
sS'1oR2w6y'
p913
I2456
sS'TI97q5'
p914
I1273
sS'1jayLhY'
p915
I4128
sS'1clhRES'
p916
I2457
sS'1jX6mrn'
p917
I2460
sS'1mefkEC'
p918
I2463
sS'1x5HENF'
p919
I2464
sS'1orkrRc'
p920
I756
sS'1uwm6GU'
p921
I2465
sS'RRSXJT'
p922
I773
sS'Q5Mc6b'
p923
I2466
sS'1h0ffza'
p924
I1096
sS'1oSspmm'
p925
I4379
sS'1nWrpk9'
p926
I2470
sS'1mRV7T6'
p927
I6723
sS'1jgLjDs'
p928
I4108
sS'1qZvkPn'
p929
I2473
sS'1oeIa8U'
p930
I2474
sS'1nSHQOA'
p931
I2475
sS'1mxcoiB'
p932
I2502
sS'1nI0eIg'
p933
I2503
sS'1ii2QdS'
p934
I2504
sS'1hesVfO'
p935
I2505
sS'1u6Lkhr'
p936
I2506
sS'1ib6GVV'
p937
I4474
sS'1kS4q7Q'
p938
I2513
sS'1g6EZ1P'
p939
I6459
sS'1mjOM0K'
p940
I3026
sS'1p85UKs'
p941
I3720
sS'1jalQXP'
p942
I355
sS'1jPNrxI'
p943
I2516
sS'PvspHg'
p944
I1101
sS'1h0W4p3'
p945
I2524
sS'1o7OUDy'
p946
I2525
sS'1jdwsL8'
p947
I6399
sS'1m5e5qs'
p948
I2526
sS'1kSBxFp'
p949
I2527
sS'SDpBPB'
p950
I2528
sS'1q0Yv3s'
p951
I6714
sS'1loYLq6'
p952
I2529
sS'1q0Nr5W'
p953
I1798
sS'1nV2cTQ'
p954
I2531
sS'1ukl6aC'
p955
I2532
sS'1kM8sLL'
p956
I6047
sS'1jQp1cb'
p957
I217
sS'1su91N7'
p958
I2533
sS'1u1jeS1'
p959
I4760
sS'1gN3YYC'
p960
I4959
sS'SjYIA2'
p961
I1929
sS'1q8t4lf'
p962
I2535
sS'STAJIb'
p963
I2536
sS'1ky3tkI'
p964
I2537
sS'1qwZDfg'
p965
I2538
sS'1if5dhv'
p966
I2539
sS'1q7iv20'
p967
I2540
sS'1lZe2Og'
p968
I1572
sS'USgcWc'
p969
I5895
sS'1ks9meI'
p970
I2571
sS'1tHmpy8'
p971
I2572
sS'1pF8Bnd'
p972
I2251
sS'1pLoU5U'
p973
I2573
sS'1oagTUV'
p974
I2574
sS'1m1UEgV'
p975
I2575
sS'1plxtmK'
p976
I2576
sS'V7uPVO'
p977
I1516
sS'1m3gxAw'
p978
I5528
sS'RizYr4'
p979
I4520
sS'1oC33Kl'
p980
I2580
sS'1mpEL5D'
p981
I2013
sS'SqWDSX'
p982
I2923
sS'1kEAneS'
p983
I2581
sS'1jH5gP4'
p984
I4410
sS'1lwt8GO'
p985
I4832
sS'1mLtrAN'
p986
I973
sS'1qSia5L'
p987
I1432
sS'1mB7TmY'
p988
I2587
sS'UroDHV'
p989
I2589
sS'1nvx5hl'
p990
I809
sS'1j7U8vY'
p991
I4923
sS'1jYgTl9'
p992
I2085
sS'1lIzq8N'
p993
I2594
sS'1h6R3hW'
p994
I4147
sS'SkyU71'
p995
I2595
sS'1hh4Yoe'
p996
I2596
sS'1kX4qU0'
p997
I1937
sS'1q2KSy7'
p998
I6354
sS'1jNBPvh'
p999
I2598
sS'1x5NrTw'
p1000
I2599
sS'1hVaqe8'
p1001
I2600
sS'1gCukfE'
p1002
I6133
sS'Ru2Ywm'
p1003
I3235
sS'1mEMNGZ'
p1004
I2602
sS'1mSsUOq'
p1005
I2495
sS'1lc0eLA'
p1006
I1761
sS'1oJ6i1S'
p1007
I2604
sS'1lnMu55'
p1008
I5817
sS'SRnxnN'
p1009
I2608
sS'1kTOCl5'
p1010
I2609
sS'1pnzXie'
p1011
I2611
sS'1iEdMhN'
p1012
I305
sS'1kSVIRX'
p1013
I2612
sS'1o40D88'
p1014
I2613
sS'1i7XB1q'
p1015
I2614
sS'1k1iOcO'
p1016
I825
sS'1qCJe93'
p1017
I2635
sS'1pdF8nr'
p1018
I2637
sS'1meR9Xe'
p1019
I3952
sS'1qCDNYB'
p1020
I2639
sS'1pwG2Kq'
p1021
I1894
sS'1lt5PlA'
p1022
I2642
sS'1jEZJi4'
p1023
I2643
sS'1hS1Hpx'
p1024
I709
sS'1gfkUGs'
p1025
I2645
sS'1iIEoCM'
p1026
I5212
sS'1oT6dsr'
p1027
I2648
sS'1ngD3oh'
p1028
I789
sS'WgC4nq'
p1029
I2649
sS'1kDJyRG'
p1030
I2650
sS'1iIG625'
p1031
I1597
sS'1l2rj3O'
p1032
I1258
sS'1jglpQq'
p1033
I2654
sS'QNIQEZ'
p1034
I2823
sS'1qE7J6G'
p1035
I3735
sS'1modssm'
p1036
I6463
sS'1pjIPEN'
p1037
I2655
sS'L8i3KL'
p1038
I2656
sS'1t73Q61'
p1039
I2657
sS'1qtuWYm'
p1040
I2198
sS'1hCMhWC'
p1041
I2659
sS'1o5FGJY'
p1042
I2660
sS'1pjYaoP'
p1043
I1334
sS'1pomnP7'
p1044
I2662
sS'1mRNU63'
p1045
I6058
sS'U7Ue0w'
p1046
I388
sS'1qpLkqD'
p1047
I2663
sS'1psC9ao'
p1048
I2664
sS'1pQIsCE'
p1049
I2665
sS'1iPvlQC'
p1050
I2666
sS'1mskzyx'
p1051
I38
sS'1noQYVU'
p1052
I4042
sS'1noou4n'
p1053
I2669
sS'1jnngOy'
p1054
I4124
sS'Ti7EGM'
p1055
I2670
sS'1genbSF'
p1056
I2671
sS'1m8oL56'
p1057
I436
sS'1kZWs9x'
p1058
I2672
sS'SZBn7d'
p1059
I4529
sS'1iIn6Wl'
p1060
I4182
sS'1lnD0Ce'
p1061
I387
sS'1mhdgef'
p1062
I2677
sS'1sD2EJj'
p1063
I309
sS'1jxnhjg'
p1064
I2451
sS'1g9Zgne'
p1065
I5107
sS'1ikpn9W'
p1066
I4824
sS'1n9JDfc'
p1067
I1045
sS'1hkniGQ'
p1068
I2685
sS'1g9TZMg'
p1069
I2687
sS'1o2t7xj'
p1070
I2688
sS'XCnjLC'
p1071
I2689
sS'1tNWpBh'
p1072
I6477
sS'1mtGtTw'
p1073
I2698
sS'1gDnUNk'
p1074
I2233
sS'1ouhHFO'
p1075
I2699
sS'1koJQHd'
p1076
I2700
sS'1kmROp3'
p1077
I3083
sS'1pzWGtS'
p1078
I5811
sS'1kyTqMq'
p1079
I848
sS'1ks5H57'
p1080
I2703
sS'1mejiLv'
p1081
I2088
sS'1qadby3'
p1082
I1949
sS'1mjEnpb'
p1083
I954
sS'TxqfOP'
p1084
I1805
sS'1huxPzR'
p1085
I2363
sS'1l2g1fQ'
p1086
I2704
sS'1mydTlb'
p1087
I2705
sS'TKncnq'
p1088
I6313
sS'1iivJTR'
p1089
I2707
sS'1ggmmZw'
p1090
I2328
sS'1n3Nw2L'
p1091
I95
sS'1py9qOx'
p1092
I2708
sS'1jr3qlB'
p1093
I2709
sS'1nUS9yY'
p1094
I2715
sS'1l8dBMI'
p1095
I2716
sS'1gPiVTX'
p1096
I2718
sS'1g5Q4jP'
p1097
I2719
sS'1z0Z2VK'
p1098
I5562
sS'1mT8KWQ'
p1099
I2721
sS'1lHul1K'
p1100
I614
sS'1txSSXD'
p1101
I2722
sS'1kP1SnT'
p1102
I702
sS'PrnoFy'
p1103
I2728
sS'1fSpGKa'
p1104
I6739
sS'1svh4i0'
p1105
I1561
sS'1ig3qKl'
p1106
I2735
sS'1k9RKIq'
p1107
I6143
sS'1fpuilk'
p1108
I2737
sS'1m1FGJo'
p1109
I6484
sS'1pzfjej'
p1110
I2739
sS'1q2qnSl'
p1111
I2740
sS'1hzRjmo'
p1112
I1613
sS'UAIcNP'
p1113
I2741
sS'1pzGSbL'
p1114
I777
sS'1igf9my'
p1115
I1555
sS'1tJK8h2'
p1116
I4540
sS'1kb5rCK'
p1117
I2745
sS'1ptYrpa'
p1118
I452
sS'1kWWt0Y'
p1119
I2749
sS'1kDgwNl'
p1120
I2750
sS'1kYBTO1'
p1121
I2751
sS'1ozAKyi'
p1122
I2752
sS'1k3FXs6'
p1123
I4003
sS'1mifhtY'
p1124
I2753
sS'18kHLNm'
p1125
I2172
sS'1hsTRmh'
p1126
I612
sS'1iICUDT'
p1127
I2159
sS'1iEHC5G'
p1128
I2489
sS'SEiJS1'
p1129
I6513
sS'1sHl4bT'
p1130
I2767
sS'1wzzJsx'
p1131
I4482
sS'1kJYqJL'
p1132
I672
sS'1hs3tOi'
p1133
I2768
sS'1ga7N9v'
p1134
I2769
sS'1oTBVWq'
p1135
I3447
sS'1jlu0gT'
p1136
I478
sS'RB0c8v'
p1137
I762
sS'1k3IhiE'
p1138
I2773
sS'1lbXa25'
p1139
I767
sS'UJthB6'
p1140
I2774
sS'1kVtQNg'
p1141
I514
sS'1fxjHKE'
p1142
I93
sS'TEtKmT'
p1143
I2775
sS'1pwu6GD'
p1144
I2777
sS'1qcNFF4'
p1145
I2778
sS'RcN1uP'
p1146
I2780
sS'1mGIbiV'
p1147
I2339
sS'1jykfv1'
p1148
I3946
sS'1iZN0oF'
p1149
I892
sS'1jCKzEj'
p1150
I4969
sS'1n7ZQTd'
p1151
I2783
sS'1hyvuGS'
p1152
I2784
sS'1jcjMhS'
p1153
I2785
sS'1p6wbsp'
p1154
I5200
sS'1knakIY'
p1155
I987
sS'1gmkhFQ'
p1156
I2786
sS'1kIHOlE'
p1157
I2787
sS'1gFsCET'
p1158
I4548
sS'1ukyQDf'
p1159
I549
sS'1t9iRai'
p1160
I2789
sS'1h6s8Ia'
p1161
I2800
sS'1fzSGAj'
p1162
I2622
sS'1mLQnOP'
p1163
I2802
sS'1j6G49r'
p1164
I2803
sS'1tcjT2J'
p1165
I2808
sS'1z1WHKe'
p1166
I360
sS'1lqmIgB'
p1167
I5458
sS'1uDv98X'
p1168
I92
sS'1m73RmO'
p1169
I2812
sS'1m52XtI'
p1170
I1161
sS'RZlhdy'
p1171
I2813
sS'1o4JACT'
p1172
I4161
sS'1mbGpYg'
p1173
I2814
sS'1iWxGJE'
p1174
I2816
sS'1hoPCs8'
p1175
I933
sS'1rkI2Vo'
p1176
I1679
sS'1nzPnBp'
p1177
I2820
sS'1om3GKu'
p1178
I2821
sS'1qeA9Rq'
p1179
I2826
sS'1k9FKXC'
p1180
I2827
sS'1mHiAqd'
p1181
I2829
sS'1iAqDCP'
p1182
I4493
sS'1fGOLr8'
p1183
I1927
sS'1q5dtFq'
p1184
I2833
sS'1jbJokz'
p1185
I2834
sS'1jzFDQE'
p1186
I375
sS'1peD0co'
p1187
I2838
sS'RqvA9P'
p1188
I1701
sS'1gyOFlK'
p1189
I2839
sS'1pPWc32'
p1190
I502
sS'1pJvlpv'
p1191
I2840
sS'1kPmOJG'
p1192
I2842
sS'1hLraHc'
p1193
I185
sS'1kcExuo'
p1194
I2844
sS'1k9yjeP'
p1195
I398
sS'1pvz4GB'
p1196
I2845
sS'1n1QsCN'
p1197
I2847
sS'UIjI5q'
p1198
I565
sS'1jJO50H'
p1199
I243
sS'1maowaZ'
p1200
I219
sS'1jmfdWW'
p1201
I2849
sS'1pgiGHS'
p1202
I1115
sS'1mVsk4Y'
p1203
I2852
sS'1nM8TMo'
p1204
I1689
sS'1h2sRtP'
p1205
I2854
sS'1ouJ9UG'
p1206
I2855
sS'1kRrv6i'
p1207
I487
sS'1sEAI81'
p1208
I2856
sS'1oNxWy3'
p1209
I188
sS'1rvvlFI'
p1210
I2857
sS'1owtx25'
p1211
I2859
sS'VlZvCD'
p1212
I2860
sS'1j7v0Ee'
p1213
I2862
sS'1hfdeVv'
p1214
I2863
sS'UUMBLV'
p1215
I1068
sS'UkWoKM'
p1216
I2881
sS'1jcQ6qo'
p1217
I5594
sS'1hcl1U2'
p1218
I2883
sS'1oPZq6e'
p1219
I1831
sS'RWnBSk'
p1220
I1852
sS'12E8EVr'
p1221
I2762
sS'1g4ehar'
p1222
I2603
sS'1nIKB3o'
p1223
I2886
sS'1pYvDWs'
p1224
I1225
sS'1leWm0W'
p1225
I2887
sS'1pCXA8M'
p1226
I619
sS'1kflvF6'
p1227
I646
sS'1hoZn9R'
p1228
I2023
sS'1niHYTM'
p1229
I6594
sS'1jKYrww'
p1230
I1982
sS'1juGC8N'
p1231
I1986
sS'1gB1Cf7'
p1232
I2082
sS'1smQtDG'
p1233
I499
sS'1l2DVI8'
p1234
I2898
sS'1qDeR26'
p1235
I3821
sS'1phaAkG'
p1236
I2034
sS'TEZNmO'
p1237
I2900
sS'1l3vrVY'
p1238
I2904
sS'1kVeoFy'
p1239
I2910
sS'1qDb6He'
p1240
I2911
sS'1kRTbsP'
p1241
I2126
sS'1sRITOm'
p1242
I2913
sS'1piXAuR'
p1243
I2914
sS'1nifcqz'
p1244
I598
sS'1mLDvZg'
p1245
I2915
sS'1i80hqC'
p1246
I2916
sS'1qDgFIs'
p1247
I2917
sS'1pU20FL'
p1248
I2918
sS'1oHE7Aq'
p1249
I2919
sS'SBXrUR'
p1250
I4457
sS'1ghlovP'
p1251
I2921
sS'1ocNB9O'
p1252
I2238
sS'1h5ehSl'
p1253
I2760
sS'1qnF566'
p1254
I2922
sS'1k2XpAF'
p1255
I757
sS'1g1aepN'
p1256
I960
sS'1j8uVBw'
p1257
I2925
sS'1pQlSwi'
p1258
I2926
sS'1gBWDL6'
p1259
I2554
sS'1g21aWV'
p1260
I429
sS'1ieSThk'
p1261
I1993
sS'1uVnq9c'
p1262
I2933
sS'1hfC1TE'
p1263
I5258
sS'1sdnAq1'
p1264
I2935
sS'1jevgWV'
p1265
I2450
sS'1hdcGzr'
p1266
I2334
sS'1odlFmi'
p1267
I2936
sS'1jHkSqn'
p1268
I887
sS'1mmyu81'
p1269
I5871
sS'1qi9w0f'
p1270
I2944
sS'1hJKNiO'
p1271
I440
sS'1gJzVRh'
p1272
I2945
sS'1ngTui9'
p1273
I251
sS'1i56qu1'
p1274
I6393
sS'1oHUcG2'
p1275
I2946
sS'1puPufp'
p1276
I2947
sS'1l10ku1'
p1277
I1959
sS'RGgP2o'
p1278
I554
sS'1jxrZD4'
p1279
I847
sS'SgyLlb'
p1280
I1795
sS'Rz7QjA'
p1281
I171
sS'1jBD2pf'
p1282
I2951
sS'1kIzoed'
p1283
I2879
sS'1l6tB3v'
p1284
I2583
sS'1oHWgxO'
p1285
I2952
sS'1jup0Wg'
p1286
I2286
sS'1l0gS5r'
p1287
I2953
sS'1jIyoeL'
p1288
I2954
sS'1k3a1Tt'
p1289
I2636
sS'1hdl2l9'
p1290
I5500
sS'ShzlzF'
p1291
I135
sS'1inlFMy'
p1292
I2957
sS'1jaEJiO'
p1293
I2958
sS'1nJYsri'
p1294
I2959
sS'1jSj4GR'
p1295
I2960
sS'1k4h7rQ'
p1296
I5375
sS'1pebQTb'
p1297
I2961
sS'1va3757'
p1298
I2962
sS'1mq3rMp'
p1299
I2963
sS'RIxx1L'
p1300
I2964
sS'1kkg2eW'
p1301
I2196
sS'1rEoNWX'
p1302
I6632
sS'1ljfOoU'
p1303
I443
sS'1us1XV9'
p1304
I1157
sS'1koCCpF'
p1305
I2093
sS'VpE0Rx'
p1306
I2978
sS'1lRCwaM'
p1307
I2979
sS'1q4tZWe'
p1308
I2980
sS'TOwzTd'
p1309
I2350
sS'1ggQcNc'
p1310
I2982
sS'1pRgxC2'
p1311
I2983
sS'1gwdf75'
p1312
I735
sS'1mezLAD'
p1313
I2985
sS'1kn6QL7'
p1314
I2986
sS'1k8oUZB'
p1315
I464
sS'1kE7sZX'
p1316
I1148
sS'1mpHtXe'
p1317
I632
sS'1l0qJYT'
p1318
I2822
sS'1oREFDQ'
p1319
I2988
sS'1nhiFRA'
p1320
I557
sS'1nTNazF'
p1321
I2832
sS'1j0eg6F'
p1322
I2989
sS'1hqFiiW'
p1323
I2990
sS'1py0rjn'
p1324
I2523
sS'1prS0Vx'
p1325
I685
sS'1qC87Pp'
p1326
I2991
sS'1ngkrEd'
p1327
I627
sS'1mUQ30d'
p1328
I2992
sS'1j3owaO'
p1329
I1359
sS'1iIAfKl'
p1330
I2996
sS'1sPNnIN'
p1331
I5504
sS'1jtkWFK'
p1332
I2997
sS'1hs7lis'
p1333
I2627
sS'1mGPjvO'
p1334
I840
sS'1mer3nn'
p1335
I2998
sS'1le5sXm'
p1336
I5068
sS'1q74GD2'
p1337
I2999
sS'1iJQEhP'
p1338
I3003
sS'1nggmhB'
p1339
I3005
sS'1t3j3Ft'
p1340
I3006
sS'1nsO0SQ'
p1341
I3007
sS'1jnXlLp'
p1342
I3018
sS'1yHcAp6'
p1343
I3011
sS'1mAP4jR'
p1344
I41
sS'1jOTjXG'
p1345
I3063
sS'1icAwff'
p1346
I3064
sS'1pBZDrF'
p1347
I799
sS'1fU9BOH'
p1348
I2896
sS'STQSgS'
p1349
I3066
sS'1vaDe5h'
p1350
I5506
sS'1nsevGW'
p1351
I1634
sS'1qwFshq'
p1352
I1355
sS'1kyumpS'
p1353
I3067
sS'1qkaQ2J'
p1354
I3339
sS'1pCojPW'
p1355
I3304
sS'1pPtYVY'
p1356
I2727
sS'1kTFN6n'
p1357
I2819
sS'1jDOgh3'
p1358
I3341
sS'1jUDj71'
p1359
I3343
sS'1kow2Oz'
p1360
I3438
sS'1qmgstl'
p1361
I1966
sS'1nFBuiK'
p1362
I408
sS'1keZ0Pa'
p1363
I3346
sS'T3gjML'
p1364
I1669
sS'Uizbc1'
p1365
I2683
sS'1hpIETM'
p1366
I3348
sS'1i2HMKJ'
p1367
I3349
sS'Plys6w'
p1368
I3351
sS'1vua6Jf'
p1369
I2606
sS'TmYOr6'
p1370
I3433
sS'1jxBsps'
p1371
I3556
sS'1j1nBfg'
p1372
I3086
sS'1pqTZHQ'
p1373
I3706
sS'UphPdE'
p1374
I3361
sS'1inmG2M'
p1375
I17
sS'1nxgJ98'
p1376
I3363
sS'1orM6Bz'
p1377
I2796
sS'1gmzXca'
p1378
I1814
sS'1tye13Q'
p1379
I4707
sS'1i87Pip'
p1380
I3373
sS'1pyehQG'
p1381
I3374
sS'1kswuJX'
p1382
I4682
sS'1vua6J5'
p1383
I2097
sS'1pCOI35'
p1384
I121
sS'1fSHmja'
p1385
I2442
sS'1sSLmGu'
p1386
I3112
sS'1sl1fHm'
p1387
I3114
sS'1hvXFTD'
p1388
I2429
sS'1iQJd9B'
p1389
I2511
sS'1gMq7Rj'
p1390
I3380
sS'1kWIit0'
p1391
I1213
sS'1tsg1e7'
p1392
I108
sS'1jmNIfW'
p1393
I3383
sS'SO6HpG'
p1394
I5743
sS'1sJAegL'
p1395
I2486
sS'Uz077z'
p1396
I3686
sS'1jCUOK4'
p1397
I907
sS'1hl3xPV'
p1398
I3900
sS'1rD6zDG'
p1399
I701
sS'1lrjfhM'
p1400
I1083
sS'1ih4SHZ'
p1401
I3386
sS'1jWxtTn'
p1402
I3387
sS'1kCGySv'
p1403
I2321
sS'1ko7jeL'
p1404
I3389
sS'1l1jTm4'
p1405
I753
sS'1tAj580'
p1406
I731
sS'1sqM916'
p1407
I3378
sS'1rfD2F9'
p1408
I3068
sS'1sKcBVl'
p1409
I3392
sS'1umWzBD'
p1410
I418
sS'1gmzv31'
p1411
I3169
sS'1ou7ZTO'
p1412
I3394
sS'1kfGqX2'
p1413
I3836
sS'1giAH7X'
p1414
I3395
sS'1nNG68S'
p1415
I3396
sS'1sCJYJV'
p1416
I2409
sS'1qOWuZ8'
p1417
I186
sS'1grrSZl'
p1418
I2278
sS'1p7kCRS'
p1419
I6552
sS'RhKjDX'
p1420
I680
sS'Uy4tfn'
p1421
I3860
sS'1o1dLL3'
p1422
I3412
sS'1wyxFkG'
p1423
I2347
sS'UzKNqZ'
p1424
I3413
sS'1pBmshh'
p1425
I3417
sS'1ocjSxp'
p1426
I2299
sS'1nSjb9o'
p1427
I3899
sS'1f33kQf'
p1428
I3425
sS'1opTkcD'
p1429
I3426
sS'1hyW93u'
p1430
I3427
sS'1tsgkpa'
p1431
I369
sS'1jmm3IB'
p1432
I3430
sS'1gyw5VK'
p1433
I3274
sS'1fSdk4G'
p1434
I5618
sS'1hzhIko'
p1435
I588
sS'1oHu7v9'
p1436
I1753
sS'1iQTaHP'
p1437
I319
sS'1iWflwd'
p1438
I1508
sS'SovvE9'
p1439
I1503
sS'1j4V2xK'
p1440
I3959
sS'1khJhU0'
p1441
I2308
sS'RweIPv'
p1442
I3436
sS'1sQ35OB'
p1443
I1532
sS'1izYiv1'
p1444
I3439
sS'1lGG8cZ'
p1445
I3975
sS'UrfSxt'
p1446
I3474
sS'SfYVVb'
p1447
I3415
sS'1pRa64A'
p1448
I3476
sS'1mozlEt'
p1449
I863
sS'1jVU2wb'
p1450
I2561
sS'1pQiazJ'
p1451
I741
sS'RV2Hna'
p1452
I5601
sS'SU7wx7'
p1453
I2018
sS'1gBBZKX'
p1454
I2379
sS'T8YxJ1'
p1455
I2746
sS'1qqxeaE'
p1456
I2201
sS'1julj36'
p1457
I4090
sS'1kIxb1H'
p1458
I3503
sS'1ief1bo'
p1459
I2008
sS'UNplPS'
p1460
I3504
sS'1h5LZXO'
p1461
I3505
sS'1nzlQ7y'
p1462
I3355
sS'1lFwBHb'
p1463
I3506
sS'UMRmqI'
p1464
I3507
sS'Uu0qAJ'
p1465
I4129
sS'1geRjNE'
p1466
I4137
sS'1jhUZ1q'
p1467
I3508
sS'1gqpdiP'
p1468
I3509
sS'1tjQLGP'
p1469
I454
sS'1jvc4nn'
p1470
I3510
sS'Tc6PPC'
p1471
I3511
sS'1q6hrLQ'
p1472
I3418
sS'1nf9y5v'
p1473
I3409
sS'1uTNoab'
p1474
I3364
sS'1pDZEv0'
p1475
I4209
sS'1vYLj0c'
p1476
I3414
sS'Vp9GXh'
p1477
I3515
sS'1ouItuL'
p1478
I47
sS'1kez5LG'
p1479
I6530
sS'1gRpV8G'
p1480
I71
sS'1wjEl59'
p1481
I465
sS'1oBqQfE'
p1482
I4237
sS'1kcZWDG'
p1483
I1206
sS'19p4H8Y'
p1484
I3519
sS'1oAKwRh'
p1485
I4283
sS'1nui3Zj'
p1486
I3546
sS'1gDyXG8'
p1487
I2559
sS'1qOSwPb'
p1488
I3547
sS'RVtsam'
p1489
I3366
sS'1ga12EM'
p1490
I4642
sS'1jM0816'
p1491
I2406
sS'1hgnkzE'
p1492
I3550
sS'1kI6Bre'
p1493
I3453
sS'1rF4OHB'
p1494
I3551
sS'1nyZ7Nj'
p1495
I4005
sS'1qFl7GJ'
p1496
I3552
sS'1h8S71H'
p1497
I3554
sS'1iJ4DLA'
p1498
I764
sS'1pk7Gsj'
p1499
I1333
sS'1evdnCP'
p1500
I3555
sS'SrSvSI'
p1501
I5140
sS'1jfkaft'
p1502
I3557
sS'1kR8QbZ'
p1503
I3560
sS'1jgDxdW'
p1504
I2313
sS'1oAU3bP'
p1505
I860
sS'1pyghKY'
p1506
I3589
sS'T9qcsS'
p1507
I378
sS'1kCuPX1'
p1508
I4159
sS'1ptoaRY'
p1509
I3677
sS'1fSLHTM'
p1510
I3147
sS'1kWypGY'
p1511
I1183
sS'1w7Eo3R'
p1512
I2837
sS'1pIXWv4'
p1513
I43
sS'1rfstwA'
p1514
I3593
sS'V7HU1a'
p1515
I3594
sS'1kc2tDG'
p1516
I1553
sS'1ikVXp6'
p1517
I4506
sS'1rPam0C'
p1518
I292
sS'1mbx7eY'
p1519
I2934
sS'1uv7rhK'
p1520
I2301
sS'1ln0cFz'
p1521
I4518
sS'1ojVSY3'
p1522
I3597
sS'XClvlR'
p1523
I3600
sS'1gC1vji'
p1524
I4559
sS'1jrT5pD'
p1525
I3608
sS'1gls9Nb'
p1526
I864
sS'1oTdpoq'
p1527
I3612
sS'1pQK29V'
p1528
I3613
sS'1qn890h'
p1529
I4325
sS'1haloc7'
p1530
I1675
sS'1hzmZbv'
p1531
I5604
sS'1i5iXry'
p1532
I2591
sS'1m3uUDi'
p1533
I472
sS'1jt1NJP'
p1534
I1913
sS'1tuzfQ0'
p1535
I3621
sS'1j7DXlO'
p1536
I3622
sS'1ttL09z'
p1537
I3623
sS'1ltGjbr'
p1538
I3284
sS'1ljeeTQ'
p1539
I6620
sS'1mOykfH'
p1540
I927
sS'1lKUaPZ'
p1541
I1457
sS'1s8Sgw2'
p1542
I2104
sS'1pFgz2v'
p1543
I3340
sS'1n3dGGk'
p1544
I2644
sS'1qrO5rj'
p1545
I747
sS'1yXhgY0'
p1546
I4741
sS'1iNYonz'
p1547
I3960
sS'Szz36C'
p1548
I3630
sS'1jDikdp'
p1549
I3419
sS'1kJeStC'
p1550
I1231
sS'1p7KAbp'
p1551
I4397
sS'1k0jbkA'
p1552
I1938
sS'V3zE2j'
p1553
I3632
sS'1wrg6CY'
p1554
I5382
sS'SnxjNz'
p1555
I3633
sS'1gw6FgT'
p1556
I4784
sS'1ickKeE'
p1557
I4785
sS'1kIa9gr'
p1558
I3492
sS'1rfKZ7S'
p1559
I5994
sS'1jya1Lg'
p1560
I844
sS'1iblcNn'
p1561
I3636
sS'1qe9wff'
p1562
I2325
sS'1kTxBqW'
p1563
I2653
sS'UrlBmV'
p1564
I3535
sS'1mXqYlr'
p1565
I4841
sS'1ywhy8f'
p1566
I597
sS'1qjOBdk'
p1567
I1964
sS'1hc1oLU'
p1568
I3641
sS'QMuDYW'
p1569
I607
sS'1lekThY'
p1570
I3645
sS'1gGdwnN'
p1571
I3646
sS'1kDzwwx'
p1572
I3647
sS'1ldxfZg'
p1573
I997
sS'TG0TPc'
p1574
I1559
sS'T32y0I'
p1575
I4901
sS'1fTRfNC'
p1576
I2397
sS'1pYCIqH'
p1577
I3712
sS'1q6mko5'
p1578
I5868
sS'1iNEhWE'
p1579
I4943
sS'1jutVYe'
p1580
I351
sS'1kH0gMW'
p1581
I3650
sS'1hPB6to'
p1582
I3397
sS'1ifHY70'
p1583
I3651
sS'1mehnqh'
p1584
I4220
sS'1rhGeMI'
p1585
I4958
sS'1jh2j7W'
p1586
I4967
sS'1ogfaPM'
p1587
I6192
sS'1pXU5bd'
p1588
I3654
sS'1mwIQ4D'
p1589
I3655
sS'1hmcuXQ'
p1590
I3656
sS'1qhiMSu'
p1591
I3657
sS'1lJQLNM'
p1592
I3658
sS'1kTsB0R'
p1593
I4993
sS'Vpalbc'
p1594
I1486
sS'1lwkkSx'
p1595
I1078
sS'1mDM4oP'
p1596
I5323
sS'1iz3wLX'
p1597
I3660
sS'1pbZURG'
p1598
I5060
sS'1o6hs4F'
p1599
I3661
sS'1u5OeCb'
p1600
I5252
sS'UYFVfH'
p1601
I2399
sS'1lNMBsp'
p1602
I3663
sS'1hfewzU'
p1603
I2634
sS'RzA65M'
p1604
I3664
sS'UqCsX5'
p1605
I1908
sS'1gRg42R'
p1606
I5027
sS'1qnMMga'
p1607
I1201
sS'UucQIN'
p1608
I2889
sS'1jtzI48'
p1609
I3665
sS'SCjZoF'
p1610
I4699
sS'1nyX23W'
p1611
I2020
sS'1jIxwkM'
p1612
I3212
sS'1qh7wmv'
p1613
I1438
sS'1pTh21k'
p1614
I5057
sS'1gho10E'
p1615
I5058
sS'SnxatG'
p1616
I3668
sS'1jdS991'
p1617
I5116
sS'1mzrjNN'
p1618
I655
sS'SwlnJU'
p1619
I1984
sS'1nomjbk'
p1620
I1563
sS'1mY95Ys'
p1621
I604
sS'1hutj4i'
p1622
I3191
sS'1pP0mpq'
p1623
I3674
sS'1o7C8WS'
p1624
I5084
sS'1pn46gK'
p1625
I3678
sS'1j4VbQJ'
p1626
I5710
sS'1ghIqxv'
p1627
I2285
sS'1hPYEDA'
p1628
I1655
sS'1kblwZa'
p1629
I3680
sS'1mahdOy'
p1630
I2033
sS'yXAmwW'
p1631
I2549
sS'1pj0qwv'
p1632
I73
sS'1udtsS9'
p1633
I221
sS'1nPBv4U'
p1634
I3688
sS'1gC1DiK'
p1635
I3689
sS'1peFD08'
p1636
I5138
sS'1oSA9F7'
p1637
I3693
sS'TlQTLm'
p1638
I3694
sS'1kZ3oa0'
p1639
I3696
sS'1gz6cu7'
p1640
I3697
sS'1nYzDIB'
p1641
I3699
sS'UWCYMD'
p1642
I5177
sS'1gZZPLe'
p1643
I3701
sS'uIOfaA'
p1644
I3702
sS'1has6z1'
p1645
I3704
sS'1gC1xYk'
p1646
I994
sS'1mCqnqD'
p1647
I3705
sS'1hOkAKe'
p1648
I1103
sS'1mHIc7W'
p1649
I1804
sS'1qc7dvs'
p1650
I770
sS'1pNC6nu'
p1651
I1483
sS'1lZ9YL3'
p1652
I3707
sS'1kT3VKI'
p1653
I1190
sS'1p174Ht'
p1654
I1699
sS'1jBHK6P'
p1655
I3385
sS'1mxnc04'
p1656
I5221
sS'1mL40Bn'
p1657
I3709
sS'1qkp1CF'
p1658
I3710
sS'1je5hzI'
p1659
I3711
sS'1gz6HEt'
p1660
I4321
sS'1jSz5Ct'
p1661
I3237
sS'1oyjw4z'
p1662
I3715
sS'1mN9HeD'
p1663
I4399
sS'1gBa6wY'
p1664
I5937
sS'1pfipUD'
p1665
I6144
sS'1pwEChY'
p1666
I1098
sS'1hTBcQy'
p1667
I3718
sS'1plth6z'
p1668
I2757
sS'1tJNiS9'
p1669
I4662
sS'Tu0jDX'
p1670
I3719
sS'1nrEgbH'
p1671
I441
sS'1neAhRN'
p1672
I862
sS'RYM9tL'
p1673
I342
sS'PyBC7o'
p1674
I5288
sS'1dSp1H6'
p1675
I3722
sS'1kxZtkp'
p1676
I3723
sS'1hhguQj'
p1677
I1405
sS'1sFbJBo'
p1678
I3724
sS'TRJgfP'
p1679
I3726
sS'1mHc3eW'
p1680
I3727
sS'1nG0Goq'
p1681
I748
sS'1l6bVYq'
p1682
I3827
sS'1kLwKsr'
p1683
I3740
sS'1pY0hSu'
p1684
I1648
sS'1ep1Wws'
p1685
I3745
sS'1pffj2N'
p1686
I6145
sS'1jpCcBD'
p1687
I483
sS'1qq0uyg'
p1688
I3675
sS'ThEyr4'
p1689
I3748
sS'1kpg3j5'
p1690
I4180
sS'1o3ltpF'
p1691
I1934
sS'1kPZbWj'
p1692
I4674
sS'1gBeYCD'
p1693
I842
sS'1k6W6fi'
p1694
I2810
sS'1xe8Iev'
p1695
I3779
sS'1gbJiDk'
p1696
I3780
sS'1o6Acjw'
p1697
I3467
sS'TVtYH6'
p1698
I4618
sS'1nLje6U'
p1699
I3120
sS'1o4Mp6l'
p1700
I626
sS'1hiMMEx'
p1701
I3781
sS'1kOYRGu'
p1702
I2433
sS'1kGjzUQ'
p1703
I1235
sS'1pPjgfY'
p1704
I3784
sS'1hhSFrN'
p1705
I6040
sS'1pIAVVY'
p1706
I3785
sS'1gY8qT6'
p1707
I3787
sS'1eTbYWY'
p1708
I3788
sS'1od5CDq'
p1709
I3789
sS'1kPAlTl'
p1710
I3790
sS'1iMsL9f'
p1711
I936
sS'1o09aKQ'
p1712
I3791
sS'1n6k0tc'
p1713
I4953
sS'1mHHPbT'
p1714
I3793
sS'1o3oRgT'
p1715
I3794
sS'QTlU7l'
p1716
I796
sS'1gHyH9m'
p1717
I4010
sS'1gmL6yY'
p1718
I3795
sS'1x5YAEN'
p1719
I414
sS'1hf88Ti'
p1720
I5602
sS'1ftww3d'
p1721
I949
sS'1hn7PGi'
p1722
I2520
sS'1qbCTB6'
p1723
I1943
sS'1ght1CY'
p1724
I3015
sS'1pB5MV0'
p1725
I103
sS'1nEKlyF'
p1726
I3796
sS'1nVN6za'
p1727
I5165
sS'1llFvd9'
p1728
I3828
sS'1iUsK82'
p1729
I3829
sS'1kIGVcO'
p1730
I3545
sS'1koUvBQ'
p1731
I3411
sS'1xzNDLM'
p1732
I2120
sS'1pjRvwB'
p1733
I2864
sS'1r2f24y'
p1734
I3831
sS'1lmjT06'
p1735
I3832
sS'QqZHNX'
p1736
I3833
sS'1heLGdq'
p1737
I3834
sS'1sQomJS'
p1738
I4382
sS'1oWNvjC'
p1739
I3837
sS'1lK7Rw8'
p1740
I2711
sS'1kmPs9o'
p1741
I3838
sS'1niD3FG'
p1742
I1168
sS'1jXXQY4'
p1743
I3843
sS'TuLFfN'
p1744
I3036
sS'1hhAACU'
p1745
I5714
sS'1nZGVMc'
p1746
I3458
sS'RCQ27q'
p1747
I3301
sS'1jwC3eN'
p1748
I3848
sS'1oyflpn'
p1749
I329
sS'1o7J6vC'
p1750
I3849
sS'1k2yMow'
p1751
I3850
sS'SkjGz6'
p1752
I2410
sS'1tFpIWD'
p1753
I3852
sS'RW5yvV'
p1754
I2865
sS'SjT3dh'
p1755
I1997
sS'1he9M84'
p1756
I4157
sS'1ljMZNN'
p1757
I5765
sS'1kwiN0A'
p1758
I3283
sS'1gH7Mue'
p1759
I6666
sS'1sRO2WP'
p1760
I2187
sS'UrNlY7'
p1761
I1037
sS'1sCGYLq'
p1762
I3855
sS'1qe6ZBL'
p1763
I80
sS'1ha5O08'
p1764
I3859
sS'1nA20wb'
p1765
I3861
sS'1kYTS2k'
p1766
I3863
sS'1sW0CV1'
p1767
I3182
sS'1ghp1Sq'
p1768
I903
sS'1lbUVf0'
p1769
I3871
sS'1pbwEus'
p1770
I5821
sS'1kIkeFA'
p1771
I2032
sS'1hnOFQS'
p1772
I1781
sS'1pzwP6k'
p1773
I145
sS'1o5tYAE'
p1774
I3877
sS'1yRt7ad'
p1775
I267
sS'1nsOSqA'
p1776
I816
sS'1jGgyTM'
p1777
I2632
sS'1juIZo2'
p1778
I1839
sS'1ltWppI'
p1779
I3885
sS'1kFngis'
p1780
I2307
sS'1jQ7fVE'
p1781
I2180
sS'ThgX9V'
p1782
I3886
sS'1l4SzhZ'
p1783
I2793
sS'UaVYqn'
p1784
I2509
sS'RzBkOt'
p1785
I4644
sS'1nyx6o5'
p1786
I3887
sS'1lSaLPu'
p1787
I5238
sS'1g8doO4'
p1788
I2692
sS'1tJMlZX'
p1789
I3890
sS'1i5tLoO'
p1790
I1919
sS'1mBZnGk'
p1791
I3756
sS'1saZwEr'
p1792
I24
sS'1qpfJaV'
p1793
I3449
sS'1lomQeX'
p1794
I670
sS'1iylDh1'
p1795
I3893
sS'TOXdv7'
p1796
I3894
sS'1pppzsq'
p1797
I631
sS'1llyo4p'
p1798
I1403
sS'1huVv6Z'
p1799
I1822
sS'1ldQzKJ'
p1800
I3895
sS'1iqqTmD'
p1801
I1953
sS'1qyYXqB'
p1802
I3113
sS'1ppyJoS'
p1803
I3553
sS'1lIRDU5'
p1804
I873
sS'1yoHsKR'
p1805
I999
sS'1hCCIqm'
p1806
I3368
sS'1jfS8AB'
p1807
I1890
sS'1imQl0C'
p1808
I3334
sS'1hpQU9N'
p1809
I5964
sS'1gCqXVT'
p1810
I3379
sS'TtMVjc'
p1811
I3901
sS'1gbce4c'
p1812
I3902
sS'1gxDZi5'
p1813
I3903
sS'1pt2ou8'
p1814
I3904
sS'1jEPVV5'
p1815
I3905
sS'1o5pnhI'
p1816
I6154
sS'1l5CRYA'
p1817
I3906
sS'1pp3Mim'
p1818
I3907
sS'1mLFDBy'
p1819
I362
sS'1kMR5gu'
p1820
I3914
sS'1gb7hZp'
p1821
I3915
sS'1tzG5E8'
p1822
I6382
sS'1py5nT6'
p1823
I6107
sS'SA98vU'
p1824
I371
sS'1qbObFH'
p1825
I3916
sS'1rKkJVq'
p1826
I3917
sS'Uizaox'
p1827
I3920
sS'1goWZFb'
p1828
I6111
sS'1mPKi3Z'
p1829
I1014
sS'1fLPWWu'
p1830
I3199
sS'1oqqyZp'
p1831
I981
sS'1ktUpNP'
p1832
I1086
sS'1jwudBQ'
p1833
I3927
sS'1o43HUa'
p1834
I3928
sS'1gg74yz'
p1835
I542
sS'1v5y2SX'
p1836
I78
sS'1qoLiRZ'
p1837
I1280
sS'RZMjkC'
p1838
I855
sS'1jqi0tF'
p1839
I2553
sS'1kYytG6'
p1840
I1430
sS'1kXZfSJ'
p1841
I3931
sS'1q5zq7d'
p1842
I4612
sS'1pSyl0a'
p1843
I3933
sS'1mJUsVj'
p1844
I3935
sS'1k6Fsxn'
p1845
I3937
sS'1aznJxd'
p1846
I2564
sS'1llsujx'
p1847
I3941
sS'1qKXBZ0'
p1848
I2425
sS'1l2JXbN'
p1849
I3942
sS'1gCdc9M'
p1850
I2348
sS'1gmcyxa'
p1851
I3943
sS'1r9Javf'
p1852
I3930
sS'1mkTqQP'
p1853
I3947
sS'1fVIIix'
p1854
I1591
sS'1mewnWv'
p1855
I2790
sS'1o8aj2V'
p1856
I3948
sS'1pnIa63'
p1857
I3950
sS'1hcpfW9'
p1858
I3954
sS'1mHCp3m'
p1859
I340
sS'1gy8wBM'
p1860
I2341
sS'1m4FASn'
p1861
I3955
sS'1jBxZoL'
p1862
I5428
sS'1oUtv14'
p1863
I4685
sS'1qAy4BC'
p1864
I3957
sS'1m6AZez'
p1865
I4117
sS'1dtHyax'
p1866
I5268
sS'1oj062a'
p1867
I3958
sS'1xgvK4z'
p1868
I1412
sS'1qko9x3'
p1869
I3961
sS'1fO0VhU'
p1870
I2431
sS'1mLGjph'
p1871
I5599
sS'1nCK8is'
p1872
I3962
sS'1hD40gj'
p1873
I3939
sS'1k8fOvg'
p1874
I4615
sS'1gjEgu7'
p1875
I3966
sS'Rp70Gs'
p1876
I4056
sS'1knUDHp'
p1877
I426
sS'1pFq6V8'
p1878
I6303
sS'1iz0Qyf'
p1879
I5738
sS'1iVxZPY'
p1880
I3968
sS'UFGjj1'
p1881
I3969
sS'R63e4X'
p1882
I3970
sS'V8GLGE'
p1883
I3971
sS'RQePoL'
p1884
I3864
sS'1gliVQY'
p1885
I3964
sS'1gnKVn5'
p1886
I1361
sS'1k6Ced4'
p1887
I1649
sS'1m2gfZ9'
p1888
I6389
sS'1hDez2Q'
p1889
I3973
sS'1meKGKK'
p1890
I2974
sS'1ouTVXl'
p1891
I3865
sS'1gunNDH'
p1892
I5326
sS'1n6eYTu'
p1893
I3102
sS'1hafWpI'
p1894
I3473
sS'1k3sbpo'
p1895
I3976
sS'1g2C8S7'
p1896
I1008
sS'1jR6TuP'
p1897
I1502
sS'1nrTo7F'
p1898
I461
sS'1tJHgAU'
p1899
I3978
sS'1tsFfJ3'
p1900
I970
sS'1jnBG78'
p1901
I4295
sS'1oOkqH3'
p1902
I6428
sS'1or4Gd2'
p1903
I3209
sS'1nAHCew'
p1904
I3980
sS'1kDhmhy'
p1905
I6326
sS'1jcW36J'
p1906
I3805
sS'PiH0Mb'
p1907
I5977
sS'UGUVOY'
p1908
I3982
sS'1gIISdE'
p1909
I337
sS'1gF3aor'
p1910
I1046
sS'RMJLXx'
p1911
I3985
sS'1kAg5rL'
p1912
I1469
sS'1gSCDi7'
p1913
I6088
sS'1oKJZMl'
p1914
I5553
sS'Tz8zmX'
p1915
I3986
sS'SZzreK'
p1916
I3988
sS'1gpnZnI'
p1917
I432
sS'1lktWTv'
p1918
I3989
sS'1l6JJGa'
p1919
I1007
sS'1phJlTM'
p1920
I845
sS'1gsBCND'
p1921
I932
sS'1kmulCT'
p1922
I3991
sS'1pSYWxj'
p1923
I1256
sS'1kNPDuR'
p1924
I6579
sS'1qYdQz6'
p1925
I3602
sS'1hAI4BN'
p1926
I905
sS'1ljwZLJ'
p1927
I4000
sS'1jyH1To'
p1928
I2848
sS'TqHEcJ'
p1929
I2684
sS'1pNKVx2'
p1930
I4038
sS'1hqz9DA'
p1931
I4039
sS'1rhxINY'
p1932
I3810
sS'1nSo2Y8'
p1933
I4040
sS'UTN6pi'
p1934
I4041
sS'1oVJj42'
p1935
I3202
sS'1mAWSpa'
p1936
I4044
sS'1iaaYJQ'
p1937
I3201
sS'1uciTMi'
p1938
I1192
sS'1jdLxfM'
p1939
I4045
sS'1glANLG'
p1940
I886
sS'1hjQ8Ym'
p1941
I3046
sS'1mL7roc'
p1942
I4052
sS'UZ6Ojt'
p1943
I5427
sS'1rbIAwz'
p1944
I2815
sS'1ohckdk'
p1945
I4053
sS'1nY64Vg'
p1946
I1208
sS'1pFtmPR'
p1947
I4725
sS'1l3DLEZ'
p1948
I4055
sS'1mJubVN'
p1949
I4057
sS'1h4oiz8'
p1950
I1782
sS'1pI8zvz'
p1951
I823
sS'1hhosJf'
p1952
I817
sS'1j2q8Fg'
p1953
I4058
sS'1oGSbui'
p1954
I967
sS'UlDjrY'
p1955
I4059
sS'1lTgKoc'
p1956
I516
sS'1qiBcCd'
p1957
I4060
sS'1j3FXLt'
p1958
I4062
sS'RaCf8j'
p1959
I4065
sS'1kx8cmW'
p1960
I4066
sS'1qmwinC'
p1961
I4067
sS'1kTzXGx'
p1962
I750
sS'1p0JkTW'
p1963
I4069
sS'1sIQySv'
p1964
I868
sS'1jAdcaQ'
p1965
I2858
sS'1pvUDqF'
p1966
I4072
sS'1kVdGb7'
p1967
I4073
sS'1h9XWff'
p1968
I1269
sS'Rh3pKJ'
p1969
I1872
sS'1hxJWvz'
p1970
I4075
sS'1mQch3v'
p1971
I296
sS'1run9XJ'
p1972
I1544
sS'1fSnGRQ'
p1973
I1760
sS'1gsiqF3'
p1974
I3530
sS'1oAUgHN'
p1975
I2327
sS'1iH9eqT'
p1976
I4076
sS'TlmgFi'
p1977
I5842
sS'1kJlCZW'
p1978
I2302
sS'1kDEqMV'
p1979
I4077
sS'1tNQgrs'
p1980
I4078
sS'1pKwNVg'
p1981
I4079
sS'1jEfzDz'
p1982
I4080
sS'1mInUtf'
p1983
I830
sS'1pFmwtD'
p1984
I4083
sS'1lCTObR'
p1985
I3245
sS'V0aDVJ'
p1986
I4084
sS'1o0ZUoe'
p1987
I832
sS'1mG7cuw'
p1988
I1066
sS'1mnEJYo'
p1989
I4730
sS'1kVL5Or'
p1990
I720
sS'1tDgQ3I'
p1991
I4673
sS'1kT7KOo'
p1992
I4093
sS'1hnjKDM'
p1993
I1828
sS'1wxP9Nd'
p1994
I4101
sS'1mScNAo'
p1995
I1465
sS'1pYUCeV'
p1996
I4102
sS'1gxKr8U'
p1997
I3107
sS'1r9P2UW'
p1998
I2012
sS'1njgo8T'
p1999
I3109
sS'1mQ4zYX'
p2000
I3518
sS'18CMR4q'
p2001
I4105
sS'1pfRCb4'
p2002
I3125
sS'1gccKzc'
p2003
I6548
sS'1mx5ITi'
p2004
I4106
sS'1qbmxta'
p2005
I3133
sS'1pghc2I'
p2006
I428
sS'1iBXjvx'
p2007
I161
sS'1fGm8bo'
p2008
I6003
sS'1kPF2wr'
p2009
I4107
sS'1lGan4Y'
p2010
I1299
sS'1ia3cTQ'
p2011
I3149
sS'1idGXfw'
p2012
I4112
sS'1j2mzPm'
p2013
I4113
sS'1nyKF84'
p2014
I4114
sS'1sCDESA'
p2015
I4115
sS'1fQyRug'
p2016
I484
sS'Ru1tP4'
p2017
I5298
sS'1qfx0AR'
p2018
I4116
sS'1jgG7uQ'
p2019
I2210
sS'SRgCuj'
p2020
I534
sS'1p49AjF'
p2021
I4118
sS'1iPpQRP'
p2022
I4119
sS'1yUNSli'
p2023
I4120
sS'1lB28IS'
p2024
I4036
sS'1pCDKYa'
p2025
I4121
sS'1u6ZkYN'
p2026
I5827
sS'TC7rhI'
p2027
I310
sS'1kgRpFi'
p2028
I4122
sS'1qhjsVx'
p2029
I4123
sS'TlLior'
p2030
I4125
sS'Rfrr94'
p2031
I4126
sS'1sQ7syt'
p2032
I6538
sS'1mLaRaw'
p2033
I4127
sS'1kN36OV'
p2034
I2398
sS'1lV7gI9'
p2035
I190
sS'1qesUsr'
p2036
I4130
sS'Sm1rsV'
p2037
I1799
sS'1u5NYTT'
p2038
I39
sS'1ms1NaK'
p2039
I6397
sS'1uedXbC'
p2040
I5581
sS'TrHGBa'
p2041
I4132
sS'1jMqijS'
p2042
I4134
sS'1jSRezY'
p2043
I3243
sS'TKnACt'
p2044
I4136
sS'1jdQrno'
p2045
I4478
sS'1mHpqyH'
p2046
I5863
sS'1hhkBMg'
p2047
I743
sS'1jr1mdg'
p2048
I4139
sS'1pCGyHV'
p2049
I3692
sS'1qNKRBV'
p2050
I567
sS'1odMR4j'
p2051
I3587
sS'1pzWTuN'
p2052
I2045
sS'1j9SsXk'
p2053
I2807
sS'1mJbCRn'
p2054
I6090
sS'1qX9UyY'
p2055
I1279
sS'1hbx52j'
p2056
I5742
sS'1kjrruY'
p2057
I1723
sS'1n7riOt'
p2058
I1740
sS'1fI5e9k'
p2059
I4738
sS'SB5DoL'
p2060
I2354
sS'1jRMYvR'
p2061
I381
sS'1kIh7C5'
p2062
I4206
sS'1p9XHFq'
p2063
I4207
sS'1jHFq2k'
p2064
I435
sS'1nWy6PG'
p2065
I6368
sS'1ppGnwy'
p2066
I992
sS'1heXb4j'
p2067
I3513
sS'1pMPw2x'
p2068
I956
sS'1hyvFip'
p2069
I6603
sS'1polo09'
p2070
I2560
sS'1rQ6QVS'
p2071
I5048
sS'1ibYjVo'
p2072
I4215
sS'Sfh6Kz'
p2073
I131
sS'1nWWi4J'
p2074
I3516
sS'1q99pSg'
p2075
I4216
sS'1q83Ndc'
p2076
I6724
sS'1qcPoJR'
p2077
I579
sS'1jUuakh'
p2078
I874
sS'1haghJd'
p2079
I1489
sS'1guYx01'
p2080
I4063
sS'1oVW3qX'
p2081
I5285
sS'1wmI9mZ'
p2082
I4221
sS'1mDirns'
p2083
I2314
sS'RD4OL9'
p2084
I2127
sS'1iEIWW2'
p2085
I1155
sS'1hSkb9z'
p2086
I4222
sS'1s8ReQV'
p2087
I2492
sS'1g2n3Fu'
p2088
I585
sS'T3cNmo'
p2089
I140
sS'Vt6TMw'
p2090
I501
sS'1bjyx5u'
p2091
I6422
sS'1gl5nWe'
p2092
I3582
sS'1toWT0t'
p2093
I522
sS'1nRy8Zo'
p2094
I2971
sS'1hptKv1'
p2095
I4225
sS'1ggAhys'
p2096
I6414
sS'TrhKoL'
p2097
I2203
sS'SbIMjz'
p2098
I4226
sS'1nSTMQe'
p2099
I6592
sS'UE3t9o'
p2100
I4228
sS'1h9o75R'
p2101
I4229
sS'1hscvdW'
p2102
I4230
sS'1s8S3sS'
p2103
I274
sS'1jHC36N'
p2104
I4233
sS'1oO89FY'
p2105
I6690
sS'TOnxFJ'
p2106
I4234
sS'1g1qiYk'
p2107
I2133
sS'1lPGwWG'
p2108
I3640
sS'1tLNAb9'
p2109
I4235
sS'1kNJXRF'
p2110
I4002
sS'1mGNXFS'
p2111
I3921
sS'TzbFqU'
p2112
I158
sS'1jayxY3'
p2113
I1215
sS'1ntrY4p'
p2114
I4238
sS'1juo8kG'
p2115
I4004
sS'1lRwMhh'
p2116
I6500
sS'1jlmdQh'
p2117
I4242
sS'1iDC8xI'
p2118
I3153
sS'1msPtGU'
p2119
I3751
sS'1qHn1GK'
p2120
I4020
sS'1nBG3KW'
p2121
I2099
sS'T1ewYX'
p2122
I5358
sS'1pABB0Z'
p2123
I4245
sS'1jNF2e6'
p2124
I953
sS'1jbbgFo'
p2125
I5245
sS'1pvKAi3'
p2126
I3460
sS'1qhU16j'
p2127
I385
sS'1jvC6pl'
p2128
I4251
sS'1nSN4q6'
p2129
I2578
sS'1yXBAbS'
p2130
I4252
sS'1kXs8wx'
p2131
I4254
sS'1gwa1Ai'
p2132
I1153
sS'1kFaD6W'
p2133
I6697
sS'1hiA4Wu'
p2134
I4255
sS'1nHjVB4'
p2135
I4192
sS'RNDwCK'
p2136
I904
sS'1g5Mbvj'
p2137
I2242
sS'1qrBnLA'
p2138
I4257
sS'1iObxtS'
p2139
I4258
sS'1ky4A49'
p2140
I4259
sS'1mevYGB'
p2141
I4260
sS'SO8QRB'
p2142
I4261
sS'1psrexJ'
p2143
I5367
sS'1jv2DQD'
p2144
I6404
sS'1kHwhaL'
p2145
I5887
sS'1lG7PFB'
p2146
I4282
sS'1qbHuV1'
p2147
I3273
sS'UsYWXh'
p2148
I2368
sS'1jGze74'
p2149
I4284
sS'1jbJUiG'
p2150
I4285
sS'1qihvay'
p2151
I3729
sS'1qyv0Dd'
p2152
I3731
sS'1nZaPjK'
p2153
I4287
sS'1sMTERY'
p2154
I4288
sS'SAFiYy'
p2155
I4289
sS'1ms160N'
p2156
I2014
sS'1k0OUl1'
p2157
I4290
sS'1gpPTjp'
p2158
I4291
sS'11t3xUT'
p2159
I4292
sS'1qKOFTg'
p2160
I1262
sS'1l0Ew2K'
p2161
I1130
sS'1qyg6j4'
p2162
I4293
sS'1hI6z0k'
p2163
I601
sS'1qTXWG7'
p2164
I4294
sS'1llUofe'
p2165
I1056
sS'1wRO6HY'
p2166
I2103
sS'1iYApCr'
p2167
I4299
sS'1jbLMSW'
p2168
I6188
sS'1oFT4Tr'
p2169
I396
sS'IsVwvs'
p2170
I1939
sS'1ha8nzx'
p2171
I4300
sS'1pQ30KC'
p2172
I6661
sS'1ts2x1R'
p2173
I2530
sS'TJS7jQ'
p2174
I2828
sS'1juaYrP'
p2175
I3157
sS'1p7eCZh'
p2176
I4303
sS'1pAnhr3'
p2177
I512
sS'1ingYSX'
p2178
I1267
sS'UZMez7'
p2179
I5660
sS'1kKaezN'
p2180
I4304
sS'1idRPpl'
p2181
I4305
sS'1ju7BNw'
p2182
I4306
sS'1kR8Qqv'
p2183
I1029
sS'1jTib6z'
p2184
I6381
sS'1wmsq6E'
p2185
I4307
sS'1hm3eV0'
p2186
I4309
sS'1lvW8ye'
p2187
I926
sS'1vgwqpB'
p2188
I3480
sS'1mWztgG'
p2189
I297
sS'1jWgc00'
p2190
I4310
sS'V5ZD9b'
p2191
I6737
sS'1h0nznX'
p2192
I177
sS'1heOInE'
p2193
I647
sS'1s7T0hD'
p2194
I3211
sS'1dNsyqR'
p2195
I4313
sS'1kuihB3'
p2196
I4314
sS'1jbWKMn'
p2197
I6475
sS'1o991TR'
p2198
I4315
sS'1pUBy2C'
p2199
I4316
sS'1pF0pXO'
p2200
I2620
sS'1neSqv3'
p2201
I4317
sS'1oFT8mu'
p2202
I1724
sS'1kL8AK6'
p2203
I3099
sS'1v7N1c8'
p2204
I254
sS'1jJrWyq'
p2205
I2628
sS'1mc38DQ'
p2206
I4331
sS'1pFMXit'
p2207
I5525
sS'1mTVRqW'
p2208
I2694
sS'1l5aPfd'
p2209
I5809
sS'Tq6hX4'
p2210
I710
sS'1jmN42c'
p2211
I4345
sS'U0SrdF'
p2212
I4346
sS'1m3KpKr'
p2213
I4348
sS'1mDJVy8'
p2214
I6658
sS'1nUBxZ4'
p2215
I4349
sS'1gwzLwH'
p2216
I1615
sS'1jwp7p7'
p2217
I4356
sS'SxzE8I'
p2218
I4357
sS'QZZX6v'
p2219
I851
sS'1kIRONb'
p2220
I3881
sS'1pjXyiN'
p2221
I3896
sS'1kKERFz'
p2222
I4368
sS'TmkFzC'
p2223
I115
sS'SgKS1L'
p2224
I4369
sS'1q4E05V'
p2225
I164
sS'1pgc64b'
p2226
I4370
sS'1kvuHYD'
p2227
I3164
sS'1sLQPic'
p2228
I3168
sS'1nPL6Zi'
p2229
I282
sS'1khp0tb'
p2230
I390
sS'1s2Be2S'
p2231
I2343
sS'1l33AFm'
p2232
I4373
sS'1mDXqtq'
p2233
I4377
sS'1kPvjpN'
p2234
I566
sS'1pgYuF0'
p2235
I4378
sS'1nSYSNj'
p2236
I1952
sS'1jgMnCM'
p2237
I1158
sS'1x92zjY'
p2238
I576
sS'1q1WmC1'
p2239
I1229
sS'1tEjer5'
p2240
I4390
sS'1iHhSa4'
p2241
I498
sS'1jp7Ayp'
p2242
I4392
sS'1rLtcel'
p2243
I162
sS'1i6tXs8'
p2244
I5409
sS'1jt226D'
p2245
I3599
sS'RzlNOE'
p2246
I2079
sS'1gw6HoZ'
p2247
I4406
sS'1hCw7Mr'
p2248
I1067
sS'V6CKma'
p2249
I4407
sS'1leq31Z'
p2250
I4409
sS'1snxR6K'
p2251
I2673
sS'1g2ZOuZ'
p2252
I446
sS'1jZdwhW'
p2253
I3238
sS'1hlFbFA'
p2254
I4169
sS'1ggWx6b'
p2255
I3233
sS'1j2derF'
p2256
I4413
sS'1nVfBvX'
p2257
I4415
sS'1pCDyrT'
p2258
I1038
sS'1lPn24v'
p2259
I1962
sS'1nA9srw'
p2260
I4265
sS'1ghHize'
p2261
I3156
sS'1nh2ybm'
p2262
I347
sS'1q7Jg6k'
p2263
I3822
sS'1k6aMiM'
p2264
I3295
sS'1gf4CNP'
p2265
I2402
sS'1pCYbEi'
p2266
I1248
sS'1o0ikUc'
p2267
I2631
sS'1mzHzK4'
p2268
I602
sS'1rpyzKR'
p2269
I5965
sS'T7YPz3'
p2270
I2319
sS'1pxM77s'
p2271
I4424
sS'1iLbP37'
p2272
I4425
sS'SCfpXn'
p2273
I1307
sS'1lMNq1E'
p2274
I959
sS'1vONq6A'
p2275
I3084
sS'1sCDVoC'
p2276
I5076
sS'1hlF9h3'
p2277
I4426
sS'1h47t7y'
p2278
I2130
sS'1sMWQgk'
p2279
I3049
sS'1oLWrs4'
p2280
I4429
sS'1hsfYt0'
p2281
I4430
sS'1mAHjw6'
p2282
I3016
sS'1lXB2KT'
p2283
I2909
sS'1qkJTfh'
p2284
I3410
sS'1n5Ekg7'
p2285
I4431
sS'1hdAbbM'
p2286
I4173
sS'1n6YzdZ'
p2287
I19
sS'1pSnvGW'
p2288
I4765
sS'1nVNc8D'
p2289
I3402
sS'1ncqY0W'
p2290
I1557
sS'1isaNsp'
p2291
I1926
sS'1orPuiO'
p2292
I4087
sS'1jTV07p'
p2293
I4432
sS'1iFnu83'
p2294
I3573
sS'1mRagrA'
p2295
I4434
sS'1n1CLzt'
p2296
I122
sS'1pp8izH'
p2297
I5491
sS'1jniSDY'
p2298
I4436
sS'1kxQKtM'
p2299
I6132
sS'1kDxQ6q'
p2300
I4438
sS'1gb2835'
p2301
I4440
sS'1jqwtGj'
p2302
I2843
sS'1kelpfo'
p2303
I2924
sS'1oYiJqt'
p2304
I4454
sS'1n8HKOL'
p2305
I654
sS'T9GTnI'
p2306
I1418
sS'1h9Bmc4'
p2307
I4456
sS'1lgJmmV'
p2308
I2426
sS'TlwOEY'
p2309
I4458
sS'1jrHW8b'
p2310
I3569
sS'1kPtVU6'
p2311
I4611
sS'1o5cRyH'
p2312
I3592
sS'1jOaWr3'
p2313
I1917
sS'1l1kwfi'
p2314
I4459
sS'1kx7UfS'
p2315
I4460
sS'1lltlAI'
p2316
I4461
sS'1lrXTAR'
p2317
I4462
sS'1oxHiOd'
p2318
I810
sS'1gxY50S'
p2319
I32
sS'1lLKNQ1'
p2320
I1888
sS'1gslhxL'
p2321
I1889
sS'1msF5ka'
p2322
I2696
sS'UcoKH7'
p2323
I6476
sS'1k8oGmi'
p2324
I1021
sS'1hilNyV'
p2325
I2907
sS'1k1QaUE'
p2326
I227
sS'1mzp2Q1'
p2327
I4463
sS'1sEcISm'
p2328
I3176
sS'1kxpopk'
p2329
I1956
sS'TC4mhE'
p2330
I4464
sS'1jXU8U6'
p2331
I3714
sS'1nUoyEU'
p2332
I391
sS'1kCTd7K'
p2333
I2943
sS'1vhI4Aq'
p2334
I5555
sS'1hgcr6I'
p2335
I1093
sS'1qqF1Dd'
p2336
I5357
sS'1kYYSs1'
p2337
I4466
sS'1gpKklk'
p2338
I4468
sS'1lXq6zb'
p2339
I1931
sS'1m5odjR'
p2340
I3089
sS'1kPRwXR'
p2341
I4469
sS'1hhGXND'
p2342
I2552
sS'1oVOsZn'
p2343
I4470
sS'1hhUrDC'
p2344
I1979
sS'1gnTj6i'
p2345
I2164
sS'1pywblg'
p2346
I4483
sS'1hHMomV'
p2347
I4484
sS'1rLA8F3'
p2348
I4485
sS'1wMMTCH'
p2349
I4486
sS'Q1aWw3'
p2350
I4487
sS'1jpdG2b'
p2351
I5565
sS'1hYtJzL'
p2352
I4488
sS'1ncu84M'
p2353
I724
sS'1lFySTF'
p2354
I1922
sS'1tN0g1k'
p2355
I6230
sS'1oM3wt5'
p2356
I444
sS'1h1Vbwi'
p2357
I6160
sS'1f7ZjQ4'
p2358
I4496
sS'QZVQrg'
p2359
I4006
sS'1ppJfMS'
p2360
I3773
sS'1hlTiuK'
p2361
I2723
sS'1oroSyF'
p2362
I6676
sS'1qAey3G'
p2363
I4504
sS'1hlzV4V'
p2364
I4509
sS'1jfdCTT'
p2365
I4511
sS'TSsvkp'
p2366
I901
sS'1fChGwR'
p2367
I4513
sS'1pp0u0S'
p2368
I1789
sS'Ty6ZAY'
p2369
I1792
sS'1pkrZWg'
p2370
I2507
sS'1i5Rc5V'
p2371
I4515
sS'RZ7jrv'
p2372
I761
sS'1m1QUPh'
p2373
I3775
sS'UG13af'
p2374
I4517
sS'1oKN6Us'
p2375
I4028
sS'1l8QT7n'
p2376
I4273
sS'1lvcfQ4'
p2377
I5708
sS'1oyKNDL'
p2378
I6312
sS'1l2rtZ4'
p2379
I1366
sS'1jhjGuY'
p2380
I4521
sS'1qvV7v9'
p2381
I1000
sS'1kA8eKO'
p2382
I1884
sS'1iP59AP'
p2383
I4522
sS'1lyNLqh'
p2384
I4523
sS'Uwkd2j'
p2385
I204
sS'1lyNLqa'
p2386
I4525
sS'1lPKAcR'
p2387
I3609
sS'1nPo2v6'
p2388
I2878
sS'1gS7LU8'
p2389
I2534
sS'1kt6pMm'
p2390
I4150
sS'T0uv9H'
p2391
I62
sS'1fNrCDG'
p2392
I4706
sS'1hoSXHK'
p2393
I4530
sS'1gg8caA'
p2394
I6478
sS'UMhNwP'
p2395
I4531
sS'1if55OT'
p2396
I4532
sS'1lQFUpA'
p2397
I4533
sS'1gulXTb'
p2398
I2717
sS'1mXY6v2'
p2399
I4536
sS'1gf27LZ'
p2400
I4537
sS'1oQIGbF'
p2401
I4538
sS'1nCEGfv'
p2402
I4539
sS'1guHqMc'
p2403
I3031
sS'1ioArF6'
p2404
I4541
sS'1nR0Z37'
p2405
I4542
sS'1oNzc0E'
p2406
I2054
sS'1qfLMaC'
p2407
I5411
sS'1lyUccX'
p2408
I4546
sS'1gCWGX1'
p2409
I1124
sS'1lN3Gfx'
p2410
I2788
sS'1iG4eCO'
p2411
I4549
sS'1iRPTbc'
p2412
I3577
sS'1fVmiIY'
p2413
I3117
sS'1k0anLy'
p2414
I4550
sS'1vB4DAm'
p2415
I199
sS'1nWXhli'
p2416
I5037
sS'1opThgR'
p2417
I3563
sS'1nz3xkq'
p2418
I4556
sS'1inSqvH'
p2419
I4557
sS'1ja4CtD'
p2420
I4558
sS'RhlK9P'
p2421
I854
sS'1dj0mc7'
p2422
I2897
sS'1nRJWe9'
p2423
I4268
sS'1jl2LXD'
p2424
I56
sS'SvqM3I'
p2425
I4319
sS'TsP0vG'
p2426
I4560
sS'1npc8bp'
p2427
I677
sS'1goujvO'
p2428
I5322
sS'1tBUnnE'
p2429
I4563
sS'1kIcUyj'
p2430
I1537
sS'1iaY6qc'
p2431
I1575
sS'1nK4kRf'
p2432
I3580
sS'1kHdMQY'
p2433
I4568
sS'1nUbzTH'
p2434
I4498
sS'1mn3N5c'
p2435
I1932
sS'1s7l603'
p2436
I4031
sS'1nVmkbV'
p2437
I4572
sS'1pIl7Dc'
p2438
I4111
sS'1hfNQPr'
p2439
I5001
sS'1f5UV3L'
p2440
I5960
sS'1myzDLn'
p2441
I908
sS'1lBPqYM'
p2442
I4574
sS'1gh2Cog'
p2443
I3472
sS'1o0LmXd'
p2444
I4405
sS'1mmEgMP'
p2445
I1174
sS'1hF0mYO'
p2446
I187
sS'1rNfr9S'
p2447
I4585
sS'1mx33ax'
p2448
I2182
sS'1o6iLQc'
p2449
I1043
sS'1mgW3jB'
p2450
I1475
sS'UAWPAT'
p2451
I4589
sS'1goctcb'
p2452
I4475
sS'RiaB94'
p2453
I2050
sS'1oN56xH'
p2454
I3219
sS'1jNV8Va'
p2455
I3963
sS'1uDiFkm'
p2456
I2940
sS'1oz7ZAD'
p2457
I266
sS'1kMXQdZ'
p2458
I1422
sS'1kWCks0'
p2459
I2219
sS'1qXcOHw'
p2460
I586
sS'1jJQ2Jr'
p2461
I1261
sS'1mw9mgJ'
p2462
I3305
sS'1kVT8w0'
p2463
I3514
sS'1gXzu0D'
p2464
I4640
sS'1pF87Ar'
p2465
I4641
sS'RC8Hjq'
p2466
I678
sS'1o1MiHj'
p2467
I1169
sS'1jR1E1T'
p2468
I3882
sS'1qsNMfV'
p2469
I1562
sS'1sZNOLb'
p2470
I3549
sS'UpCtdp'
p2471
I4646
sS'1iKkin6'
p2472
I4198
sS'Smd6b2'
p2473
I4621
sS'1hHFJ8O'
p2474
I2385
sS'1hnHEz2'
p2475
I5093
sS'UCfnkd'
p2476
I4648
sS'1nIDWGj'
p2477
I819
sS'1pjXK1Z'
p2478
I4649
sS'1p67aOo'
p2479
I112
sS'1lAJ4LC'
p2480
I4653
sS'1gjdEtl'
p2481
I4654
sS'1gqiZiv'
p2482
I1601
sS'1mP3V0Q'
p2483
I4655
sS'1lW1ANZ'
p2484
I5416
sS'TpESUE'
p2485
I1777
sS'1jwojfl'
p2486
I5
sS'1owVqnv'
p2487
I2977
sS'1gwSKqB'
p2488
I4657
sS'1lybjdR'
p2489
I1090
sS'1kyHr1u'
p2490
I3524
sS'1fKGp1L'
p2491
I4658
sS'1ggXUag'
p2492
I6557
sS'1cGL96Q'
p2493
I2566
sS'1lEdFXZ'
p2494
I1477
sS'1jpClDq'
p2495
I4659
sS'UZEtT1'
p2496
I4500
sS'1odHXnQ'
p2497
I338
sS'1gQ6ere'
p2498
I4660
sS'VosqWH'
p2499
I5727
sS'1kKmmOt'
p2500
I2095
sS'19UO46y'
p2501
I4663
sS'1p2LVQL'
p2502
I4664
sS'UtR6N1'
p2503
I3728
sS'1nSGbWy'
p2504
I4670
sS'1jnlopg'
p2505
I4671
sS'1hS57bV'
p2506
I2478
sS'1krqnWA'
p2507
I70
sS'VrtU2B'
p2508
I4690
sS'1tHa0KD'
p2509
I4693
sS'1hqRMYf'
p2510
I1328
sS'1mLgHJ9'
p2511
I4694
sS'1ogqZDe'
p2512
I4695
sS'1tBiGSO'
p2513
I4697
sS'1kFrxCy'
p2514
I4698
sS'QA0I6f'
p2515
I4701
sS'1kvjEdV'
p2516
I4593
sS'1lmsqjB'
p2517
I4702
sS'1nyBGUu'
p2518
I1320
sS'SH5D6u'
p2519
I3876
sS'1iHQwPI'
p2520
I2682
sS'1scXOU3'
p2521
I3889
sS'1jUAUJh'
p2522
I4704
sS'1h8G0lb'
p2523
I964
sS'1pcJ0T8'
p2524
I4708
sS'1rHeKyS'
p2525
I4709
sS'1kU6fhk'
p2526
I3470
sS'1ljv4lF'
p2527
I4710
sS'1m3zSQL'
p2528
I4711
sS'1hOWaUy'
p2529
I3932
sS'1kEvyT5'
p2530
I3934
sS'1nz8ay0'
p2531
I2758
sS'1gfgEad'
p2532
I4715
sS'1fKm7FJ'
p2533
I1107
sS'1prSzjB'
p2534
I4719
sS'1poszFE'
p2535
I233
sS'1o7YbyS'
p2536
I4720
sS'1h1lGCe'
p2537
I1602
sS'1hqFm2m'
p2538
I4721
sS'1kuPgF9'
p2539
I1793
sS'1vEFWD6'
p2540
I1472
sS'1tFHcSL'
p2541
I2336
sS'1nTnbGI'
p2542
I4724
sS'RmP3Z1'
p2543
I2092
sS'1mXiwCK'
p2544
I4726
sS'1trBJyK'
p2545
I4727
sS'1m3w3uO'
p2546
I4608
sS'1pLXsRN'
p2547
I4728
sS'1krDSWj'
p2548
I197
sS'1mqS1Wg'
p2549
I3197
sS'1qqEqTX'
p2550
I1806
sS'1iH6xFG'
p2551
I4732
sS'1q8jXRB'
p2552
I738
sS'1vSGaXg'
p2553
I2382
sS'1k977m7'
p2554
I442
sS'1gBZDHm'
p2555
I4734
sS'1j2HGfH'
p2556
I354
sS'1kLr8Kp'
p2557
I3285
sS'TuY2bD'
p2558
I736
sS'1ktz327'
p2559
I4138
sS'RVIGws'
p2560
I4736
sS'V7digv'
p2561
I3404
sS'1ga6OWY'
p2562
I2134
sS'1oRgf0g'
p2563
I3326
sS'1hnlOvx'
p2564
I1783
sS'1l3KcHD'
p2565
I4853
sS'1kZukGy'
p2566
I4742
sS'1rqLU7c'
p2567
I4743
sS'1jdW6L4'
p2568
I31
sS'1j7LsWH'
p2569
I4745
sS'1m3O3UP'
p2570
I4571
sS'1hiPt9s'
p2571
I3619
sS'1j47NHS'
p2572
I1784
sS'1mt8id1'
p2573
I2512
sS'1lt0ElD'
p2574
I4748
sS'1jukRq8'
p2575
I4749
sS'1kZZF96'
p2576
I4627
sS'QBxlAd'
p2577
I4750
sS'1gXEB0C'
p2578
I2592
sS'1kGJzAZ'
p2579
I4231
sS'1j300Ku'
p2580
I4243
sS'1hRDboG'
p2581
I1480
sS'1tEkV7D'
p2582
I4683
sS'1pseXt0'
p2583
I1718
sS'1mXtBqL'
p2584
I4757
sS'1qNqune'
p2585
I4758
sS'1kY1J4D'
p2586
I4759
sS'1qHwCyq'
p2587
I1454
sS'1kHDhUV'
p2588
I4393
sS'1hEqiy4'
p2589
I4417
sS'1net802'
p2590
I1812
sS'1jGu8MN'
p2591
I195
sS'Qe3r59'
p2592
I4762
sS'1ivEk8l'
p2593
I5439
sS'1mSnuRc'
p2594
I4766
sS'1qKXcXg'
p2595
I430
sS'1m6Z8o3'
p2596
I2102
sS'1rtDGLE'
p2597
I6373
sS'1nViFr4'
p2598
I4778
sS'1mLvjrH'
p2599
I3754
sS'1kMmiOa'
p2600
I3909
sS'1iDHvHy'
p2601
I584
sS'1h7fx6m'
p2602
I5659
sS'1iPzO5I'
p2603
I2087
sS'1ghPsaL'
p2604
I4779
sS'1lGspIZ'
p2605
I4780
sS'1krZ4kt'
p2606
I334
sS'1uxLFKg'
p2607
I4781
sS'1l0Env8'
p2608
I4928
sS'1l0Env6'
p2609
I4782
sS'1mLMPvX'
p2610
I1281
sS'1ndNlnm'
p2611
I1325
sS'1tBo2gI'
p2612
I3979
sS'1pHYYo3'
p2613
I2057
sS'Urlub2'
p2614
I2459
sS'1x92zAc'
p2615
I4788
sS'1pyvQlV'
p2616
I1360
sS'1pU7tfM'
p2617
I4789
sS'1jwqRib'
p2618
I5354
sS'1iOzF2t'
p2619
I4791
sS'1pnANxC'
p2620
I118
sS'1kU3TC6'
p2621
I4794
sS'1ojG7lv'
p2622
I4408
sS'1gchTSf'
p2623
I759
sS'1mrPXx1'
p2624
I4795
sS'1yoZm02'
p2625
I4269
sS'1k6lvG0'
p2626
I589
sS'1oTfJ0E'
p2627
I4800
sS'1ogST1X'
p2628
I4801
sS'1kxeNOg'
p2629
I4802
sS'1gXP7VO'
p2630
I835
sS'1q9Mrgm'
p2631
I4528
sS'RRFm51'
p2632
I356
sS'1qaJ4Do'
p2633
I4808
sS'1ilJAvR'
p2634
I3180
sS'1pwldO0'
p2635
I4834
sS'1izupMF'
p2636
I594
sS'1pDPie5'
p2637
I5810
sS'QmuCKW'
p2638
I4190
sS'1lK0eTu'
p2639
I4607
sS'1l4HvkU'
p2640
I4140
sS'1mFL87V'
p2641
I2548
sS'1mSvNfQ'
p2642
I4839
sS'1mVCkLl'
p2643
I828
sS'1fS4DBR'
p2644
I2135
sS'QFiyon'
p2645
I2392
sS'1q1dXKz'
p2646
I3069
sS'1vMAtKF'
p2647
I91
sS'1pNGaqc'
p2648
I902
sS'1mVZu3d'
p2649
I4840
sS'1jhXmgk'
p2650
I1933
sS'UmMoR8'
p2651
I2764
sS'1kTOAJT'
p2652
I3638
sS'1n8VbiE'
p2653
I4842
sS'1gkFfKC'
p2654
I3234
sS'1qbUhWD'
p2655
I52
sS'1pFs1bQ'
p2656
I798
sS'1oHEwWK'
p2657
I4843
sS'1g18qgp'
p2658
I4716
sS'1hwlTly'
p2659
I5909
sS'1l85sts'
p2660
I4887
sS'1myDGoN'
p2661
I4847
sS'1fDpzSj'
p2662
I3111
sS'1n92Tf9'
p2663
I4848
sS'1kBpKhO'
p2664
I4849
sS'1gysZko'
p2665
I4896
sS'1jM9Wbi'
p2666
I474
sS'1gEJiwa'
p2667
I4992
sS'1kv8ivc'
p2668
I1900
sS'1w06RIO'
p2669
I1343
sS'1o10rED'
p2670
I5906
sS'1h4i4iK'
p2671
I4850
sS'1pxLNci'
p2672
I4851
sS'1q2WyAy'
p2673
I4854
sS'1shNh9T'
p2674
I4855
sS'1jfRx2G'
p2675
I477
sS'1h4BqnU'
p2676
I4857
sS'1jb3Ime'
p2677
I1526
sS'17TFmZS'
p2678
I2550
sS'1nTrV0M'
p2679
I4858
sS'1piyvgq'
p2680
I1329
sS'1x5bZNc'
p2681
I4859
sS'1hRdH0A'
p2682
I4963
sS'1vumybK'
p2683
I4862
sS'1h6mNk7'
p2684
I4863
sS'UHdZwy'
p2685
I3040
sS'1k3Pamn'
p2686
I4865
sS'1h9PHQm'
p2687
I4631
sS'1tJLsAz'
p2688
I4866
sS'1kxUyQu'
p2689
I3763
sS'1kPggee'
p2690
I2714
sS'1lVatJ1'
p2691
I4867
sS'1gsJfU5'
p2692
I4868
sS'1ih9Jyl'
p2693
I1372
sS'1sd3BsK'
p2694
I4869
sS'1lF3UKy'
p2695
I1961
sS'1ka36fM'
p2696
I1829
sS'1oeN05W'
p2697
I3671
sS'1p6zy4F'
p2698
I4882
sS'1cm7k1o'
p2699
I4883
sS'1tLxG3e'
p2700
I5741
sS'1gw4VUW'
p2701
I1923
sS'1ijyfwy'
p2702
I2869
sS'1oSayMA'
p2703
I1816
sS'1gEMsD4'
p2704
I4885
sS'QeORKs'
p2705
I1463
sS'1kEHicR'
p2706
I276
sS'1lwE9YF'
p2707
I5317
sS'1nXy79K'
p2708
I1095
sS'1sp5rpt'
p2709
I3183
sS'1rkR3O8'
p2710
I4886
sS'1hs6eiM'
p2711
I2293
sS'1hXmzl9'
p2712
I4888
sS'1nWGnU2'
p2713
I2044
sS'1pnIfWz'
p2714
I4889
sS'1gl22Gw'
p2715
I838
sS'1kxYoJm'
p2716
I1536
sS'1o4bosv'
p2717
I5325
sS'RJMBwh'
p2718
I841
sS'1jwMD0A'
p2719
I3690
sS'1jjkIpr'
p2720
I4586
sS'1o1ZHkH'
p2721
I3053
sS'1pzomvQ'
p2722
I5102
sS'1kAACxQ'
p2723
I4891
sS'1urJs34'
p2724
I4603
sS'1fK2mJ2'
p2725
I4892
sS'1hanuc9'
p2726
I5111
sS'1q0cE1y'
p2727
I3350
sS'1gzY50y'
p2728
I4894
sS'U8dHhQ'
p2729
I4895
sS'1kWPtkS'
p2730
I1523
sS'1qyA9eo'
p2731
I4085
sS'1l3S2BI'
p2732
I6185
sS'1hqc9Vg'
p2733
I3491
sS'1j6cVtl'
p2734
I4897
sS'1pDegKH'
p2735
I2356
sS'1nZqy0F'
p2736
I1212
sS'1pNmFOs'
p2737
I1347
sS'1kpMZL9'
p2738
I4902
sS'1l93T1s'
p2739
I4903
sS'1ozyvIF'
p2740
I4904
sS'1gT3Hhi'
p2741
I1635
sS'1mjEttn'
p2742
I4905
sS'1lyWBDN'
p2743
I3543
sS'1iHdmIt'
p2744
I1958
sS'1iOYIOa'
p2745
I1054
sS'1sqWlGY'
p2746
I2771
sS'1kDh4UQ'
p2747
I4908
sS'1mfINNR'
p2748
I5203
sS'QNGaHu'
p2749
I4547
sS'1jyByfv'
p2750
I1313
sS'1pYLmpc'
p2751
I4916
sS'1kD3VLB'
p2752
I1154
sS'1lVc5BI'
p2753
I3193
sS'1iErKAf'
p2754
I4999
sS'1m1hWpr'
p2755
I1239
sS'1ocAR31'
p2756
I4266
sS'1kWiZCJ'
p2757
I1348
sS'1mhJCSQ'
p2758
I625
sS'1w3ShB3'
p2759
I3118
sS'1jAKrG8'
p2760
I4927
sS'1hlso69'
p2761
I1603
sS'1i5sTAF'
p2762
I5963
sS'1oyZoPG'
p2763
I4684
sS'1p8hjtA'
p2764
I4835
sS'1iN38VQ'
p2765
I6626
sS'1opUPrb'
p2766
I3437
sS'1jNsfOB'
p2767
I3242
sS'1jCoC8k'
p2768
I4929
sS'n4EiD4'
p2769
I4453
sS'1gtteCY'
p2770
I4931
sS'1jbQEaw'
p2771
I4932
sS'1qWDYgt'
p2772
I4939
sS'1f6CzQB'
p2773
I4940
sS'1qLuvbL'
p2774
I4669
sS'1iLoyn6'
p2775
I6285
sS'1iVVUnm'
p2776
I2386
sS'1uWVJKk'
p2777
I751
sS'1tydpLF'
p2778
I3570
sS'1ijjB8c'
p2779
I4944
sS'1nIV6Uf'
p2780
I411
sS'1jOpebd'
p2781
I4945
sS'1nMfT7J'
p2782
I4946
sS'1rBD8Hv'
p2783
I113
sS'R9ZkYa'
p2784
I4947
sS'1k1kz5I'
p2785
I1116
sS'1qqhV1A'
p2786
I4948
sS'1sx6bfN'
p2787
I1807
sS'1iYcOBq'
p2788
I683
sS'1ky5ApR'
p2789
I4952
sS'1i3NXr5'
p2790
I3405
sS'1hscWEX'
p2791
I4954
sS'1iIBkSq'
p2792
I3824
sS'1hshsn3'
p2793
I5191
sS'TCPrV5'
p2794
I3072
sS'1h1mZRx'
p2795
I4956
sS'1hsBNJ0'
p2796
I3105
sS'1n6hEiT'
p2797
I134
sS'1j2Lopb'
p2798
I3322
sS'1iMwTXP'
p2799
I1590
sS'1rOztpM'
p2800
I10
sS'1qsThKP'
p2801
I2462
sS'1l7GXQ6'
p2802
I5505
sS'1hofjZL'
p2803
I1337
sS'1kZ0nXm'
p2804
I3629
sS'1qvQ6F6'
p2805
I4961
sS'1msG0O5'
p2806
I4962
sS'1jKVFr1'
p2807
I4639
sS'1fPWa7y'
p2808
I4964
sS'1obaoTn'
p2809
I4965
sS'1koc8RV'
p2810
I260
sS'1l4UxPr'
p2811
I1524
sS'TwbImI'
p2812
I4966
sS'1lnxHaN'
p2813
I6197
sS'1qwWlbC'
p2814
I4326
sS'1nOSTG0'
p2815
I5181
sS'1lpoFoy'
p2816
I4026
sS'1pz8wkE'
p2817
I2305
sS'1hde4fv'
p2818
I3585
sS'1yTTFHL'
p2819
I4970
sS'1kUuBcr'
p2820
I2438
sS'1kNHaaZ'
p2821
I5676
sS'1mg1O3q'
p2822
I4389
sS'1kSKCwl'
p2823
I4971
sS'1ww1MJm'
p2824
I44
sS'1z0XRFV'
p2825
I4972
sS'1mny00y'
p2826
I4973
sS'1pL3GEl'
p2827
I2358
sS'1jDd4Bj'
p2828
I4974
sS'V7w0V7'
p2829
I3445
sS'1kitpfj'
p2830
I4103
sS'1kzv0Ou'
p2831
I3152
sS'1r4K9iG'
p2832
I13
sS'1k6OBur'
p2833
I1619
sS'1k39kzr'
p2834
I2344
sS'1jrV5OC'
p2835
I4978
sS'1nFHB5Q'
p2836
I6546
sS'1jzLR2p'
p2837
I4981
sS'QETA8z'
p2838
I4091
sS'1h4xnIn'
p2839
I5336
sS'1p21HeF'
p2840
I1471
sS'1fLzpSt'
p2841
I3215
sS'1jQqpuL'
p2842
I3733
sS'UUKLu0'
p2843
I5904
sS'1qx0mgo'
p2844
I4342
sS'1lFpspR'
p2845
I4829
sS'1kcMp30'
p2846
I4985
sS'Tsb9eq'
p2847
I2471
sS'1tAzAkn'
p2848
I3059
sS'R4wYPl'
p2849
I462
sS'1gyRp2w'
p2850
I2309
sS'1i5udKt'
p2851
I526
sS'1bf8qWF'
p2852
I1916
sS'1oPNuie'
p2853
I5802
sS'1p0GPW2'
p2854
I2360
sS'Swy4E6'
p2855
I621
sS'1iaOGXo'
p2856
I4988
sS'1grnEkk'
p2857
I4989
sS'1oC8rPZ'
p2858
I4990
sS'1iO27BI'
p2859
I5089
sS'1jdJpVi'
p2860
I4991
sS'1gzCxB1'
p2861
I2593
sS'1qpgSiQ'
p2862
I3730
sS'1n5fufK'
p2863
I61
sS'1i2QkKz'
p2864
I4995
sS'1sS2T3j'
p2865
I60
sS'1lcgK2X'
p2866
I4996
sS'1sCnKHI'
p2867
I3227
sS'1jBtvEn'
p2868
I5852
sS'1tzLStp'
p2869
I4997
sS'1pFoJVZ'
p2870
I1375
sS'1lOq34Y'
p2871
I3170
sS'1i053XN'
p2872
I587
sS'1yolTu8'
p2873
I479
sS'1nKz9Er'
p2874
I5002
sS'1j74obm'
p2875
I5004
sS'1i8E4Iq'
p2876
I5005
sS'1gkNaIl'
p2877
I5006
sS'1dYfij0'
p2878
I5007
sS'1jerEoI'
p2879
I3444
sS'1pzcSIJ'
p2880
I5008
sS'1kwJ0Nm'
p2881
I3571
sS'1oUrRMP'
p2882
I4777
sS'1jcdUd6'
p2883
I2292
sS'1nx0gRg'
p2884
I2080
sS'1pbWDRH'
p2885
I6340
sS'1le2pxP'
p2886
I2607
sS'ToiD16'
p2887
I4386
sS'1gEK41z'
p2888
I5009
sS'1kNQQlt'
p2889
I5010
sS'1mZs7MS'
p2890
I5019
sS'1pN3f9x'
p2891
I3312
sS'1k2enKB'
p2892
I5012
sS'1qR2Ovt'
p2893
I42
sS'1eZWoca'
p2894
I5013
sS'SoMCpv'
p2895
I2984
sS'1qmnsXd'
p2896
I4632
sS'1l2sEYm'
p2897
I363
sS'1kJWCQO'
p2898
I5017
sS'1nk6yn0'
p2899
I2899
sS'TbYhIA'
p2900
I3352
sS'1oIrkh4'
p2901
I5020
sS'1j41W5b'
p2902
I4212
sS'1k9Wv54'
p2903
I1146
sS'1kJiqxo'
p2904
I311
sS'1ihu6ct'
p2905
I3308
sS'1g8JVDl'
p2906
I220
sS'1mV2PMt'
p2907
I4334
sS'1iNg6JH'
p2908
I353
sS'1nPOlA5'
p2909
I1657
sS'1h9s0Yv'
p2910
I5025
sS'1mrj1X4'
p2911
I5026
sS'1k7xW4d'
p2912
I4448
sS'1nQSGRG'
p2913
I2295
sS'1sILFFw'
p2914
I980
sS'1le1jCy'
p2915
I3483
sS'1jUBon3'
p2916
I4051
sS'1iwPnBp'
p2917
I3967
sS'1gXUwvQ'
p2918
I3104
sS'1lpPyfG'
p2919
I5028
sS'Uo8ClX'
p2920
I5034
sS'1pnJTLi'
p2921
I5035
sS'TKr1IW'
p2922
I255
sS'1qk8IWu'
p2923
I4503
sS'1hUEqH0'
p2924
I4831
sS'1jKMMgV'
p2925
I1614
sS'1mskbhz'
p2926
I6210
sS'1kPFq0N'
p2927
I6135
sS'1kG8Ds3'
p2928
I5038
sS'1jlZabF'
p2929
I3138
sS'1pFCIf7'
p2930
I5039
sS'1lVmq2g'
p2931
I5040
sS'1p0ObYy'
p2932
I3562
sS'1jvocpX'
p2933
I5042
sS'1kFlBGr'
p2934
I1530
sS'1fBdqNZ'
p2935
I3163
sS'1kLtbj9'
p2936
I5043
sS'1l039r5'
p2937
I5044
sS'1q4v6Fm'
p2938
I2009
sS'1oLJOR4'
p2939
I4797
sS'1ppFpU9'
p2940
I203
sS'1pHUKQ6'
p2941
I1470
sS'1l9c09y'
p2942
I1970
sS'RHInF7'
p2943
I239
sS'1jhQIoY'
p2944
I2205
sS'1iDwYxr'
p2945
I6019
sS'1loHxr8'
p2946
I1527
sS'1hJFcJk'
p2947
I535
sS'QesC7u'
p2948
I1473
sS'1gR3wbn'
p2949
I3624
sS'1mKh32v'
p2950
I5047
sS'1gXTi3X'
p2951
I5049
sS'1f3HHPK'
p2952
I5050
sS'Pod6WN'
p2953
I5054
sS'1nUMfPg'
p2954
I5056
sS'1kWZbiS'
p2955
I2424
sS'1mVHu5M'
p2956
I1142
sS'1o2PrXe'
p2957
I5094
sS'SGfxFX'
p2958
I2000
sS'1gwfPtv'
p2959
I5059
sS'1ttZ1px'
p2960
I2651
sS'1kiTPzf'
p2961
I3575
sS'1heYTZt'
p2962
I658
sS'1ghqpVk'
p2963
I5319
sS'1m35GEV'
p2964
I401
sS'1ppXWiV'
p2965
I6268
sS'1guwZId'
p2966
I4244
sS'1kwZ5lX'
p2967
I5061
sS'1hSPUey'
p2968
I5064
sS'1iTA7fV'
p2969
I1500
sS'1kvCVAO'
p2970
I5065
sS'1qmBCY9'
p2971
I4984
sS'1j8R5qP'
p2972
I958
sS'1hnJSUZ'
p2973
I5066
sS'1lYUp4I'
p2974
I3192
sS'1gokYDX'
p2975
I5706
sS'1m5pjh1'
p2976
I5069
sS'1jTGelN'
p2977
I3262
sS'1bixsIy'
p2978
I6309
sS'1mSWy3J'
p2979
I5072
sS'1qu7Y34'
p2980
I5075
sS'1kyTaNB'
p2981
I6335
sS'1kW00d2'
p2982
I5077
sS'1mwYH55'
p2983
I4976
sS'1gfJ9EJ'
p2984
I5731
sS'1qtHJe5'
p2985
I3076
sS'1lX66M4'
p2986
I1032
sS'1hzHgOf'
p2987
I5080
sS'1jenPQz'
p2988
I5081
sS'1kPAzNi'
p2989
I4890
sS'1tJfzbo'
p2990
I5082
sS'1iSEbYM'
p2991
I951
sS'1oK1Tfm'
p2992
I1677
sS'1kNiVtn'
p2993
I1363
sS'1lPwzfA'
p2994
I688
sS'1jCmEES'
p2995
I2058
sS'1rlbk6B'
p2996
I5085
sS'1tMkFDR'
p2997
I4097
sS'RRlTBL'
p2998
I1967
sS'1oB8OtS'
p2999
I2577
sS'14PrFGg'
p3000
I5086
sS'UQ4aw7'
p3001
I698
sS'1isisYJ'
p3002
I1136
sS'1jNEEfO'
p3003
I5087
sS'1iK55T9'
p3004
I4870
sS'Tvbr36'
p3005
I420
sS'1kOtxFv'
p3006
I6336
sS'1jNukEo'
p3007
I4899
sS'1jkDb01'
p3008
I4383
sS'1gDkxWu'
p3009
I5092
sS'ToLxOM'
p3010
I5095
sS'1ryfaJi'
p3011
I5098
sS'TvzpMb'
p3012
I4419
sS'1oRfdyf'
p3013
I4815
sS'1gSupGB'
p3014
I6184
sS'1qGhhKM'
p3015
I3858
sS'1jvoK9w'
p3016
I2625
sS'1msOjv4'
p3017
I330
sS'1mA13QY'
p3018
I1947
sS'1sOHd6n'
p3019
I3101
sS'1jielni'
p3020
I3311
sS'1k5q7wa'
p3021
I2353
sS'1nhDf4K'
p3022
I3310
sS'1gpMctO'
p3023
I1566
sS'1gcYYwb'
p3024
I1901
sS'1kXi7ke'
p3025
I2298
sS'1izrsPq'
p3026
I2211
sS'1pQdwSD'
p3027
I5103
sS'1ueDlhv'
p3028
I3564
sS'1m78ekK'
p3029
I2906
sS'1pWxMDI'
p3030
I1738
sS'UNufMp'
p3031
I504
sS'1g9QDcf'
p3032
I3527
sS'1lF5pZa'
p3033
I2691
sS'1qlSAWG'
p3034
I5110
sS'T3vjdH'
p3035
I3867
sS'1kyFYUd'
p3036
I6479
sS'1qyMLVU'
p3037
I4893
sS'1i8aHr5'
p3038
I613
sS'1pBr0Sy'
p3039
I5113
sS'1jpSl8t'
p3040
I3325
sS'1iJCKwc'
p3041
I6177
sS'1nrJ0Bd'
p3042
I3321
sS'1plhRQt'
p3043
I1369
sS'1wugMaH'
p3044
I552
sS'1oyIYnj'
p3045
I402
sS'1qd3lKM'
p3046
I5115
sS'1iCdjga'
p3047
I5952
sS'1p6FpIT'
p3048
I263
sS'1p8850p'
p3049
I3866
sS'SY4tnP'
p3050
I66
sS'1p4qj6B'
p3051
I6124
sS'1ftRYrN'
p3052
I5091
sS'1pbdswN'
p3053
I5118
sS'1va9Xrx'
p3054
I1338
sS'1mBQ7Dy'
p3055
I1998
sS'SLvOc4'
p3056
I2931
sS'1uFuwyA'
p3057
I5126
sS'1mt5Bd5'
p3058
I719
sS'1ikhpik'
p3059
I5131
sS'1ojVN8u'
p3060
I2836
sS'1ngtRj4'
p3061
I1350
sS'1rENVuZ'
p3062
I1739
sS'1pg7Iks'
p3063
I6290
sS'1gBuKCY'
p3064
I5132
sS'1kZOiRk'
p3065
I2192
sS'UOa55b'
p3066
I5133
sS'1kJtI80'
p3067
I1197
sS'1o1PCWj'
p3068
I5736
sS'1pJsLx6'
p3069
I3997
sS'1odtyrL'
p3070
I5135
sS'1x2kEyU'
p3071
I1084
sS'TawiZS'
p3072
I5230
sS'1g2cSeG'
p3073
I3246
sS'1oBwHl9'
p3074
I3767
sS'1jqSPMd'
p3075
I5137
sS'Sz1qSs'
p3076
I6599
sS'1hhOMTs'
p3077
I3065
sS'1kPhLZI'
p3078
I4763
sS'1qLmRhE'
p3079
I5141
sS'1pzfGoZ'
p3080
I5142
sS'1mvKyGP'
p3081
I2668
sS'1mB3X7J'
p3082
I4151
sS'1pVmhv7'
p3083
I1525
sS'1m8MpEi'
p3084
I5143
sS'1oUcDaO'
p3085
I1487
sS'1hyrbxY'
p3086
I528
sS'UqmonY'
p3087
I4582
sS'1nUMYjF'
p3088
I929
sS'U63Nh1'
p3089
I2401
sS'1pbiQPI'
p3090
I6542
sS'1kuMQGz'
p3091
I4070
sS'1iPJaK3'
p3092
I1786
sS'1gRoNSt'
p3093
I5145
sS'1h6sXAw'
p3094
I955
sS'1oTmkXc'
p3095
I2412
sS'UJhNNS'
p3096
I5836
sS'1nVakGU'
p3097
I5147
sS'SvttCh'
p3098
I5148
sS'1oxTrj6'
p3099
I2421
sS'1l7UFT3'
p3100
I4729
sS'1tJhyws'
p3101
I5150
sS'1o4e2eO'
p3102
I5813
sS'1nHlcGC'
p3103
I5151
sS'SPFKSU'
p3104
I674
sS'1qjEmpo'
p3105
I5153
sS'1uS6LDx'
p3106
I3263
sS'19rj8ua'
p3107
I1915
sS'1vuDPBH'
p3108
I4423
sS'U7sBoM'
p3109
I996
sS'1vuDPBD'
p3110
I5542
sS'1pJMwH0'
p3111
I5170
sS'1oZ275A'
p3112
I5171
sS'1hLBVJs'
p3113
I599
sS'1kbQxk2'
p3114
I3073
sS'1haDHUp'
p3115
I5172
sS'1p3p73t'
p3116
I2152
sS'1heirNo'
p3117
I3443
sS'1lmsLD1'
p3118
I934
sS'1miqXd2'
p3119
I5174
sS'1guQiKF'
p3120
I5176
sS'1jmzeZN'
p3121
I33
sS'SZANX5'
p3122
I3700
sS'TKQ5Id'
p3123
I5178
sS'R5CK3W'
p3124
I5179
sS'1ku4Ttp'
p3125
I5160
sS'1lpvWW6'
p3126
I5078
sS'1qLzfOQ'
p3127
I2413
sS'1qqQPbs'
p3128
I3812
sS'1hePIYw'
p3129
I2514
sS'1jtxVgh'
p3130
I950
sS'1jaJbyc'
p3131
I5180
sS'1opfQlw'
p3132
I5182
sS'UZ8c5H'
p3133
I5183
sS'1jd9teP'
p3134
I3407
sS'Hop79V'
p3135
I5857
sS'1ky4E0t'
p3136
I5129
sS'1pdOQUq'
p3137
I5185
sS'RatVEX'
p3138
I917
sS'1pEO4SE'
p3139
I5186
sS'1fp9bVI'
p3140
I637
sS'1q2bAtg'
p3141
I423
sS'1gYzwFi'
p3142
I5187
sS'Unhyb7'
p3143
I5188
sS'1mwKjNS'
p3144
I5189
sS'1fyc0hD'
p3145
I707
sS'1ylDSkI'
p3146
I459
sS'1jIdoza'
p3147
I4142
sS'1poHErX'
p3148
I2147
sS'1jEpGOw'
p3149
I5190
sS'1edL3Pk'
p3150
I2638
sS'1hvRQWe'
p3151
I4367
sS'1sPUr4z'
p3152
I2693
sS'1jEYvh2'
p3153
I3159
sS'1hTmfSc'
p3154
I3162
sS'1pdLCPz'
p3155
I4365
sS'1k3T8t1'
p3156
I2200
sS'1iQU4UD'
p3157
I5193
sS'1gcS1Lc'
p3158
I3186
sS'UzNM2Z'
p3159
I5194
sS'1gfm0lJ'
p3160
I5195
sS'1mVVOw7'
p3161
I5679
sS'1jWbAZc'
p3162
I5197
sS'1iKH0jM'
p3163
I5719
sS'1oUmRIB'
p3164
I5198
sS'1fSSnXA'
p3165
I3279
sS'1nKFiSc'
p3166
I5199
sS'1hhpFuq'
p3167
I2617
sS'1pjzC03'
p3168
I3495
sS'1lwHoPT'
p3169
I2289
sS'1hkiL7D'
p3170
I5157
sS'1hPmpfl'
p3171
I3424
sS'1kDwA6f'
p3172
I4442
sS'1rdNA3R'
p3173
I1205
sS'1hezq27'
p3174
I3614
sS'1lTeSYf'
p3175
I530
sS'1pJPD1A'
p3176
I4098
sS'1mvL2MJ'
p3177
I5208
sS'1jmoQpx'
p3178
I2895
sS'TEHQVx'
p3179
I2590
sS'1qpvN9s'
p3180
I5219
sS'1jgLsIb'
p3181
I6659
sS'1hte5SA'
p3182
I3280
sS'1juomZX'
p3183
I5122
sS'1psWwRR'
p3184
I5791
sS'1oYpOuH'
p3185
I734
sS'1nUYPfK'
p3186
I5226
sS'1gsYaTw'
p3187
I1196
sS'1gDtdvY'
p3188
I5227
sS'1mvKZiN'
p3189
I412
sS'1yVNMdj'
p3190
I5747
sS'1mihbGC'
p3191
I240
sS'V6YpuB'
p3192
I653
sS'1oROViw'
p3193
I2830
sS'1qie3Ra'
p3194
I998
sS'1jcUemg'
p3195
I5233
sS'1jdw9Qy'
p3196
I5234
sS'1loegi7'
p3197
I5235
sS'1ndZ1Ka'
p3198
I5236
sS'1k0l84k'
p3199
I5237
sS'1hRVEBB'
p3200
I815
sS'1nwgGL5'
p3201
I106
sS'1pXONi7'
p3202
I5241
sS'SJtbYb'
p3203
I116
sS'1hhQ6Ws'
p3204
I1322
sS'1tss2Af'
p3205
I1750
sS'1uqJ0lD'
p3206
I26
sS'ULfR7H'
p3207
I888
sS'1oDqmm0'
p3208
I6685
sS'1kB9vAW'
p3209
I3672
sS'1oCXHkl'
p3210
I3001
sS'1nmQ936'
p3211
I5243
sS'1m5fldf'
p3212
I1352
sS'1gEDxi3'
p3213
I1089
sS'1nSar2Y'
p3214
I3757
sS'1haksVi'
p3215
I5340
sS'1ll0AEo'
p3216
I1406
sS'1l6AaTD'
p3217
I5446
sS'1oRSXFn'
p3218
I3949
sS'QY8FCh'
p3219
I5246
sS'1jWGfog'
p3220
I4437
sS'1nbdoMJ'
p3221
I4814
sS'1pBLA82'
p3222
I4508
sS'1hufaEc'
p3223
I5253
sS'1n3idqm'
p3224
I3286
sS'1jNCYCO'
p3225
I181
sS'1pFlGyD'
p3226
I422
sS'1l1BOd8'
p3227
I5255
sS'1rOFjrb'
p3228
I400
sS'VAgwck'
p3229
I5256
sS'PqyGt8'
p3230
I5257
sS'1hspYCK'
p3231
I1891
sS'1jXi4lY'
p3232
I4507
sS'1kECC2m'
p3233
I127
sS'1ix2j4j'
p3234
I231
sS'1kyGLsb'
p3235
I3145
sS'1o5zKlN'
p3236
I2939
sS'1kxBfDJ'
p3237
I5260
sS'1sKZ8QM'
p3238
I609
sS'1kOd5DF'
p3239
I6708
sS'1gjQnHE'
p3240
I5261
sS'1jaFVCJ'
p3241
I3342
sS'1po4dJV'
p3242
I1140
sS'TgLp3Z'
p3243
I3045
sS'1p8CdsZ'
p3244
I3253
sS'82pMG1'
p3245
I5263
sS'1kdJwei'
p3246
I2615
sS'1grPg8U'
p3247
I6608
sS'1kreEMe'
p3248
I201
sS'1oL6Wxy'
p3249
I5467
sS'1kOEm8O'
p3250
I3772
sS'1huihfr'
p3251
I795
sS'1goHblD'
p3252
I6264
sS'1tKR8KP'
p3253
I5267
sS'1qa7SeR'
p3254
I5269
sS'1jyNXQE'
p3255
I5271
sS'1pt2VQk'
p3256
I5272
sS'1p9D2pn'
p3257
I511
sS'1gWhH9O'
p3258
I3038
sS'1oNU87I'
p3259
I4162
sS'1jlXcZK'
p3260
I3328
sS'1qs2o1C'
p3261
I2806
sS'1kW811p'
p3262
I5331
sS'1m4FQ2w'
p3263
I3177
sS'1luklZQ'
p3264
I1881
sS'1hyX6ZF'
p3265
I5274
sS'1ob3cFk'
p3266
I5276
sS'1jabBs6'
p3267
I4149
sS'1kL14Dy'
p3268
I5280
sS'1gBtsrr'
p3269
I988
sS'1lWGJtC'
p3270
I5277
sS'1oB07Qx'
p3271
I5154
sS'UGh2VL'
p3272
I928
sS'SpDlxK'
p3273
I5278
sS'1gHrFfl'
p3274
I1906
sS'1kZ7PjJ'
p3275
I2393
sS'1oOP9DO'
p3276
I5279
sS'1oZC4aZ'
p3277
I6337
sS'1k6ckWX'
p3278
I1202
sS'1kl66G6'
p3279
I6647
sS'1pPLYgM'
p3280
I4677
sS'1n2sLa6'
p3281
I1696
sS'SV0VmC'
p3282
I3270
sS'1kFtGhl'
p3283
I5281
sS'1kDKrYH'
p3284
I5644
sS'1j78k6M'
p3285
I509
sS'1k39TaV'
p3286
I3382
sS'1nSQRVn'
p3287
I5282
sS'1i5K6xz'
p3288
I5287
sS'RD9r81'
p3289
I2059
sS'1gPQKVk'
p3290
I1857
sS'UmPYe9'
p3291
I1087
sS'1qo31cz'
p3292
I5053
sS'1nRyMqJ'
p3293
I1918
sS'1vNVIM6'
p3294
I2094
sS'1h8DRWw'
p3295
I2366
sS'1tptIKM'
p3296
I5582
sS'1h9kHjk'
p3297
I5036
sS'1jI2PQP'
p3298
I4619
sS'1jTN3Up'
p3299
I3266
sS'1p3HdCS'
p3300
I5294
sS'1kycVoi'
p3301
I5295
sS'1nKG0Ne'
p3302
I910
sS'1mfze1w'
p3303
I1592
sS'1lccJeP'
p3304
I5299
sS'1iT4lQ7'
p3305
I2480
sS'UvPFO1'
p3306
I1742
sS'1qqbQT4'
p3307
I5304
sS'1n6dZBw'
p3308
I5306
sS'1pU4ioZ'
p3309
I4871
sS'1jTODVE'
p3310
I2461
sS'1jUTUgD'
p3311
I3294
sS'RnwALZ'
p3312
I5307
sS'1plA2Wl'
p3313
I2066
sS'1qkitGh'
p3314
I4628
sS'1oJW6qe'
p3315
I5308
sS'1oLJdQm'
p3316
I417
sS'1kYI1ma'
p3317
I3208
sS'1hHpMEj'
p3318
I5344
sS'YbGEWk'
p3319
I4204
sS'1g8t0RM'
p3320
I5345
sS'1kO3hta'
p3321
I4328
sS'1mkEIVl'
p3322
I5346
sS'1njQExB'
p3323
I97
sS'1odqV5Y'
p3324
I2541
sS'1iL2AVe'
p3325
I1
sS'1mgcfEM'
p3326
I5355
sS'POvqbb'
p3327
I5356
sS'1fVvnBv'
p3328
I1955
sS'1pvJkyz'
p3329
I5361
sS'1jdUjdG'
p3330
I5362
sS'1nNPdnY'
p3331
I193
sS'1mXvMav'
p3332
I1494
sS'1hWz949'
p3333
I6100
sS'1gceM23'
p3334
I5073
sS'1nZCjlY'
p3335
I5392
sS'TF1qBB'
p3336
I3108
sS'1tYaJau'
p3337
I4275
sS'1klrMlG'
p3338
I4596
sS'1wQrUik'
p3339
I605
sS'1plauIy'
p3340
I5240
sS'1pUgLeB'
p3341
I4029
sS'1hIuujL'
p3342
I5366
sS'1kTYrMA'
p3343
I5339
sS'1hrHgA3'
p3344
I3469
sS'1dnYbF9'
p3345
I5168
sS'1hoR2Ty'
p3346
I5368
sS'1k5usn0'
p3347
I5369
sS'1kTAU1B'
p3348
I4047
sS'1yiO3qj'
p3349
I650
sS'1mvnfNg'
p3350
I4347
sS'1pWemQS'
p3351
I5120
sS'1kk058z'
p3352
I2468
sS'1nOe9ed'
p3353
I5927
sS'1josnOz'
p3354
I5370
sS'1phwy3s'
p3355
I5371
sS'1nZIuGa'
p3356
I921
sS'1jIHNgo'
p3357
I194
sS'1ucmMRm'
p3358
I990
sS'RybXwL'
p3359
I1801
sS'1lJOSTJ'
p3360
I5372
sS'1gl5gJH'
p3361
I3158
sS'1hYccee'
p3362
I5373
sS'1iDQ7hi'
p3363
I3161
sS'1pFDb3p'
p3364
I5374
sS'1inT9KI'
p3365
I1022
sS'1nfmTgf'
p3366
I4604
sS'1g36Me9'
p3367
I5377
sS'1r8nymt'
p3368
I3172
sS'1iFMAQt'
p3369
I5378
sS'1gqHfB4'
p3370
I4752
sS'1rrBRPa'
p3371
I1693
sS'1kHaTCv'
p3372
I5379
sS'1hkGi8z'
p3373
I1379
sS'1n7fGMJ'
p3374
I5380
sS'1kCUn6z'
p3375
I4881
sS'1oRBGP4'
p3376
I2973
sS'1hBhWrr'
p3377
I246
sS'1nPXGa1'
p3378
I831
sS'1nPYC0p'
p3379
I5381
sS'1k3rbGn'
p3380
I1302
sS'1jsMbFg'
p3381
I5297
sS'1lRWtPY'
p3382
I3792
sS'1tUKVhe'
p3383
I4980
sS'1hKav0L'
p3384
I5383
sS'1lsQ4GB'
p3385
I2930
sS'1smLiyt'
p3386
I3223
sS'SlPUtC'
p3387
I1331
sS'1kFCtLw'
p3388
I4271
sS'1sEIO0f'
p3389
I6432
sS'1kJK4dI'
p3390
I1954
sS'TmcZNj'
p3391
I1833
sS'StMzsE'
p3392
I2449
sS'1knelgu'
p3393
I1729
sS'1vTFIYX'
p3394
I3416
sS'1gdA0MH'
p3395
I4344
sS'1lLvgtM'
p3396
I591
sS'Tq2Hvo'
p3397
I5386
sS'1qqABym'
p3398
I5387
sS'SbPx4m'
p3399
I4519
sS'1iuXvyg'
p3400
I4177
sS'1pWWO6V'
p3401
I2408
sS'1oImBfd'
p3402
I1746
sS'1lv7AcY'
p3403
I5390
sS'1kqZ146'
p3404
I1529
sS'1k2iGKy'
p3405
I407
sS'1lPh478'
p3406
I5391
sS'1nRTqHv'
p3407
I5529
sS'1kG7osU'
p3408
I2884
sS'1nS2Q4k'
p3409
I1845
sS'1vlIpPS'
p3410
I5399
sS'1jxBRf2'
p3411
I558
sS'1hh9kcg'
p3412
I4756
sS'1glVo2U'
p3413
I4907
sS'1hkGxQC'
p3414
I5401
sS'1roha6T'
p3415
I3370
sS'1l3A8ix'
p3416
I3455
sS'1nIo0nu'
p3417
I2850
sS'1hBkLZ1'
p3418
I5702
sS'1gwbfvT'
p3419
I6505
sS'1mslugt'
p3420
I1751
sS'1iwBpdg'
p3421
I1616
sS'1pCzNCX'
p3422
I5162
sS'1iTPx5L'
p3423
I1656
sS'1gtBfYJ'
p3424
I3750
sS'1oMspJ7'
p3425
I5104
sS'1jELMAK'
p3426
I1254
sS'1kJwiKS'
p3427
I5130
sS'Uni2hr'
p3428
I5407
sS'1jtTFmH'
p3429
I4933
sS'1pCOGpO'
p3430
I3464
sS'1kzdaQV'
p3431
I346
sS'1mDeXkU'
p3432
I5822
sS'1lJ8YgV'
p3433
I1821
sS'RAyjOe'
p3434
I5522
sS'QNUdNc'
p3435
I4879
sS'1nWGBKH'
p3436
I2231
sS'1dKobfN'
p3437
I5410
sS'1m04Mqr'
p3438
I3075
sS'Sw6Qx2'
p3439
I1341
sS'1oN6Dkv'
p3440
I3797
sS'1k3TcZB'
p3441
I525
sS'1noFvIp'
p3442
I3687
sS'UqZbCg'
p3443
I6067
sS'1nS9fwo'
p3444
I6480
sS'1hzRU7T'
p3445
I5360
sS'1x1mdNI'
p3446
I1935
sS'1pCjgiB'
p3447
I5149
sS'1k2b8mv'
p3448
I5412
sS'TE6KEH'
p3449
I5413
sS'1jNyRa7'
p3450
I5139
sS'1jlpgM3'
p3451
I5414
sS'1pKeeU8'
p3452
I5415
sS'1mfly6E'
p3453
I4594
sS'1jTNkRF'
p3454
I301
sS'S9w2K4'
p3455
I5417
sS'USkpsS'
p3456
I5418
sS'1qSzIMe'
p3457
I2075
sS'RftXMv'
p3458
I6146
sS'1k9na1Y'
p3459
I2101
sS'R7qXBR'
p3460
I1167
sS'V5ob29'
p3461
I5422
sS'1kRwtks'
p3462
I2124
sS'1jUT7Y7'
p3463
I5423
sS'1nYdSVS'
p3464
I3521
sS'TpKqhZ'
p3465
I4599
sS'1lPlIVa'
p3466
I644
sS'R1iyPu'
p3467
I4860
sS'1oaiDO9'
p3468
I5527
sS'1kKLnMA'
p3469
I4156
sS'1kMbBLA'
p3470
I2185
sS'1dRhFSd'
p3471
I2967
sS'1irnjiP'
p3472
I3377
sS'SM1b6t'
p3473
I714
sS'T2FOy2'
p3474
I1684
sS'1iklrmN'
p3475
I5429
sS'1irnjiV'
p3476
I5430
sS'1oKRlgJ'
p3477
I1129
sS'1nX6KsS'
p3478
I3847
sS'UNUEtR'
p3479
I5431
sS'1qdOj4z'
p3480
I202
sS'1kLVL3s'
p3481
I2346
sS'1kKIabr'
p3482
I3196
sS'SFhWkd'
p3483
I2422
sS'1kd3B7E'
p3484
I5437
sS'1nWMkAf'
p3485
I3929
sS'1j8cuQW'
p3486
I5438
sS'1jGjlw6'
p3487
I3783
sS'1je0x8H'
p3488
I4489
sS'1q7rDpk'
p3489
I5440
sS'1oXscOZ'
p3490
I1131
sS'1pE4fOW'
p3491
I5442
sS'1oBN0M8'
p3492
I4248
sS'1m5KxpZ'
p3493
I3207
sS'1jOl0Bh'
p3494
I151
sS'1lneSo3'
p3495
I2867
sS'1nNJxfC'
p3496
I3037
sS'1qqcaiP'
p3497
I5443
sS'1jfwzQP'
p3498
I2610
sS'1q1A3yY'
p3499
I180
sS'1kGxhZm'
p3500
I4168
sS'1pB3FzA'
p3501
I4338
sS'TQBlQ5'
p3502
I4286
sS'1poxer2'
p3503
I3250
sS'1pyyF35'
p3504
I5452
sS'SWgHgz'
p3505
I717
sS'1kPULyz'
p3506
I4861
sS'1q2pUyQ'
p3507
I5453
sS'1mx0i9c'
p3508
I4030
sS'1iGOCQQ'
p3509
I3936
sS'1g0ajd3'
p3510
I3265
sS'1vKA2QT'
p3511
I3268
sS'1kDclFc'
p3512
I2274
sS'Urxr09'
p3513
I3440
sS'1ikvdrS'
p3514
I5314
sS'1nKXvhj'
p3515
I6274
sS'TLtm6U'
p3516
I2748
sS'1fVTXlP'
p3517
I77
sS'1pk22Gp'
p3518
I5457
sS'1jLza6f'
p3519
I2744
sS'VqTMeN'
p3520
I3022
sS'1hqwiun'
p3521
I238
sS'1jL3JrI'
p3522
I4626
sS'1peFNRX'
p3523
I3012
sS'1okc4se'
p3524
I4095
sS'1lO1lHb'
p3525
I51
sS'1h4f31R'
p3526
I5459
sS'1kXwTt0'
p3527
I72
sS'1qDiW6t'
p3528
I2825
sS'1iL08uc'
p3529
I1076
sS'1naLlhh'
p3530
I2835
sS'1kTgDsI'
p3531
I5482
sS'1oqnSvv'
p3532
I5483
sS'1kTSPoC'
p3533
I6254
sS'UJiTJr'
p3534
I2415
sS'1pvtsfs'
p3535
I5485
sS'1l1tTvG'
p3536
I4351
sS'1jb7XOJ'
p3537
I3526
sS'1oPWt5H'
p3538
I5444
sS'1sROEvp'
p3539
I4360
sS'1p9pwy4'
p3540
I3309
sS'1vEVshu'
p3541
I3475
sS'UaWzYA'
p3542
I5487
sS'1kjtwf9'
p3543
I4637
sS'Qfp5FV'
p3544
I628
sS'1gI2aQp'
p3545
I1787
sS'1prF9DW'
p3546
I4141
sS'1pSrN19'
p3547
I3540
sS'1wmsnbI'
p3548
I2697
sS'1iEQ3hn'
p3549
I5489
sS'UU7oz8'
p3550
I5490
sS'1kJvo0R'
p3551
I1015
sS'1rs4TOK'
p3552
I2956
sS'1mMxWtG'
p3553
I876
sS'1h73K97'
p3554
I5503
sS'1fRmUzb'
p3555
I729
sS'Tnd17V'
p3556
I2811
sS'1ljltjn'
p3557
I2254
sS'1mjoizH'
p3558
I4799
sS'1nXitZw'
p3559
I5249
sS'1ljYUI8'
p3560
I1476
sS'1lok6A1'
p3561
I5507
sS'1iAvW4N'
p3562
I36
sS'1lhViti'
p3563
I5596
sS'1hheIPg'
p3564
I6226
sS'1nMIZ6G'
p3565
I3122
sS'T5TsQT'
p3566
I5597
sS'1pCUn5Y'
p3567
I5598
sS'1lt88Fd'
p3568
I3401
sS'1nZSran'
p3569
I3431
sS'1grzqvj'
p3570
I2160
sS'1gHcFTQ'
p3571
I16
sS'1hDE2cm'
p3572
I3051
sS'1ouuvgu'
p3573
I6045
sS'1l47y0v'
p3574
I4584
sS'1lIp1eN'
p3575
I686
sS'1ssLVbF'
p3576
I4007
sS'1oOHo0B'
p3577
I5397
sS'1h3wFLv'
p3578
I6196
sS'1nRQvyf'
p3579
I3281
sS'1qx0FHZ'
p3580
I5603
sS'fapila'
p3581
I5196
sS'1kNaxth'
p3582
I3316
sS'1jpy289'
p3583
I5218
sS'1g9KJYK'
p3584
I5605
sS'1hlCsM6'
p3585
I5328
sS'1lmI6TZ'
p3586
I5606
sS'1gv5e2e'
p3587
I5608
sS'1hHylju'
p3588
I107
sS'1dYXPa3'
p3589
I5609
sS'1iXhhnQ'
p3590
I1474
sS'T2Bcbj'
p3591
I5610
sS'1o2EmJg'
p3592
I1838
sS'1nrZkSr'
p3593
I3229
sS'S0622z'
p3594
I5612
sS'1nNCDGb'
p3595
I5613
sS'1nSuku8'
p3596
I5310
sS'T6V8Jy'
p3597
I5614
sS'1ikX6wN'
p3598
I5684
sS'1mzzfxc'
p3599
I5405
sS'1pNzg4t'
p3600
I4805
sS'1iFxLk2'
p3601
I5616
sS'1mzxYWW'
p3602
I5617
sS'1nZnEZF'
p3603
I775
sS'UOgYDr'
p3604
I5619
sS'1k2mHLz'
p3605
I1071
sS'1ujbjS8'
p3606
I5620
sS'1q4YokW'
p3607
I5213
sS'1mBI3WJ'
p3608
I5621
sS'1jyyRud'
p3609
I3842
sS'1kwUgEQ'
p3610
I899
sS'1q2crHV'
p3611
I5567
sS'1nBsvAb'
p3612
I3252
sS'1kFuCAT'
p3613
I2679
sS'1psVzZG'
p3614
I3533
sS'1nXFC0b'
p3615
I643
sS'1pEYIWL'
p3616
I427
sS'1qmhdCR'
p3617
I5206
sS'1tzXPz0'
p3618
I968
sS'1o0ZqfL'
p3619
I523
sS'VgZCQ0'
p3620
I5625
sS'1sMVVwu'
p3621
I649
sS'1fAdsWa'
p3622
I3403
sS'S0itw2'
p3623
I3669
sS'1iIrYGg'
p3624
I4809
sS'1fAdsWo'
p3625
I3277
sS'1iQRnlY'
p3626
I1216
sS'1lC3PZe'
p3627
I174
sS'1hldzR3'
p3628
I6654
sS'1ppaVye'
p3629
I4739
sS'1iKbf5G'
p3630
I5628
sS'1z0LM3q'
p3631
I5629
sS'1mFYZaV'
p3632
I5630
sS'1yFd4fp'
p3633
I6127
sS'1jl38RT'
p3634
I5631
sS'1jhRCTY'
p3635
I5632
sS'1kcAtue'
p3636
I64
sS'1mxwlFM'
p3637
I2658
sS'TEduTr'
p3638
I2186
sS'1peb9cA'
p3639
I1548
sS'YsRdUc'
p3640
I4968
sS'UpecnN'
p3641
I900
sS'1pvx1m4'
p3642
I5634
sS'1pltwOO'
p3643
I374
sS'1qzqzen'
p3644
I4633
sS'1kYq36r'
p3645
I5639
sS'1kLrMMp'
p3646
I5640
sS'1p1mnlz'
p3647
I1481
sS'1iVYI3F'
p3648
I3586
sS'1ndJiHw'
p3649
I5641
sS'1hfLm3M'
p3650
I5642
sS'1gEIYO8'
p3651
I1542
sS'1nXgx33'
p3652
I5646
sS'S9IBFx'
p3653
I945
sS'1kPbsKy'
p3654
I2396
sS'1iwvtXi'
p3655
I529
sS'1ljzrSc'
p3656
I5655
sS'1pRuwvr'
p3657
I3333
sS'1hdqtGr'
p3658
I3993
sS'1nK4czZ'
p3659
I3758
sS'1tD4997'
p3660
I5656
sS'1hbHcnU'
p3661
I5657
sS'1lrFghz'
p3662
I211
sS'1iSuUQC'
p3663
I3094
sS'1qevezS'
p3664
I5661
sS'1kMckQ0'
p3665
I4906
sS'1qIVMvv'
p3666
I4082
sS'1o2ZXOv'
p3667
I3375
sS'1qEK6Kk'
p3668
I4092
sS'SRX1KI'
p3669
I3738
sS'1mgArqt'
p3670
I5662
sS'1nKrhm5'
p3671
I1883
sS'1ew0SqB'
p3672
I3581
sS'T8Nboh'
p3673
I2498
sS'1kZ0tOx'
p3674
I6344
sS'SbZdvS'
p3675
I5844
sS'1n1uyhV'
p3676
I5664
sS'1ml6h7x'
p3677
I611
sS'1prUKDK'
p3678
I163
sS'1qXmK2N'
p3679
I4441
sS'1pjXDDj'
p3680
I1339
sS'1geKbAY'
p3681
I829
sS'1oK4i9G'
p3682
I4601
sS'STdJK0'
p3683
I3137
sS'1lJaf7I'
p3684
I4185
sS'1oT4hQY'
p3685
I350
sS'1lxR2pA'
p3686
I5666
sS'1o3Jbz2'
p3687
I4852
sS'1heVG63'
p3688
I5667
sS'SNHb36'
p3689
I5576
sS'1pD1coh'
p3690
I3025
sS'1hIfwGY'
p3691
I2049
sS'1kHGpeM'
p3692
I1992
sS'1j55NQy'
p3693
I3261
sS'1oob089'
p3694
I5674
sS'1hAew7V'
p3695
I3529
sS'1r9XSSZ'
p3696
I5675
sS'1mtQj7K'
p3697
I5492
sS'1hhJKAI'
p3698
I4874
sS'1gyJwKF'
p3699
I4322
sS'R5B4qe'
p3700
I123
sS'1mgxLoH'
p3701
I1364
sS'1ppiHeF'
p3702
I280
sS'TG9elZ'
p3703
I2416
sS'1jD6JWM'
p3704
I1035
sS'1lHukdl'
p3705
I3124
sS'1ikQtzI'
p3706
I1013
sS'1ncTCmr'
p3707
I5677
sS'1nwdb73'
p3708
I1836
sS'1tLsz0g'
p3709
I1824
sS'1pfVhJ5'
p3710
I1132
sS'1hwR4Zg'
p3711
I977
sS'1nXufFx'
p3712
I2481
sS'1mJv8NJ'
p3713
I18
sS'1n4tudc'
p3714
I5678
sS'1sWCuzB'
p3715
I5680
sS'THmU02'
p3716
I4184
sS'1x87CAX'
p3717
I248
sS'1pCnkz1'
p3718
I5834
sS'17Eto08'
p3719
I2140
sS'1gAxcJX'
p3720
I3605
sS'1o7qg60'
p3721
I5318
sS'1pZ2pY6'
p3722
I5681
sS'1lW2slO'
p3723
I3224
sS'1jNRQBm'
p3724
I1758
sS'1kFoqsA'
p3725
I1697
sS'1kxk6g5'
p3726
I2017
sS'1nTg0yd'
p3727
I5683
sS'1gRaUOt'
p3728
I5694
sS'R1ib2a'
p3729
I2743
sS'1jNC9dq'
p3730
I1910
sS'SoG5Lr'
p3731
I5695
sS'1ocF2vK'
p3732
I2496
sS'SQcXgi'
p3733
I6698
sS'U3ehgV'
p3734
I191
sS'1i0eQAk'
p3735
I638
sS'1n1tlbI'
p3736
I3256
sS'1gxB3Y6'
p3737
I5696
sS'RR9jTj'
p3738
I252
sS'Totjgh'
p3739
I6662
sS'1kjHJKt'
p3740
I5583
sS'SOxnpL'
p3741
I923
sS'1iBupju'
p3742
I727
sS'1ooCIzl'
p3743
I5697
sS'T00k2g'
p3744
I4395
sS'1pwIU95'
p3745
I1272
sS'QYePlZ'
p3746
I5587
sS'1ihj8Qy'
p3747
I4625
sS'1iLlE5K'
p3748
I3755
sS'1k7wVJv'
p3749
I5709
sS'1gvB0Mn'
p3750
I2623
sS'UxhGoD'
p3751
I5716
sS'1jdwtcf'
p3752
I1044
sS'1jL91n8'
p3753
I4223
sS'ULrZpj'
p3754
I3811
sS'1qfhswT'
p3755
I5718
sS'Tuj6iG'
p3756
I1973
sS'1qIPBYn'
p3757
I4876
sS'1j38Kvn'
p3758
I324
sS'1yVOVBv'
p3759
I5721
sS'1tvAdeW'
p3760
I2563
sS'1nobgSi'
p3761
I4451
sS'1uJnAiP'
p3762
I916
sS'1g5Gbmm'
p3763
I6267
sS'1kPmNKr'
p3764
I1859
sS'1gE2YAr'
p3765
I4375
sS'1kolfXD'
p3766
I6314
sS'1fc7RyH'
p3767
I5724
sS'1oqAqTv'
p3768
I4661
sS'1nVtcVa'
p3769
I4371
sS'RYXvO1'
p3770
I5508
sS'1nWQeKq'
p3771
I5146
sS'1k4nHBY'
p3772
I5385
sS'1gGmfGG'
p3773
I2804
sS'1ilaAf2'
p3774
I5729
sS'1pNSmFf'
p3775
I5730
sS'1oLFVbF'
p3776
I2485
sS'1hUazLs'
p3777
I4723
sS'1tLHebR'
p3778
I783
sS'1jSBxDj'
p3779
I1323
sS'1oiWPyl'
p3780
I1220
sS'1hht7uB'
p3781
I1858
sS'1hqnDrE'
p3782
I4819
sS'Rw8Jdw'
p3783
I192
sS'1oO3f8B'
p3784
I394
sS'1o5hn0c'
p3785
I5735
sS'1nv9ixN'
p3786
I1850
sS'1gSHz6G'
p3787
I5164
sS'1juonw7'
p3788
I5635
sS'1ggUN2d'
p3789
I5334
sS'1j0w4Q0'
p3790
I3128
sS'1iHa4dJ'
p3791
I684
sS'1rDarpF'
p3792
I2853
sS'1nxYena'
p3793
I5746
sS'1l4y9Wm'
p3794
I5513
sS'1ptgjkV'
p3795
I298
sS'1pbk39H'
p3796
I5584
sS'1oUpLwE'
p3797
I83
sS'1kMvEs7'
p3798
I687
sS'1pLotFt'
p3799
I1219
sS'UmE585'
p3800
I3762
sS'1kQN0oZ'
p3801
I5074
sS'1qrvBt2'
p3802
I5753
sS'1fUrjH8'
p3803
I3230
sS'1iJvXsN'
p3804
I1410
sS'1hCUlpU'
p3805
I1663
sS'1k9aUyh'
p3806
I2667
sS'1mIqRsC'
p3807
I3408
sS'1heEVZd'
p3808
I4774
sS'1pNcHKi'
p3809
I4982
sS'1i37X1a'
p3810
I5754
sS'1kuqjtH'
p3811
I2569
sS'1kYiPRA'
p3812
I5755
sS'1kMwdFA'
p3813
I5756
sS'RlK5vI'
p3814
I6163
sS'1fSWwKH'
p3815
I3486
sS'TxTEsu'
p3816
I5759
sS'1kyyB3i'
p3817
I2001
sS'1jBakuh'
p3818
I3167
sS'1h58mwI'
p3819
I4544
sS'R7eG0b'
p3820
I5760
sS'1qtNCHp'
p3821
I4009
sS'1h9WhX0'
p3822
I1217
sS'1tGah0p'
p3823
I1599
sS'1pvy0Tt'
p3824
I5812
sS'P73LCm'
p3825
I4998
sS'1sPcg3Q'
p3826
I5761
sS'1h2fM3K'
p3827
I5763
sS'1hddKhl'
p3828
I5764
sS'1immWn7'
p3829
I2761
sS'1mIbgMD'
p3830
I2476
sS'1mVAGIE'
p3831
I5210
sS'1ppCvP1'
p3832
I2797
sS'1wSBZdM'
p3833
I3679
sS'1kxQufW'
p3834
I5404
sS'1hc5pjA'
p3835
I3752
sS'1iEGnUb'
p3836
I5770
sS'1nMZ3r2'
p3837
I3995
sS'1hbOVb3'
p3838
I1594
sS'1mQevSF'
p3839
I4717
sS'SkqU63'
p3840
I2912
sS'1q82P0G'
p3841
I5771
sS'1lsPFbR'
p3842
I1381
sS'1ibNbZ1'
p3843
I4798
sS'1kp1Pl5'
p3844
I3290
sS'TCxXHS'
p3845
I5216
sS'1kxwZak'
p3846
I5773
sS'1kW7kFz'
p3847
I5774
sS'1pD6t2k'
p3848
I4680
sS'1mD6EFR'
p3849
I5333
sS'1nAsP3I'
p3850
I5775
sS'1paeID8'
p3851
I5106
sS'1fJ6QVX'
p3852
I5776
sS'1kQEw0X'
p3853
I2239
sS'1lkqZlg'
p3854
I721
sS'PLiOBI'
p3855
I5777
sS'VqRXPd'
p3856
I2369
sS'TmLeof'
p3857
I540
sS'1psHQTG'
p3858
I1756
sS'1i5k5iq'
p3859
I6418
sS'1gR57ZA'
p3860
I2500
sS'1hiBJM8'
p3861
I5781
sS'1kuHiLY'
p3862
I5782
sS'1oLvdTe'
p3863
I1630
sS'1mdLxfg'
p3864
I98
sS'1muO2Ib'
p3865
I2880
sS'1mJhDgR'
p3866
I1119
sS'1kZfss4'
p3867
I5785
sS'1pejK25'
p3868
I5786
sS'1pJ93nw'
p3869
I5787
sS'RHBdAo'
p3870
I2388
sS'1kNFXQY'
p3871
I5788
sS'1pI2mPN'
p3872
I5789
sS'1g4aytn'
p3873
I5790
sS'TvN4TT'
p3874
I4668
sS'1qtQQb6'
p3875
I715
sS'1gMsb1c'
p3876
I5425
sS'1pXrtkn'
p3877
I5794
sS'1kQjVLP'
p3878
I4576
sS'1iVtHYK'
p3879
I794
sS'1neNCaJ'
p3880
I5070
sS'1pmr8HT'
p3881
I5795
sS'1g1IIrP'
p3882
I5796
sS'1hV3RrY'
p3883
I1604
sS'1q7t19r'
p3884
I1191
sS'1mtKKZs'
p3885
I4846
sS'1mvmp32'
p3886
I5799
sS'1qow2C3'
p3887
I5800
sS'1lqvWZw'
p3888
I5801
sS'Q6m7n8'
p3889
I1882
sS'1qfjq0k'
p3890
I2332
sS'1ma7vz1'
p3891
I5804
sS'1h4vL1k'
p3892
I6243
sS'1lxJUVl'
p3893
I2141
sS'1kxRh0g'
p3894
I5286
sS'1m2OZtL'
p3895
I676
sS'UxMV2O'
p3896
I4446
sS'1jn7djY'
p3897
I2228
sS'1lWIZBB'
p3898
I4110
sS'1k5hYwo'
p3899
I814
sS'1oAOB7Q'
p3900
I5549
sS'1mv1H32'
p3901
I5814
sS'1r4S3WF'
p3902
I4524
sS'1q5ltEe'
p3903
I1211
sS'1kWQKYN'
p3904
I5207
sS'1pRoW8A'
p3905
I1605
sS'1qX5XKf'
p3906
I1794
sS'UGWuwo'
p3907
I3019
sS'1h5euFf'
p3908
I5819
sS'1oOE2e6'
p3909
I4174
sS'1pyzmdC'
p3910
I3369
sS'1vgzhyK'
p3911
I906
sS'1jBk82B'
p3912
I739
sS'1tsubMb'
p3913
I1759
sS'1jN7eyC'
p3914
I5408
sS'1nlzL0W'
p3915
I5123
sS'1ktsLMq'
p3916
I1271
sS'1prx4Pz'
p3917
I3198
sS'SX1ITj'
p3918
I2420
sS'1ppBsig'
p3919
I1620
sS'1pXTwjy'
p3920
I582
sS'1qwDGgb'
p3921
I5121
sS'1glCeUc'
p3922
I5828
sS'Su8sZb'
p3923
I4975
sS'1kolW39'
p3924
I859
sS'1o0Zxd7'
p3925
I3028
sS'1q2dVC9'
p3926
I2195
sS'1x50moC'
p3927
I664
sS'1nFtoc9'
p3928
I4937
sS'Tay5yq'
p3929
I6529
sS'UIpfca'
p3930
I5831
sS'UnlyZf'
p3931
I2263
sS'1qziwhy'
p3932
I3736
sS'1noJurM'
p3933
I3130
sS'1hhKq9c'
p3934
I4353
sS'1py4PwH'
p3935
I4826
sS'1hD0BxP'
p3936
I5837
sS'1gvBa6w'
p3937
I971
sS'1hpmFfn'
p3938
I1184
sS'1kxc33q'
p3939
I4602
sS'1mhBpBg'
p3940
I4148
sS'1l7GB7u'
p3941
I4017
sS'1hj7W5J'
p3942
I826
sS'1mM9ybi'
p3943
I2335
sS'1mxD3M9'
p3944
I5840
sS'1vAoH5T'
p3945
I3282
sS'1o2V1sV'
p3946
I320
sS'1kxNSNx'
p3947
I3344
sS'1nJs7zC'
p3948
I5843
sS'1t5iMS8'
p3949
I3293
sS'1jgd9eC'
p3950
I5699
sS'1nzUk8E'
p3951
I5538
sS'1oDH8EI'
p3952
I1276
sS'1jYTVvf'
p3953
I2253
sS'1txu3uR'
p3954
I1976
sS'1h6zZpd'
p3955
I3502
sS'1p3ugsi'
p3956
I681
sS'UK9bGX'
p3957
I5109
sS'1koAjzZ'
p3958
I5845
sS'1pCCrbE'
p3959
I5846
sS'1mB6qiv'
p3960
I5847
sS'Ul9VSx'
p3961
I5384
sS'1hfzhpd'
p3962
I3620
sS'1iT6S7X'
p3963
I3185
sS'1kiBupd'
p3964
I5848
sS'1oLFLBP'
p3965
I1610
sS'1qz9Xn0'
p3966
I1392
sS'RShjDB'
p3967
I5849
sS'1pLt4sg'
p3968
I5259
sS'1hNe0qy'
p3969
I5971
sS'1sSdUld'
p3970
I5851
sS'1wlGld0'
p3971
I2441
sS'1qMqjWo'
p3972
I4675
sS'1rnUIek'
p3973
I5853
sS'1mmhS1g'
p3974
I1189
sS'1q282ot'
p3975
I5854
sS'1jOQ0UJ'
p3976
I4590
sS'1eScpvf'
p3977
I5856
sS'1fVHgYi'
p3978
I808
sS'RM6Qcc'
p3979
I3087
sS'1lRxfDe'
p3980
I5737
sS'1oJPoUF'
p3981
I5030
sS'1qSrh3D'
p3982
I5859
sS'1ju6SvT'
p3983
I5860
sS'1jRlhlZ'
p3984
I4181
sS'1j6nJVr'
p3985
I2430
sS'1mk4cWj'
p3986
I659
sS'RKmPHG'
p3987
I1568
sS'TLB3tN'
p3988
I2640
sS'1q1Nqg8'
p3989
I5011
sS'1mGH0Sg'
p3990
I1924
sS'T0qqmm'
p3991
I5862
sS'1n45JyN'
p3992
I3129
sS'TvaXuK'
p3993
I1596
sS'UtUWpy'
p3994
I2312
sS'1hysaZd'
p3995
I4837
sS'1tJC7KV'
p3996
I4362
sS'1eIfBi5'
p3997
I5865
sS'SxgKiJ'
p3998
I1398
sS'1hM9WUg'
p3999
I797
sS'1kn9dt3'
p4000
I5468
sS'TXm8wz'
p4001
I2021
sS'1kySdVx'
p4002
I1493
sS'1kJxkac'
p4003
I1441
sS'1uutJjM'
p4004
I5867
sS'SZnF4b'
p4005
I818
sS'UEtRjx'
p4006
I5815
sS'1l9o6nV'
p4007
I5869
sS'1jDiEVI'
p4008
I532
sS'1fSVONB'
p4009
I5870
sS'1p7rO0i'
p4010
I3358
sS'1pu5f9p'
p4011
I3254
sS'1jmVeaS'
p4012
I3534
sS'1oIVxwi'
p4013
I4553
sS'1mUBASd'
p4014
I5767
sS'1ofLCzY'
p4015
I3635
sS'1lGg3eb'
p4016
I86
sS'1jlHvkl'
p4017
I5395
sS'1gmLPQP'
p4018
I4263
sS'1rsp3Z8'
p4019
I5872
sS'1pyocFI'
p4020
I6573
sS'1pmgPAm'
p4021
I5003
sS'1rQEpXJ'
p4022
I5873
sS'1meKjCs'
p4023
I5560
sS'1hgqxFn'
p4024
I4803
sS'1ikY2Bv'
p4025
I5874
sS'1nvVKlZ'
p4026
I302
sS'1kjqLL1'
p4027
I5875
sS'V3pI8Z'
p4028
I2439
sS'1kDuPWH'
p4029
I4676
sS'1pyeNxX'
p4030
I3898
sS'1pEwv1S'
p4031
I1690
sS'1lseH6i'
p4032
I2782
sS'TcaJYE'
p4033
I2117
sS'1kSDiWn'
p4034
I3845
sS'1m6MyVO'
p4035
I3721
sS'1kiyXsd'
p4036
I5897
sS'1k7tNxa'
p4037
I2494
sS'1pHFkbm'
p4038
I4450
sS'1u31Caq'
p4039
I3384
sS'1l1Ercw'
p4040
I2736
sS'1kpvudZ'
p4041
I3272
sS'1iL26yv'
p4042
I5209
sS'1gw82vS'
p4043
I4986
sS'1kI1yXK'
p4044
I3868
sS'1qXlYjl'
p4045
I5376
sS'1h2c4XI'
p4046
I5898
sS'1hejTtz'
p4047
I3913
sS'1jvTEP9'
p4048
I3287
sS'1kWLQL4'
p4049
I259
sS'1iL1KYC'
p4050
I1598
sS'1hvXHLs'
p4051
I3528
sS'1jsAr0X'
p4052
I5900
sS'1pTx6A1'
p4053
I2491
sS'1hdE8xe'
p4054
I1817
sS'1qCTM84'
p4055
I3777
sS'1nI097e'
p4056
I3478
sS'1k7FG62'
p4057
I3667
sS'1gvzQAy'
p4058
I6151
sS'1fLMgR0'
p4059
I5905
sS'15Hcdu5'
p4060
I2542
sS'1yUWwjP'
p4061
I1484
sS'PYaL4D'
p4062
I1720
sS'1mfRwAX'
p4063
I1999
sS'1jyA6cR'
p4064
I143
sS'RIMy45'
p4065
I5910
sS'1p3nSOe'
p4066
I4691
sS'1qATNJF'
p4067
I5911
sS'1mqB3K9'
p4068
I5590
sS'THXa47'
p4069
I1063
sS'1sFX1Kq'
p4070
I3466
sS'V7pMEL'
p4071
I633
sS'1ioR2TD'
p4072
I3100
sS'1lt6Bud'
p4073
I1556
sS'1gZrP7e'
p4074
I229
sS'1kcR8lL'
p4075
I3225
sS'1o0ifzL'
p4076
I560
sS'1hhjYCj'
p4077
I4751
sS'1q7z140'
p4078
I5496
sS'1m8EyDA'
p4079
I3179
sS'1llBLs1'
p4080
I5575
sS'1nh3eJl'
p4081
I537
sS'1jmXMVK'
p4082
I5915
sS'1ieeLWF'
p4083
I3330
sS'1oTWK4z'
p4084
I5916
sS'1qhQIvT'
p4085
I4816
sS'1rh4QFo'
p4086
I577
sS'1qC7829'
p4087
I682
sS'1jpRllo'
p4088
I5917
sS'1l1HPWn'
p4089
I2189
sS'TcNiPL'
p4090
I4467
sS'UV3oOW'
p4091
I5698
sS'1mjQd5V'
p4092
I5918
sS'1p7dpBa'
p4093
I5919
sS'1m0DcMl'
p4094
I365
sS'1oQ76BY'
p4095
I1946
sS'1jtHQwG'
p4096
I2145
sS'1jd3RzZ'
p4097
I3160
sS'1pnh7Ha'
p4098
I5888
sS'1gLzLqr'
p4099
I6007
sS'1jbCdc1'
p4100
I925
sS'1kSZYEh'
p4101
I6494
sS'1gyA1er'
p4102
I1230
sS'1psWE3A'
p4103
I4821
sS'1x1J7Vd'
p4104
I4021
sS'1vdJdq4'
p4105
I1031
sS'1nWpnR0'
p4106
I1611
sS'1o0dY2D'
p4107
I2501
sS'1kyoOG4'
p4108
I1942
sS'1hdnjg1'
p4109
I6027
sS'Vnan3e'
p4110
I6284
sS'1pscXkQ'
p4111
I6028
sS'1wcD4NX'
p4112
I3189
sS'1lkQV0J'
p4113
I6072
sS'1gnZGq4'
p4114
I3912
sS'RtqEld'
p4115
I4909
sS'1j74MS1'
p4116
I669
sS'1lwzlT6'
p4117
I6033
sS'1jwJ8HB'
p4118
I618
sS'SB2q9f'
p4119
I6034
sS'1prCwji'
p4120
I1899
sS'TBys5A'
p4121
I5448
sS'V6qRwB'
p4122
I2966
sS'1nVvmnR'
p4123
I4812
sS'1l7UPVV'
p4124
I5579
sS'T0aRep'
p4125
I6036
sS'1mcKJqf'
p4126
I4335
sS'1orNRPl'
p4127
I6038
sS'1pwu8hL'
p4128
I6039
sS'1lVR8WH'
p4129
I2340
sS'1gyXDzu'
p4130
I5309
sS'1nniBo4'
p4131
I3319
sS'1qPtcsw'
p4132
I4731
sS'UyixoY'
p4133
I2411
sS'1siZbD6'
p4134
I85
sS'1kZaszd'
p4135
I4247
sS'1kEuLBw'
p4136
I1367
sS'1itnIKL'
p4137
I364
sS'1nRGEdZ'
p4138
I3583
sS'1yY3Zi2'
p4139
I5707
sS'1mDteOJ'
p4140
I4501
sS'RZAvPB'
p4141
I2472
sS'1lc5DqA'
p4142
I821
sS'1pAsbRC'
p4143
I3269
sS'1nFfcxd'
p4144
I6022
sS'1gvN93Q'
p4145
I6062
sS'1szZ8mk'
p4146
I867
sS'1j5bVHB'
p4147
I1224
sS'1uIURM7'
p4148
I15
sS'1qDPDSr'
p4149
I6433
sS'1g0qmYq'
p4150
I213
sS'1izf8kG'
p4151
I2929
sS'1pXqnoE'
p4152
I3487
sS'1hzxT1i'
p4153
I2976
sS'1mIEA52'
p4154
I6444
sS'1jnuVSY'
p4155
I6073
sS'1kBvSGM'
p4156
I4013
sS'1iEwrQY'
p4157
I562
sS'1iQrZwN'
p4158
I3578
sS'1pNtsFL'
p4159
I5591
sS'1fUlrOb'
p4160
I2902
sS'1lYpDfT'
p4161
I469
sS'1m5cEow'
p4162
I5752
sS'Uzzm35'
p4163
I2281
sS'1wVzVBQ'
p4164
I5592
sS'1kNzIsa'
p4165
I1609
sS'Tm1nK0'
p4166
I6075
sS'1vbATZM'
p4167
I6076
sS'1pE37t9'
p4168
I34
sS'1njoWQz'
p4169
I3617
sS'1qk4e1W'
p4170
I5648
sS'1kYmihr'
p4171
I6078
sS'1lKjSRY'
p4172
I5921
sS'1q0F48d'
p4173
I5925
sS'1qmi17x'
p4174
I6116
sS'1tZPAwz'
p4175
I5466
sS'18dVbbH'
p4176
I6080
sS'1gmsQpF'
p4177
I6092
sS'1hivPjJ'
p4178
I615
sS'Spelqj'
p4179
I2928
sS'1pMxhxw'
p4180
I3800
sS'TmJB9B'
p4181
I5824
sS'VltFpB'
p4182
I4565
sS'1ki2FQA'
p4183
I3627
sS'1pNeKOp'
p4184
I1114
sS'1pLMz2g'
p4185
I4941
sS'1sqTRYW'
p4186
I3106
sS'1heoKur'
p4187
I6650
sS'1tD7GXR'
p4188
I5923
sS'1qouydo'
p4189
I6651
sS'1oONez9'
p4190
I5128
sS'1clfTDL'
p4191
I3922
sS'V01exo'
p4192
I6345
sS'1qJ2Wjk'
p4193
I2680
sS'1lnIRYc'
p4194
I5021
sS'inx6LS'
p4195
I6097
sS'1hZwZON'
p4196
I3126
sS'1kSK4LC'
p4197
I1111
sS'1ow4uNX'
p4198
I5509
sS'1tLzM05'
p4199
I5254
sS'1pBebal'
p4200
I2544
sS'1yC13HQ'
p4201
I182
sS'1gqIdOe'
p4202
I6098
sS'1kDXRp5'
p4203
I4792
sS'1hsnpAH'
p4204
I2519
sS'1kMMOqD'
p4205
I1173
sS'1oOEOrB'
p4206
I2204
sS'RT5eOq'
p4207
I3840
sS'SWuhjV'
p4208
I521
sS'1hrDOVL'
p4209
I5829
sS'1j7YjXr'
p4210
I5125
sS'1hvkRY3'
p4211
I593
sS'1jIwaMn'
p4212
I4700
sS'1qWORw1'
p4213
I4023
sS'1gFsWDv'
p4214
I4823
sS'1il5rRa'
p4215
I3625
sS'1iHWkJ5'
p4216
I3231
sS'1upRcm6'
p4217
I4510
sS'1lCxai5'
p4218
I5686
sS'1j9Insi'
p4219
I583
sS'1hK1zZ8'
p4220
I54
sS'1nXDr87'
p4221
I1426
sS'1gPRBFH'
p4222
I1443
sS'1lMrLYv'
p4223
I1012
sS'1meskwm'
p4224
I5478
sS'1qyrxoQ'
p4225
I1395
sS'1lbylbj'
p4226
I6108
sS'1jCMOMC'
p4227
I6115
sS'1nIVphH'
p4228
I5615
sS'1h6jn0J'
p4229
I944
sS'1klsL0s'
p4230
I2435
sS'1nIL0RN'
p4231
I5936
sS'1kW5q7E'
p4232
I6109
sS'SRYf8w'
p4233
I6029
sS'1miw2oX'
p4234
I948
sS'1pzkf68'
p4235
I3813
sS'1hm9xaE'
p4236
I2367
sS'1pjBZyV'
p4237
I3981
sS'1jZojbQ'
p4238
I2765
sS'1ptiunL'
p4239
I6439
sS'1kwAeyO'
p4240
I2624
sS'1rvk4qn'
p4241
I6110
sS'1k28U6h'
p4242
I4616
sS'1su0IAW'
p4243
I1711
sS'1nKW7uR'
p4244
I2364
sS'1lwFh2j'
p4245
I5658
sS'1oGSViv'
p4246
I3050
sS'1tPxizX'
p4247
I156
sS'1oI9jna'
p4248
I2568
sS'RDmdDD'
p4249
I4032
sS'ThMB74'
p4250
I3033
sS'1qPVzGW'
p4251
I651
sS'UXCUvE'
p4252
I780
sS'Tf9sjP'
p4253
I4439
sS'UICZUk'
p4254
I3544
sS'1jxbUIP'
p4255
I2601
sS'1kdAqEE'
p4256
I5940
sS'1rvfw7n'
p4257
I4630
sS'1mb2bLP'
p4258
I6113
sS'1iXTrcN'
p4259
I3296
sS'Q4xrjG'
p4260
I6114
sS'1mKGfJI'
p4261
I5941
sS'1iHfRt9'
p4262
I5689
sS'1pdmyrZ'
p4263
I3670
sS'Rm4C3j'
p4264
I5643
sS'1kRTe6O'
p4265
I1744
sS'1kpDXKh'
p4266
I3314
sS'1pK2bUy'
p4267
I2330
sS'1jocWdm'
p4268
I6610
sS'1lvFqUY'
p4269
I475
sS'1oL5xsj'
p4270
I4022
sS'1ppELCI'
p4271
I2318
sS'UNLjSA'
p4272
I1186
sS'1piYCXm'
p4273
I5456
sS'1p9awzV'
p4274
I1583
sS'1heoQT4'
p4275
I4635
sS'1s2Dp6r'
p4276
I6055
sS'1iVYNnW'
p4277
I3471
sS'1sc7ahQ'
p4278
I160
sS'1oW7sXP'
p4279
I3601
sS'1jRKxcG'
p4280
I5023
sS'1pkq2Jo'
p4281
I5879
sS'1qj8LRG'
p4282
I6117
sS'TZNsu5'
p4283
I3078
sS'1gtrx8O'
p4284
I4472
sS'1k9zsr8'
p4285
I1303
sS'1nIZrqp'
p4286
I1980
sS'1hdAkGs'
p4287
I6118
sS'1m2WhQ7'
p4288
I5983
sS'Vc0fdC'
p4289
I1848
sS'1wyuFDQ'
p4290
I485
sS'1hdhlLV'
p4291
I2256
sS'1pDzdIc'
p4292
I4960
sS'1k2mWcS'
p4293
I877
sS'1jtfR4o'
p4294
I4938
sS'1pSFAEL'
p4295
I5228
sS'1j3DEs4'
p4296
I9
sS'1iDvOW7'
p4297
I5991
sS'1peKrAt'
p4298
I4050
sS'1hznEtk'
p4299
I2938
sS'1lJbTEY'
p4300
I1835
sS'1iMBGsj'
p4301
I922
sS'1mXOhin'
p4302
I5762
sS'1kov0AD'
p4303
I6649
sS'1qad0mj'
p4304
I1676
sS'1o2wVl1'
p4305
I68
sS'1pa80JI'
p4306
I6153
sS'1swrWH7'
p4307
I3874
sS'1hjgEXm'
p4308
I1358
sS'1kLnrJ8'
p4309
I5486
sS'1hCxnz3'
p4310
I3804
sS'1tCEmOj'
p4311
I4552
sS'Us8lOJ'
p4312
I5293
sS'1hLVcbt'
p4313
I5955
sS'1mjM9iK'
p4314
I941
sS'1g5wNyZ'
p4315
I6122
sS'TlyE8i'
p4316
I6123
sS'1mbYbdH'
p4317
I5949
sS'1iStlqK'
p4318
I4154
sS'1eeMymb'
p4319
I4692
sS'1oOGtOE'
p4320
I1227
sS'1nU03c0'
p4321
I6126
sS'UolPLw'
p4322
I6128
sS'1kCIxcz'
p4323
I6086
sS'1nMpAnC'
p4324
I508
sS'1jBgwm1'
p4325
I5850
sS'1jNHEIS'
p4326
I3606
sS'1qWvWl6'
p4327
I6129
sS'1nUqCkR'
p4328
I5124
sS'1pCDREa'
p4329
I666
sS'1eusKv5'
p4330
I5951
sS'1hfGLP5'
p4331
I6571
sS'1iotX3k'
p4332
I3181
sS'1laNNUY'
p4333
I5067
sS'1l8Lphm'
p4334
I4605
sS'1ppXeCg'
p4335
I367
sS'1nW2Osh'
p4336
I4609
sS'1mAKzKU'
p4337
I5793
sS'1txPr2Y'
p4338
I5342
sS'1guikNd'
p4339
I2153
sS'1gmTCy3'
p4340
I5532
sS'1nvsIWT'
p4341
I4433
sS'1hv5YiI'
p4342
I561
sS'1tdoFwV'
p4343
I1558
sS'1kwOHL3'
p4344
I1117
sS'1pk9zoq'
p4345
I2184
sS'1k6810D'
p4346
I4712
sS'SIHdK6'
p4347
I3002
sS'1pmUrYr'
p4348
I2756
sS'1kG2Eqh'
p4349
I4081
sS'1mmee5B'
p4350
I1862
sS'UV7S8a'
p4351
I885
sS'1q27BdT'
p4352
I5688
sS'1jM33Gw'
p4353
I1682
sS'1qw7JFG'
p4354
I4071
sS'1jPDBjr'
p4355
I3945
sS'1hnriGJ'
p4356
I5327
sS'1kAgQMO'
p4357
I4387
sS'RIAleQ'
p4358
I5534
sS'1qjhrI3'
p4359
I5958
sS'1tKIvCz'
p4360
I6689
sS'1mgwJNs'
p4361
I5720
sS'1lNiKgC'
p4362
I846
sS'1jZEfqz'
p4363
I1963
sS'1kEOyW6'
p4364
I3442
sS'1oAjRAH'
p4365
I5784
sS'1pMOlkj'
p4366
I1482
sS'Tot3yK'
p4367
I1832
sS'1iK8ml8'
p4368
I4623
sS'1lF5v2X'
p4369
I6140
sS'1hHyGQM'
p4370
I5961
sS'1ldkUHS'
p4371
I4977
sS'S701md'
p4372
I600
sS'1kHj6X0'
p4373
I2355
sS'1pUuSR8'
p4374
I6141
sS'1qFAgIU'
p4375
I6043
sS'1kJFHlY'
p4376
I3880
sS'1pQZK4J'
p4377
I2206
sS'1jQumfT'
p4378
I740
sS'UWfkzV'
p4379
I4770
sS'1kOJzzf'
p4380
I5668
sS'1kenTyV'
p4381
I1353
sS'1t5dru9'
p4382
I3123
sS'19MGbUD'
p4383
I4930
sS'1qFFJzG'
p4384
I1479
sS'TaaVb8'
p4385
I5539
sS'1jtTdpm'
p4386
I5541
sS'1h7Qhhs'
p4387
I315
sS'1nMsqtB'
p4388
I3567
sS'1lAT2fS'
p4389
I5622
sS'1n1YDze'
p4390
I3318
sS'1kxWsk3'
p4391
I4400
sS'1kU84ei'
p4392
I3536
sS'1syUeWL'
p4393
I235
sS'1nMH6qI'
p4394
I6705
sS'1omNqc1'
p4395
I6665
sS'1oAPGgD'
p4396
I5972
sS'1gxP9sp'
p4397
I6586
sS'1oz1gVY'
p4398
I5803
sS'1mRDin7'
p4399
I6082
sS'1m71rJT'
p4400
I5930
sS'1pBighx'
p4401
I4796
sS'Sobtdl'
p4402
I6360
sS'1jH48eZ'
p4403
I5942
sS'1gzhZc3'
p4404
I6156
sS'1l3y75p'
p4405
I100
sS'1dXdrKR'
p4406
I2173
sS'W1qccT'
p4407
I2557
sS'1kRM4AG'
p4408
I2146
sS'1hqRTZp'
p4409
I3097
sS'1mGGlhV'
p4410
I5229
sS'1p7ZxqC'
p4411
I6159
sS'1kNi9wz'
p4412
I5649
sS'1mWR3Bc'
p4413
I2871
sS'1kNQcSw'
p4414
I5826
sS'QdTSD3'
p4415
I3862
sS'1hDfLmT'
p4416
I6161
sS'1jSJ7Om'
p4417
I2747
sS'1sA2LsI'
p4418
I742
sS'1gpMNfe'
p4419
I856
sS'1q165bX'
p4420
I4827
sS'1iF6tWS'
p4421
I6162
sS'1ff5DFg'
p4422
I5052
sS'1o3MUzu'
p4423
I3539
sS'1tD5b50'
p4424
I4480
sS'1n4JtDd'
p4425
I713
sS'1pz9l0d'
p4426
I4807
sS'S4iD5F'
p4427
I622
sS'1geAKBF'
p4428
I2062
sS'1hMnKhy'
p4429
I189
sS'1qqBXpO'
p4430
I4787
sS'RcaQCq'
p4431
I700
sS'1lKQtIp'
p4432
I518
sS'1ktmLmP'
p4433
I6068
sS'nOFMJl'
p4434
I6172
sS'1k4qOtT'
p4435
I4535
sS'1kDVhuB'
p4436
I2025
sS'Tpmn2u'
p4437
I4447
sS'TNkeOW'
p4438
I6408
sS'UnmgWn'
p4439
I2414
sS'1kLaDz4'
p4440
I5220
sS'Ot421Y'
p4441
I5980
sS'1jPH65n'
p4442
I843
sS'1oQKp0t'
p4443
I3423
sS'UGOQCi'
p4444
I6174
sS'1l1RSL3'
p4445
I5273
sS'1mcEFPK'
p4446
I53
sS'1ia3BFy'
p4447
I5739
sS'UqKfUw'
p4448
I3062
sS'1k6RaLp'
p4449
I5559
sS'UM5UXE'
p4450
I4264
sS'TjPNPA'
p4451
I6175
sS'SkvLUZ'
p4452
I2067
sS'1oTRiRX'
p4453
I3204
sS'1o3UqKU'
p4454
I5835
sS'1ro3xob'
p4455
I6183
sS'1hoTk4Z'
p4456
I5321
sS'1oTYKK2'
p4457
I6085
sS'U4nPbD'
p4458
I668
sS'1lFtSwf'
p4459
I5244
sS'1kFQcnd'
p4460
I3239
sS'1q7UCXj'
p4461
I2493
sS'1ln40BC'
p4462
I5476
sS'Vsl6cS'
p4463
I1218
sS'1gcijgs'
p4464
I3249
sS'1kiHPfz'
p4465
I2652
sS'1gugVGc'
p4466
I3639
sS'1hsbzGy'
p4467
I4376
sS'1x2kF6f'
p4468
I6200
sS'1o26Cf3'
p4469
I133
sS'1go3Gao'
p4470
I6201
sS'SLSKIs'
p4471
I303
sS'Q3w8BD'
p4472
I6202
sS'1hCHGcd'
p4473
I4588
sS'1ppnoVM'
p4474
I3653
sS'1pywTPo'
p4475
I6633
sS'UFc8bR'
p4476
I3056
sS'1h8K6JZ'
p4477
I4755
sS'1h9lPDx'
p4478
I551
sS'QY2O0u'
p4479
I6211
sS'1rnWHz3'
p4480
I6212
sS'1pFP7Q1'
p4481
I4465
sS'1njQHU1'
p4482
I3381
sS'1gmECAj'
p4483
I3329
sS'1oT82aD'
p4484
I1030
sS'1oqpTHq'
p4485
I489
sS'1jqD9sd'
p4486
I5225
sS'1nW5FF9'
p4487
I6189
sS'1l7AvZm'
p4488
I993
sS'TImbeQ'
p4489
I1678
sS'1qbjRc3'
p4490
I4828
sS'1nt9EpU'
p4491
I6213
sS'1oUTq8J'
p4492
I6214
sS'1kfHavl'
p4493
I6215
sS'V6vxm5'
p4494
I5691
sS'Tn2Dx7'
p4495
I1808
sS'1iPU0Qf'
p4496
I2137
sS'Tsgz8o'
p4497
I249
sS'1gFtv09'
p4498
I6222
sS'1jbNCbR'
p4499
I5332
sS'1kWkQw1'
p4500
I1659
sS'1hMlBlL'
p4501
I5105
sS'1kRh3Ne'
p4502
I5654
sS'1lT2xE3'
p4503
I2831
sS'1tFi3rn'
p4504
I2202
sS'1jgfzzo'
p4505
I519
sS'1nEUuye'
p4506
I6371
sS'1pKbQth'
p4507
I763
sS'1scWhwi'
p4508
I3214
sS'1jwBbaV'
p4509
I1011
sS'1kZGgno'
p4510
I6044
sS'1gBYbVi'
p4511
I6227
sS'1g2yXKn'
p4512
I209
sS'1ht6jCt'
p4513
I1600
sS'1g4ywVl'
p4514
I3760
sS'1tAqGDq'
p4515
I1105
sS'15GC2KQ'
p4516
I2556
sS'1o4VY7v'
p4517
I5757
sS'1yWMjmP'
p4518
I5748
sS'1qqxZQU'
p4519
I6203
sS'1ovmqEl'
p4520
I1240
sS'1ttthPu'
p4521
I6071
sS'1hAdPf4'
p4522
I6672
sS'1pgKEW7'
p4523
I1800
sS'1kpLtop'
p4524
I3338
sS'1kmQI7I'
p4525
I2427
sS'1gXjyvd'
p4526
I6158
sS'1hS8gZp'
p4527
I6228
sS'1gJcurf'
p4528
I6064
sS'1fPn3IO'
p4529
I1972
sS'1rGsM3O'
p4530
I1893
sS'1k4bwqe'
p4531
I2729
sS'1itcXbq'
p4532
I6232
sS'1g0SHOs'
p4533
I3134
sS'1jYHdj9'
p4534
I2724
sS'1kmMXDR'
p4535
I2171
sS'1oARcvj'
p4536
I2646
sS'1jyVDlS'
p4537
I6233
sS'1uuIcvd'
p4538
I5464
sS'1toQYu0'
p4539
I6235
sS'1vqxUxG'
p4540
I2817
sS'1ki22pY'
p4541
I6236
sS'1g2U8RC'
p4542
I3155
sS'1nikhf4'
p4543
I6237
sS'1o8dAMd'
p4544
I1948
sS'1iVybU5'
p4545
I2174
sS'1ktd33H'
p4546
I1538
sS'TksC7p'
p4547
I861
sS'1qK0Yza'
p4548
I6554
sS'1nMfcwZ'
p4549
I6252
sS'1r4JGZw'
p4550
I6011
sS'1ktZzqb'
p4551
I5394
sS'KZBFUp'
p4552
I1638
sS'1gqCDLy'
p4553
I6256
sS'1nRAZkR'
p4554
I1028
sS'1qgUHc5'
p4555
I6257
sS'1kGfCkF'
p4556
I1681
sS'UItpAI'
p4557
I6258
sS'1jQesH0'
p4558
I3098
sS'1qkyRo2'
p4559
I1717
sS'1hhJlnx'
p4560
I6260
sS'1jVoX5P'
p4561
I349
sS'1h20FHq'
p4562
I6187
sS'1kqseiq'
p4563
I4667
sS'1kiIbmn'
p4564
I5264
sS'1kJ5BWV'
p4565
I4579
sS'1iSWAEP'
p4566
I5284
sS'1p6nBKx'
p4567
I6380
sS'1pfDy49'
p4568
I258
sS'1juLOtT'
p4569
I6262
sS'1hnQQtm'
p4570
I6263
sS'1lXdmrk'
p4571
I1830
sS'UVzj1F'
p4572
I2162
sS'1oJDMxf'
p4573
I6265
sS'1g1ZRY2'
p4574
I3226
sS'1qmFRTm'
p4575
I1819
sS'1nxuELq'
p4576
I5350
sS'1o3TWTl'
p4577
I6269
sS'1jh5GBC'
p4578
I5163
sS'1h20ufd'
p4579
I4920
sS'1jDQNJP'
p4580
I6270
sS'1yUKxTh'
p4581
I2738
sS'1nIMdLJ'
p4582
I963
sS'1ioyAOi'
p4583
I3538
sS'1mF45lu'
p4584
I6271
sS'1jrkr3d'
p4585
I1892
sS'1kI6CLW'
p4586
I6096
sS'1pXgJm5'
p4587
I5611
sS'1legzng'
p4588
I4144
sS'1mCcbfY'
p4589
I4569
sS'UVlVuh'
p4590
I5586
sS'1gj26WY'
p4591
I1404
sS'1gNNiuw'
p4592
I2119
sS'1hPdIfB'
p4593
I1431
sS'UkWP7V'
p4594
I3446
sS'1sP5j2Q'
p4595
I2484
sS'1kT8Rjx'
p4596
I5589
sS'TWEaia'
p4597
I102
sS'1nU9Y3K'
p4598
I4398
sS'1ktaej9'
p4599
I3774
sS'1jeIRZu'
p4600
I3298
sS'1mlGb2n'
p4601
I5945
sS'1rkE8vA'
p4602
I1683
sS'1kZYitW'
p4603
I6286
sS'1qoG2h3'
p4604
I4764
sS'1kfaPsZ'
p4605
I6181
sS'1lq6F2j'
p4606
I3815
sS'1iOB3lC'
p4607
I3531
sS'1i6WKg9'
p4608
I3459
sS'1pRoqYX'
p4609
I6288
sS'1w2JQF0'
p4610
I1195
sS'1lb9PlU'
p4611
I6289
sS'1hxibSO'
p4612
I5957
sS'1k1Mt7i'
p4613
I754
sS'1ldjflD'
p4614
I4634
sS'1jWj9dN'
p4615
I1070
sS'1gxWoke'
p4616
I2876
sS'1sPbsfi'
p4617
I5650
sS'1pjBCYL'
p4618
I4402
sS'y4HPBW'
p4619
I6291
sS'1pRZC2c'
p4620
I2006
sS'1odlLsp'
p4621
I2112
sS'1lGiInf'
p4622
I6041
sS'1itU8vu'
p4623
I6296
sS'1jbxXcO'
p4624
I5108
sS'1or5GPI'
p4625
I5046
sS'Sl9wyf'
p4626
I2337
sS'1gvDAlx'
p4627
I6294
sS'1tjWZGI'
p4628
I325
sS'1rFiEJZ'
p4629
I3603
sS'TxMp3L'
p4630
I4391
sS'1lYZ61X'
p4631
I3092
sS'1kucU4q'
p4632
I128
sS'1k32DMe'
p4633
I3258
sS'1miQjus'
p4634
I4179
sS'1o41IhJ'
p4635
I4534
sS'1cLbosy'
p4636
I3399
sS'1mGPQ0U'
p4637
I6299
sS'1k5Qkyv'
p4638
I6508
sS'1kTAGra'
p4639
I404
sS'1iuxhgP'
p4640
I2296
sS'1kKiXhi'
p4641
I6300
sS'UUgfAF'
p4642
I1194
sS'1oooEVS'
p4643
I6302
sS'SkNviI'
p4644
I6446
sS'1gBnkzB'
p4645
I2872
sS'1pyOtYa'
p4646
I606
sS'Osc0bw'
p4647
I5924
sS'1jUAloF'
p4648
I6304
sS'1gz1f4G'
p4649
I3835
sS'1qiaj2a'
p4650
I3141
sS'1p4p45J'
p4651
I4396
sS'1oQKukW'
p4652
I6305
sS'UxSxd2'
p4653
I4035
sS'1nwMDmt'
p4654
I1466
sS'1gqAqJj'
p4655
I6021
sS'1hPfHQZ'
p4656
I1429
sS'1jPjGNq'
p4657
I6306
sS'1nZQ19t'
p4658
I6435
sS'1p8yw9Y'
p4659
I6307
sS'1j5MdxL'
p4660
I3142
sS'1mxDG92'
p4661
I503
sS'1tKC1DG'
p4662
I6308
sS'1qkzIHQ'
p4663
I2199
sS'1j7kLWi'
p4664
I395
sS'1eI08yK'
p4665
I642
sS'1mVLgz5'
p4666
I5928
sS'1hsrBQN'
p4667
I168
sS'1kFiYV9'
p4668
I4186
sS'1gXF2Z0'
p4669
I4919
sS'1jmt8NE'
p4670
I3154
sS'1iqpmP9'
p4671
I6310
sS'1pVb14b'
p4672
I6311
sS'1gcseTQ'
p4673
I5806
sS'SAWdd4'
p4674
I1120
sS'1od6CY9'
p4675
I5432
sS'1hvsDeW'
p4676
I915
sS'SxoKzN'
p4677
I5577
sS'1lYre4O'
p4678
I857
sS'1mn35BM'
p4679
I5891
sS'1hs3cL9'
p4680
I5311
sS'1isye9A'
p4681
I5807
sS'1kAf5EO'
p4682
I6292
sS'1mG10Tx'
p4683
I2742
sS'1jEjxvZ'
p4684
I3953
sS'1lABsKC'
p4685
I5931
sS'1j9aubg'
p4686
I3500
sS'1kr3tTj'
p4687
I2597
sS'UH7r13'
p4688
I6319
sS'1o7BQA7'
p4689
I3574
sS'1j7ter5'
p4690
I5901
sS'1jhfaHh'
p4691
I6206
sS'UFPOPk'
p4692
I6320
sS'1fMWs9H'
p4693
I5934
sS'1jmCpk6'
p4694
I147
sS'1qrwims'
p4695
I3615
sS'VnY8Ds'
p4696
I6321
sS'1ifKSKj'
p4697
I693
sS'1pkkVci'
p4698
I6032
sS'URQGzY'
p4699
I871
sS'1pcaSqt'
p4700
I1112
sS'TDPG1D'
p4701
I1057
sS'1hVX4ez'
p4702
I6049
sS'SDoYFV'
p4703
I6329
sS'UxV07B'
p4704
I2417
sS'1mFFONp'
p4705
I4158
sS'RZAsDu'
p4706
I3818
sS'qbe8EW'
p4707
I4689
sS'1hOKugI'
p4708
I35
sS'1fIY6tp'
p4709
I5938
sS'1tyUHDC'
p4710
I2633
sS'1rHZjM1'
p4711
I58
sS'1qkguSg'
p4712
I1061
sS'1m3h6ZG'
p4713
I6331
sS'1oIzFRR'
p4714
I6081
sS'1tAI8aT'
p4715
I4793
sS'T5aKO3'
p4716
I3008
sS'1jpQIbq'
p4717
I3924
sS'1ojVoCS'
p4718
I2701
sS'1k3dNAq'
p4719
I3951
sS'1ifCWaw'
p4720
I4566
sS'1qHRxO1'
p4721
I2004
sS'1mgmUue'
p4722
I6333
sS'1lS5zMr'
p4723
I2732
sS'1iwhYRB'
p4724
I273
sS'1kTU7wP'
p4725
I2734
sS'1lUTp4w'
p4726
I3851
sS'1nPP6KN'
p4727
I3390
sS'1glaTYl'
p4728
I957
sS'1qrlj9w'
p4729
I1088
sS'1kWnhtM'
p4730
I2875
sS'RPXYT5'
p4731
I4337
sS'1pzV2by'
p4732
I6355
sS'1pT93kO'
p4733
I2499
sS'1gwYMkA'
p4734
I5944
sS'1jgzwoO'
p4735
I6209
sS'TlZ61E'
p4736
I2215
sS'1nIpqRg'
p4737
I2440
sS'SS9SvU'
p4738
I214
sS'1kymnYK'
p4739
I1053
sS'1tEK9mq'
p4740
I6356
sS'1iYq0aE'
p4741
I4049
sS'UY0Qzm'
p4742
I3020
sS'1sHdejq'
p4743
I5979
sS'1jPlNoD'
p4744
I6359
sS'1kTRoGL'
p4745
I5051
sS'1nkIr6q'
p4746
I2143
sS'1wDbskm'
p4747
I6733
sS'1mZWQoa'
p4748
I2255
sS'1gZWagE'
p4749
I6361
sS'1lArKY7'
p4750
I3631
sS'1hdtAs5'
p4751
I865
sS'1yT7mH5'
p4752
I4163
sS'1mkQoXY'
p4753
I3406
sS'1iXksaW'
p4754
I6125
sS'1nz8hcU'
p4755
I772
sS'1kBrIie'
p4756
I6370
sS'1qjSpYY'
p4757
I5265
sS'1jIJBfv'
p4758
I2795
sS'1lWcYun'
p4759
I4880
sS'1qJyuTI'
p4760
I6009
sS'SWjaHq'
p4761
I1247
sS'1g525Gf'
p4762
I307
sS'1kKeTSD'
p4763
I4600
sS'1p95ZNZ'
p4764
I5526
sS'1j8WL4e'
p4765
I4471
sS'1rxlvVl'
p4766
I6131
sS'1tka5FD'
p4767
I1706
sS'1nicalq'
p4768
I3717
sS'1kNjWyB'
p4769
I5711
sS'1kxcK89'
p4770
I6377
sS'1kIz4Q5'
p4771
I3749
sS'1nWH9jD'
p4772
I6378
sS'1h7yLtC'
p4773
I3032
sS'1oOw4me'
p4774
I1714
sS'1fpB4gB'
p4775
I3786
sS'1mRzpic'
p4776
I2246
sS'1mBqRfa'
p4777
I5882
sS'1gwATAa'
p4778
I6198
sS'1hlVFxq'
p4779
I2428
sS'RSguKw'
p4780
I3175
sS'1oo8YVm'
p4781
I4598
sS'1lHXbxN'
p4782
I3839
sS'1kKgyod'
p4783
I6293
sS'1glShbf'
p4784
I4614
sS'1pBUi2F'
p4785
I3768
sS'1o1M5WA'
p4786
I5530
sS'1pNoNmo'
p4787
I4200
sS'1moItcQ'
p4788
I539
sS'1snF32y'
p4789
I2217
sS'1rK3cQF'
p4790
I580
sS'1l3APHZ'
p4791
I132
sS'Uw3qw8'
p4792
I675
sS'1juKvq1'
p4793
I2713
sS'1p5vZK7'
p4794
I5155
sS'1jm7yDq'
p4795
I5301
sS'1hiqq6B'
p4796
I6384
sS'1phdUMn'
p4797
I1446
sS'1kQORdn'
p4798
I2194
sS'1kTDwcs'
p4799
I3814
sS'1q4k2YR'
p4800
I634
sS'RNPtrM'
p4801
I4352
sS'1jmY40n'
p4802
I4950
sS'1lcbWpm'
p4803
I4957
sS'TOGXdo'
p4804
I592
sS'1gclEfT'
p4805
I1266
sS'1p051ad'
p4806
I6322
sS'1sSpQ6w'
p4807
I6390
sS'1kPfv6r'
p4808
I6386
sS'1sLPRnU'
p4809
I2436
sS'1pgsIHR'
p4810
I3676
sS'1kEFD29'
p4811
I3879
sS'1hO8UfW'
p4812
I5537
sS'1jul2kD'
p4813
I2903
sS'1q9drNK'
p4814
I3232
sS'1wSvQOA'
p4815
I6392
sS'1h139WE'
p4816
I5962
sS'1l979VE'
p4817
I1543
sS'1iRf7X9'
p4818
I4011
sS'1nSv5jo'
p4819
I4236
sS'1qj7nS8'
p4820
I4104
sS'1ozAlZW'
p4821
I5029
sS'Vmb2SF'
p4822
I2770
sS'1nZEibA'
p4823
I1214
sS'1p3tOtR'
p4824
I3420
sS'1hXoSo5'
p4825
I6395
sS'1dpQkZ7'
p4826
I6396
sS'1kIjgsL'
p4827
I6625
sS'1isMmRi'
p4828
I5970
sS'1sh5oiS'
p4829
I505
sS'1hRmC24'
p4830
I1373
sS'1lw0qpp'
p4831
I6400
sS'1wih2cR'
p4832
I4564
sS'tvVNgq'
p4833
I4205
sS'1jeCrcR'
p4834
I5169
sS'1hj72eW'
p4835
I283
sS'1mKMFql'
p4836
I3517
sS'1hizxEg'
p4837
I312
sS'1wu19Qt'
p4838
I1340
sS'1p8Nz3m'
p4839
I4061
sS'SZsOJx'
p4840
I3798
sS'TUmZy9'
p4841
I6403
sS'1hbQzJP'
p4842
I2712
sS'1ptjRCJ'
p4843
I6334
sS'1j4er1C'
p4844
I4250
sS'1n3w00d'
p4845
I1464
sS'1kzQeNz'
p4846
I5324
sS'1pu9MFG'
p4847
I5546
sS'1l1wrK0'
p4848
I6405
sS'1kTpB9n'
p4849
I4935
sS'1jQ2xJ9'
p4850
I6406
sS'1ntQWyu'
p4851
I3644
sS'1jXJiaU'
p4852
I2240
sS'1opmCYJ'
p4853
I3938
sS'1tXWxQv'
p4854
I1374
sS'1vjAzZR'
p4855
I4735
sS'1kEpN7Q'
p4856
I4343
sS'1pl09Jk'
p4857
I6409
sS'1hhqRUd'
p4858
I1653
sS'1qg99U2'
p4859
I6410
sS'1oGNDUJ'
p4860
I2390
sS'1iL275k'
p4861
I6411
sS'1oaoTUy'
p4862
I6246
sS'1lcnaz8'
p4863
I1072
sS'RsC9JL'
p4864
I5978
sS'1h1sLTb'
p4865
I1490
sS'1i4UatL'
p4866
I5551
sS'1tL8sPF'
p4867
I6204
sS'1qkNY3W'
p4868
I3082
sS'1puOeJ4'
p4869
I4435
sS'1yq5tRM'
p4870
I383
sS'1uAwehR'
p4871
I1762
sS'1fKUtsf'
p4872
I6416
sS'1geLjEN'
p4873
I6325
sS'1gELSCp'
p4874
I6417
sS'1jdpi9G'
p4875
I3807
sS'T2NAbe'
p4876
I4210
sS'1k66MQV'
p4877
I49
sS'1jbXoLh'
p4878
I3323
sS'1me5rpU'
p4879
I5389
sS'RQ2Fwp'
p4880
I196
sS'1hlm9ix'
p4881
I1250
sS'1vhI4AA'
p4882
I5557
sS'1gyOlDO'
p4883
I2212
sS'1lEkFBg'
p4884
I2265
sS'1jwEegG'
p4885
I5820
sS'1jtDdEo'
p4886
I6419
sS'1lfxy8K'
p4887
I6420
sS'1hNq8do'
p4888
I6421
sS'1hy5Vm3'
p4889
I3465
sS'1hfkPDN'
p4890
I2086
sS'1oITetz'
p4891
I6364
sS'1jyJG0l'
p4892
I5561
sS'1jBCNhZ'
p4893
I3
sS'1hiQ1Mv'
p4894
I5024
sS'1nIOiWw'
p4895
I1182
sS'1iSoAxs'
p4896
I4562
sS'SIRYvY'
p4897
I1930
sS'1h9uCFz'
p4898
I6425
sS'1pOR5xv'
p4899
I4270
sS'1hzv1BA'
p4900
I2874
sS'1htbRxa'
p4901
I6426
sS'1ghmvLZ'
p4902
I6427
sS'1udLDaq'
p4903
I6099
sS'1uJLuc6'
p4904
I2016
sS'1sMyIZB'
p4905
I1632
sS'1sjqGwh'
p4906
I5566
sS'1gGEhsP'
p4907
I6261
sS'1gjLKgH'
p4908
I6191
sS'S3n55a'
p4909
I1396
sS'SBF7eK'
p4910
I6431
sS'1kueB1U'
p4911
I4199
sS'1kQ9kRP'
p4912
I5403
sS'1kJpsCm'
p4913
I4048
sS'Sj5YMI'
p4914
I4804
sS'TIlthP'
p4915
I2798
sS'1hBHgxo'
p4916
I3289
sS'1pC2cJs'
p4917
I2061
sS'1hLZHFl'
p4918
I449
sS'1mr27o4'
p4919
I2191
sS'1pK5wFq'
p4920
I2084
sS'1ljK5HC'
p4921
I5992
sS'1oet8Bv'
p4922
I4629
sS'1r0uYrH'
p4923
I3303
sS'1ob2WVO'
p4924
I1647
sS'1tvCQgZ'
p4925
I894
sS'1rhPpgk'
p4926
I2320
sS'1oYUWJ6'
p4927
I2467
sS'1go0Li2'
p4928
I3462
sS'1kPowfR'
p4929
I2969
sS'1iPJOMl'
p4930
I2351
sS'1hCpry3'
p4931
I1607
sS'1tAJGlk'
p4932
I3761
sS'1pBL3ja'
p4933
I1643
sS'1kx6SQW'
p4934
I3584
sS'1jTFTyb'
p4935
I59
sS'1k5M02t'
p4936
I6441
sS'1hqdlI0'
p4937
I4878
sS'1vcBPx3'
p4938
I1377
sS'SsHjow'
p4939
I5573
sS'1qw82R3'
p4940
I3331
sS'SUSUwR'
p4941
I1401
sS'1p2XzHN'
p4942
I1204
sS'1oSye4m'
p4943
I245
sS'1q6Kvp0'
p4944
I1734
sS'1kFE60y'
p4945
I2482
sS'1meaeaS'
p4946
I6445
sS'1jjVum2'
p4947
I6447
sS'1nYmGzn'
p4948
I5471
sS'1vhctih'
p4949
I2294
sS'1iwGZPK'
p4950
I1166
sS'1nB4RGD'
p4951
I5173
sS'1nSTTeO'
p4952
I2518
sS'1ko4jA7'
p4953
I3095
sS'1kP8HJa'
p4954
I6448
sS'S3domH'
p4955
I6449
sS'1hsJH4R'
p4956
I5715
sS'ROuDsz'
p4957
I5016
sS'RfqU6W'
p4958
I3337
sS'N60snP'
p4959
I4955
sS'1oRdqJo'
p4960
I6190
sS'1l9IdSd'
p4961
I1368
sS'1kJYGwU'
p4962
I3766
sS'RJyreT'
p4963
I6001
sS'RPjJCT'
p4964
I3965
sS'11Phhjv'
p4965
I1776
sS'1gmflGr'
p4966
I5574
sS'1jWKU94'
p4967
I6137
sS'1m51g0O'
p4968
I1865
sS'1qxh3IC'
p4969
I1713
sS'1g2Jxky'
p4970
I639
sS'1oHXgUJ'
p4971
I6451
sS'1rWFqkz'
p4972
I5445
sS'1nPUrQ5'
p4973
I995
sS'1pyllg9'
p4974
I5798
sS'VzAUKS'
p4975
I67
sS'Trg0MI'
p4976
I425
sS'1qXWYsd'
p4977
I3683
sS'1gLArsl'
p4978
I6453
sS'1kILvJi'
p4979
I1159
sS'1pCJWQ6'
p4980
I4875
sS'1ghUDaY'
p4981
I5907
sS'1ghqmZF'
p4982
I6350
sS'1j7pukI'
p4983
I6455
sS'1o23NdY'
p4984
I5623
sS'1iND254'
p4985
I141
sS'1qh4GAE'
p4986
I6069
sS'TlY85q'
p4987
I3035
sS'1fGdf1J'
p4988
I6008
sS'1jZ5Nxj'
p4989
I3354
sS'TzRvww'
p4990
I1319
sS'U5sV7E'
p4991
I3171
sS'1gdvMok'
p4992
I1017
sS'1jfeS9A'
p4993
I6106
sS'TvEVik'
p4994
I1018
sS'1pIszR6'
p4995
I1633
sS'1kwtJfs'
p4996
I931
sS'1kZ8hOS'
p4997
I2588
sS'1jzSwzN'
p4998
I3187
sS'1lCnP8H'
p4999
I6460
sS'1gqqFkS'
p5000
I1097
sS'1iIuRev'
p5001
I4910
sS'1kxe0Ne'
p5002
I4160
sS'1kDdkW4'
p5003
I6461
sS'1ktwslu'
p5004
I2069
sS'1k9CS8O'
p5005
I4311
sS'R0DRBL'
p5006
I6016
sS'Vpw56D'
p5007
I4813
sS'1iHguT8'
p5008
I57
sS'1kqIWyi'
p5009
I5580
sS'1l0OLxV'
p5010
I434
sS'1rdpq9P'
p5011
I3391
sS'1fFHMPk'
p5012
I3247
sS'1mrECuW'
p5013
I4152
sS'1hXvuRi'
p5014
I5398
sS'1jbPv7A'
p5015
I5816
sS'1grcFXY'
p5016
I175
sS'1jlpMG0'
p5017
I6726
sS'1w6tpsj'
p5018
I6074
sS'1jxAuJH'
p5019
I4267
sS'1j3yqxy'
p5020
I230
sS'1mGQbSH'
p5021
I2791
sS'1lSHncp'
p5022
I6178
sS'1qBSwiT'
p5023
I2437
sS'V1YK1A'
p5024
I1666
sS'1gsc6NU'
p5025
I2333
sS'1ib9VNd'
p5026
I5647
sS'1kK86bG'
p5027
I4166
sS'TyiBE4'
p5028
I2585
sS'1q8pJoH'
p5029
I3376
sS'1km53Go'
p5030
I5463
sS'1hD5Lu7'
p5031
I1297
sS'1pa5naR'
p5032
I6205
sS'1pb3tXA'
p5033
I6467
sS'1jmOda2'
p5034
I3372
sS'1kQbNww'
p5035
I3024
sS'1mDQgGi'
p5036
I5251
sS'1ld4aQV'
p5037
I3999
sS'1vgycGd'
p5038
I913
sS'1q3TPr3'
p5039
I1495
sS'1htpOuU'
p5040
I6468
sS'1kh3xEK'
p5041
I3302
sS'QaM0lJ'
p5042
I206
sS'1nYFFHH'
p5043
I6470
sS'1nxyrdk'
p5044
I2114
sS'1jrYM6Z'
p5045
I6054
sS'UmeJae'
p5046
I6341
sS'1rS1v0g'
p5047
I3241
sS'Rp5FPO'
p5048
I1152
sS'TuxQhY'
p5049
I1506
sS'1tAg33z'
p5050
I4239
sS'1mUPXWA'
p5051
I6474
sS'ODEeQK'
p5052
I4516
sS'1mEMcWB'
p5053
I3826
sS'SjwKVm'
p5054
I1863
sS'1qz2CVp'
p5055
I2055
sS'1pdWz7c'
p5056
I6077
sS'1lwxAdO'
p5057
I1009
sS'1gyNKC2'
p5058
I4240
sS'1h9Mj7Z'
p5059
I5305
sS'1gz6taZ'
p5060
I5920
sS'1glPted'
p5061
I5313
sS'1kDc7LR'
p5062
I5283
sS'RojHRm'
p5063
I4811
sS'SCXNe1'
p5064
I3830
sS'1tsia9E'
p5065
I1569
sS'1hSYI3P'
p5066
I1707
sS'1krZK5h'
p5067
I79
sS'1qX104c'
p5068
I2193
sS'1gXNyqI'
p5069
I6347
sS'1iSzVsz'
p5070
I81
sS'1iQBPyH'
p5071
I3940
sS'1sALvnb'
p5072
I1193
sS'1vkbfQF'
p5073
I2039
sS'1wAUJOI'
p5074
I2720
sS'1iGaT1x'
p5075
I5922
sS'kVECY0'
p5076
I5823
sS'1hBurTm'
p5077
I3911
sS'UsrrEs'
p5078
I4492
sS'1oLzXHN'
p5079
I4019
sS'1mNGksL'
p5080
I450
sS'1pfD4c3'
p5081
I2647
sS'1v80YHj'
p5082
I1326
sS'1hj1ly7'
p5083
I473
sS'1pv43Q0'
p5084
I3400
sS'1jup0G0'
p5085
I1378
sS'1ihAb8N'
p5086
I4925
sS'18I8LmO'
p5087
I2686
sS'Tr3P1X'
p5088
I1692
sS'1mL0Bz1'
p5089
I6412
sS'1ssMG7Y'
p5090
I5968
sS'RGJTHi'
p5091
I2547
sS'1l0adnu'
p5092
I1165
sS'1gEX2MT'
p5093
I114
sS'1hu4gyg'
p5094
I4753
sS'1ocSn5z'
p5095
I6223
sS'1qSmH5e'
p5096
I1622
sS'1pU9ysM'
p5097
I3454
sS'1h11FMb'
p5098
I3090
sS'1kudPlV'
p5099
I3360
sS'1gHVdPg'
p5100
I1123
sS'1hyyNuF'
p5101
I2220
sS'1l6mh6k'
p5102
I1263
sS'V5PBFk'
p5103
I3591
sS'1miRN39'
p5104
I3306
sS'1psJZBa'
p5105
I3610
sS'1nd3B9l'
p5106
I25
sS'1m029Yy'
p5107
I5262
sS'Tpoi7p'
p5108
I5637
sS'1l91m7o'
p5109
I2641
sS'1pjstMb'
p5110
I2257
sS'1kCgY2Q'
p5111
I3691
sS'1jbL7AS'
p5112
I1844
sS'1sUXSVT'
p5113
I4384
sS'1joQVs7'
p5114
I179
sS'Qz2rcJ'
p5115
I6010
sS'1mUyFcf'
p5116
I2805
sS'1nBnEOI'
p5117
I985
sS'1l3IBCl'
p5118
I4718
sS'1jqaa3k'
p5119
I6486
sS'UAjyx0'
p5120
I5899
sS'Tti86a'
p5121
I6487
sS'1kWUyd1'
p5122
I5518
sS'1qWK9yu'
p5123
I4512
sS'1nJbjW0'
p5124
I5475
sS'1ksZYaJ'
p5125
I6562
sS'1juqwIf'
p5126
I1370
sS'1hsVFMn'
p5127
I2754
sS'1gBxgne'
p5128
I4218
sS'1hp08Q8'
p5129
I5337
sS'1jqaeoo'
p5130
I6488
sS'1o6D0x9'
p5131
I1099
sS'UyXvqd'
p5132
I4776
sS'T77qC6'
p5133
I5112
sS'1gmLRbj'
p5134
I4577
sS'1jSzMHg'
p5135
I3353
sS'1nYQPvW'
p5136
I1439
sS'1od7zPD'
p5137
I500
sS'1j0eUhq'
p5138
I5953
sS'1oQJr4p'
p5139
I1402
sS'1oUeyfm'
p5140
I2345
sS'1iSLOp1'
p5141
I608
sS'1pwfqZQ'
p5142
I5470
sS'1pK0qsR'
p5143
I4096
sS'1p67tZf'
p5144
I4575
sS'1jEeXOn'
p5145
I6229
sS'1jOOaik'
p5146
I837
sS'1hYEmWI'
p5147
I1674
sS'1iRJ8CB'
p5148
I6492
sS'1l4cwKI'
p5149
I6493
sS'1l0YQz8'
p5150
I2994
sS'1glVhnR'
p5151
I6056
sS'1lkYELO'
p5152
I5493
sS'1mu5sF8'
p5153
I3210
sS'1khM8Mk'
p5154
I1978
sS'1pvKM46'
p5155
I5498
sS'1nh4Gvg'
p5156
I4043
sS'1kBu3X8'
p5157
I5083
sS'1lEQNrh'
p5158
I4249
sS'1giWLiE'
p5159
I6138
sS'1pce6KH'
p5160
I6615
sS'1kW4dxc'
p5161
I6046
sS'1h9zCtP'
p5162
I2304
sS'1o3Akgk'
p5163
I1754
sS'Usff6O'
p5164
I6495
sS'1q5przH'
p5165
I6456
sS'1mHkgQt'
p5166
I2970
sS'1kEvtmV'
p5167
I6496
sS'1e9W5Lw'
p5168
I5866
sS'1jbiSlL'
p5169
I3572
sS'1mUlcRU'
p5170
I467
sS'1hjdRxw'
p5171
I1755
sS'1iSXrup'
p5172
I5876
sS'1joXc5L'
p5173
I5885
sS'1o75arU'
p5174
I6327
sS'1ghE9Kj'
p5175
I2207
sS'1mEaRJp'
p5176
I4014
sS'1uhngHW'
p5177
I2626
sS'1lyVcNT'
p5178
I4740
sS'1jOHqBh'
p5179
I5902
sS'1qBKciR'
p5180
I6240
sS'1iaPQGG'
p5181
I6499
sS'Tmibk7'
p5182
I5231
sS'1hmYaQf'
p5183
I6095
sS'1mclaaf'
p5184
I2138
sS'1hedowz'
p5185
I6501
sS'UtjdvR'
p5186
I6502
sS'1qcrEZj'
p5187
I6165
sS'1kR8GRZ'
p5188
I4297
sS'1kLCY73'
p5189
I6079
sS'1kWTSB3'
p5190
I6242
sS'1nUyhgt'
p5191
I648
sS'1ieOGtX'
p5192
I2927
sS'1hRhyon'
p5193
I1181
sS'1p9TYet'
p5194
I1128
sS'1g9SQo4'
p5195
I6503
sS'UEuqtC'
p5196
I5100
sS'1oRxFGT'
p5197
I6504
sS'1gaQtBt'
p5198
I4818
sS'1hUaFTf'
p5199
I1957
sS'1pdKXhu'
p5200
I708
sS'1h34WKR'
p5201
I3041
sS'1m8kPRV'
p5202
I6506
sS'1msfhmA'
p5203
I1455
sS'1kzPf2q'
p5204
I1617
sS'1nKB4st'
p5205
I6365
sS'1iG70rF'
p5206
I1171
sS'1mmnWs8'
p5207
I966
sS'1qyJKF2'
p5208
I2214
sS'1g9D6kS'
p5209
I4481
sS'1lFtxtq'
p5210
I1911
sS'1pF4s2g'
p5211
I1925
sS'1nCcrO5'
p5212
I2894
sS'1nJiKy7'
p5213
I5347
sS'1q6IJCt'
p5214
I6509
sS'1kSHN34'
p5215
I4444
sS'1fK77aG'
p5216
I3190
sS'1g8FU25'
p5217
I6510
sS'1l6OI3Z'
p5218
I3725
sS'1jiDyy2'
p5219
I5201
sS'1jvfbYe'
p5220
I555
sS'1hO8WiK'
p5221
I5462
sS'1mB4EvL'
p5222
I5533
sS'Tf5OX1'
p5223
I4494
sS'1oyDklm'
p5224
I2323
sS'1lIjjpi'
p5225
I723
sS'1pi9Snp'
p5226
I5903
sS'1tX9SGP'
p5227
I5535
sS'1qK74j3'
p5228
I1209
sS'1ndyAFo'
p5229
I3257
sS'1paZT3b'
p5230
I6511
sS'RUMNca'
p5231
I5758
sS'1pICXWy'
p5232
I3494
sS'1pnWDiq'
p5233
I2123
sS'1tKP8lC'
p5234
I5420
sS'V2aMI5'
p5235
I244
sS'1hrWZ1E'
p5236
I6512
sS'1s2KQdV'
p5237
I348
sS'1kEIp97'
p5238
I6148
sS'1kU4u3N'
p5239
I3428
sS'1jkvfLZ'
p5240
I694
sS'1pDNq5B'
p5241
I2316
sS'1uxF4zK'
p5242
I3291
sS'1jovZVq'
p5243
I5833
sS'1qdwMtP'
p5244
I3998
sS'1pGMuzz'
p5245
I3776
sS'ZGjXd6'
p5246
I6515
sS'1vTKBkI'
p5247
I1944
sS'1kllhzf'
p5248
I2937
sS'1pwZ0z0'
p5249
I3307
sS'1sLRvpH'
p5250
I327
sS'1je5F1h'
p5251
I4241
sS'1kFwXwx'
p5252
I3313
sS'1hW7Scp'
p5253
I5477
sS'1heMQVW'
p5254
I4884
sS'1m6uXty'
p5255
I4411
sS'1m1zYZd'
p5256
I3825
sS'1oXtpsQ'
p5257
I268
sS'SpMma0'
p5258
I6516
sS'1jV0duA'
p5259
I3479
sS'1paYZUj'
p5260
I5497
sS'1rxly7o'
p5261
I3335
sS'1pwyh6g'
p5262
I6517
sS'1pQWNyf'
p5263
I463
sS'1lIc4iu'
p5264
I6208
sS'SCZ4Cd'
p5265
I5543
sS'1tC1Zqa'
p5266
I652
sS'1sIz20A'
p5267
I256
sS'1kFfTXb'
p5268
I5973
sS'TuQ5DW'
p5269
I6518
sS'1uV3ZKX'
p5270
I6519
sS'1q5MaZa'
p5271
I6275
sS'1gh4uxp'
p5272
I4404
sS'1v0DBPU'
p5273
I5545
sS'1oynQkm'
p5274
I5670
sS'15z1k01'
p5275
I3759
sS'1qhcZwl'
p5276
I6065
sS'1pANB0O'
p5277
I2197
sS'1kKuWNl'
p5278
I6522
sS'1yTpssm'
p5279
I6436
sS'1uHqQv8'
p5280
I4491
sS'1oyEWjg'
p5281
I5474
sS'1pPwatK'
p5282
I6523
sS'1pv2Knc'
p5283
I1539
sS'1kG9Typ'
p5284
I3771
sS'TJfObs'
p5285
I6093
sS'1kKP3Ox'
p5286
I5894
sS'Xvz88Y'
p5287
I6376
sS'1kM0VQf'
p5288
I4790
sS'1pjVjiT'
p5289
I269
sS'1k77X1t'
p5290
I2510
sS'1pMfMwV'
p5291
I1712
sS'1jccUB0'
p5292
I6527
sS'1pAsiiU'
p5293
I23
sS'SMVOnT'
p5294
I6383
sS'T1AhHX'
p5295
I5690
sS'1njgNrr'
p5296
I6462
sS'1ghv7SM'
p5297
I6266
sS'1hlZwjZ'
p5298
I3115
sS'1jyVqPs'
p5299
I4355
sS'1kH4DHD'
p5300
I4476
sS'1sPswSo'
p5301
I5090
sS'1kS5EzQ'
p5302
I4477
sS'1jn3yTb'
p5303
I6407
sS'1pCMgcI'
p5304
I6541
sS'1iAo3MV'
p5305
I5554
sS'UzhQMn'
p5306
I2675
sS'TG5u3Z'
p5307
I4380
sS'Up142g'
p5308
I689
sS'1iNiTMF'
p5309
I5841
sS'1tAw5dP'
p5310
I4427
sS'1hl19OL'
p5311
I5558
sS'TqkGSB'
p5312
I6458
sS'1sxS8Xa'
p5313
I4421
sS'TCgDU3'
p5314
I3206
sS'1rQMfR7'
p5315
I6514
sS'1qd69aP'
p5316
I5494
sS'1lsNKUy'
p5317
I1357
sS'1t0BpXv'
p5318
I3288
sS'1nlXYsq'
p5319
I377
sS'1hC2sDg'
p5320
I3809
sS'1wSyDaB'
p5321
I4610
sS'1nRk9V3'
p5322
I524
sS'SBoujB'
p5323
I1100
sS'1gUbUXW'
p5324
I126
sS'1sgbXSS'
p5325
I4864
sS'1kukF5W'
p5326
I6533
sS'1k8Qc1n'
p5327
I6166
sS'1kDe9Pa'
p5328
I5101
sS'1pMBKjr'
p5329
I3816
sS'1sJpnn2'
p5330
I3884
sS'1jDsU49'
p5331
I2170
sS'1nMtP3j'
p5332
I4836
sS'1lWcO6d'
p5333
I4339
sS'1gaIFQ4'
p5334
I4583
sS'1kMR8su'
p5335
I5568
sS'1kMR8sw'
p5336
I5569
sS'1prEtfP'
p5337
I6089
sS'1l4qHup'
p5338
I4420
sS'1kTMjOP'
p5339
I1658
sS'1ljSicW'
p5340
I610
sS'1gILU1A'
p5341
I6535
sS'1kyyZjI'
p5342
I4773
sS'1jGPYd3'
p5343
I6042
sS'1hC9Oq5'
p5344
I2268
sS'10EGg8H'
p5345
I5685
sS'1sIwoIc'
p5346
I152
sS'1jyFZXK'
p5347
I3525
sS'1qFfju1'
p5348
I4203
sS'1ngAB0h'
p5349
I1351
sS'Rfx1s7'
p5350
I6536
sS'1nX6xG9'
p5351
I1520
sS'1kXBiHS'
p5352
I124
sS'1lMHOEG'
p5353
I1871
sS'HtMOOn'
p5354
I6595
sS'1m0bChV'
p5355
I636
sS'1h4ife4'
p5356
I5449
sS'TTY5yK'
p5357
I1393
sS'1jpr5ml'
p5358
I1497
sS'1mOhf5u'
p5359
I293
sS'JdFgkm'
p5360
I6537
sS'1mzhyOl'
p5361
I2630
sS'1qxiaI4'
p5362
I6402
sS'1pWsiav'
p5363
I6250
sS'1jXMft3'
p5364
I3048
sS'1gJbr5n'
p5365
I4276
sS'1jf2XYf'
p5366
I2209
sS'Tz2U0c'
p5367
I3327
sS'1vaqdbY'
p5368
I1650
sS'1sSiAHX'
p5369
I4109
sS'SLU2TM'
p5370
I5481
sS'1gplMSv'
p5371
I4913
sS'1tD1FaA'
p5372
I6218
sS'1nejlLb'
p5373
I1006
sS'1kGcSa2'
p5374
I6539
sS'1hljPrG'
p5375
I2942
sS'1jqMocb'
p5376
I2395
sS'1psnmwm'
p5377
I2725
sS'17wXrKK'
p5378
I1912
sS'1poOjOp'
p5379
I6543
sS'1mVDfvk'
p5380
I3634
sS'1ojEFgD'
p5381
I7
sS'1jeyr0Q'
p5382
I6544
sS'1ioFe43'
p5383
I3799
sS'UStJNk'
p5384
I2190
sS'1nDMsYn'
p5385
I2882
sS'1qL8qdo'
p5386
I6547
sS'1oaWFw0'
p5387
I439
sS'Th2NWa'
p5388
I6173
sS'1pPWkg0'
p5389
I6718
sS'1jyCyjQ'
p5390
I386
sS'1lPTo3b'
p5391
I6551
sS'1oYnLqA'
p5392
I277
sS'1qmtbfi'
p5393
I5693
sS'1qwITSq'
p5394
I581
sS'1gC4B6R'
p5395
I1853
sS'1ptpZ17'
p5396
I6561
sS'1txNsvB'
p5397
I4312
sS'1iyBVfZ'
p5398
I5805
sS'1isP2wT'
p5399
I5967
sS'TlXRzh'
p5400
I1437
sS'1nOr5n9'
p5401
I2868
sS'1m40y5R'
p5402
I6004
sS'1pb4Lmj'
p5403
I6555
sS'1j6yVlF'
p5404
I541
sS'RIjRnl'
p5405
I3071
sS'R4HDsX'
p5406
I4561
sS'1qvXAIe'
p5407
I4665
sS'V5BSyb'
p5408
I146
sS'QJ53Ep'
p5409
I930
sS'1kCKW5o'
p5410
I6298
sS'1m0KY8H'
p5411
I4323
sS'1kY26MB'
p5412
I5704
sS'1vcBRVq'
p5413
I1380
sS'1kFBNKS'
p5414
I6388
sS'1hqRPn0'
p5415
I2565
sS'TSkYCe'
p5416
I896
sS'SMhkJc'
p5417
I6549
sS'1nONQEo'
p5418
I3184
sS'1v4LRhB'
p5419
I755
sS'1wmJABQ'
p5420
I1612
sS'1jhEBcG'
p5421
I4606
sS'1wl1ogF'
p5422
I1151
sS'Sn1Cnf'
p5423
I384
sS'T0yT9l'
p5424
I4587
sS'SXysvE'
p5425
I3488
sS'1l6UJOe'
p5426
I6558
sS'1nrCdCO'
p5427
I1988
sS'1kHSiFM'
p5428
I488
sS'1hq8NSm'
p5429
I6559
sS'1kSRz1T'
p5430
I6560
sS'1pp6V4e'
p5431
I4195
sS'1kOeD0k'
p5432
I833
sS'1lsBwLK'
p5433
I4872
sS'1qjTXCe'
p5434
I336
sS'1kHmWel'
p5435
I5687
sS'UU7sOV'
p5436
I813
sS'PRlDkR'
p5437
I1317
sS'1pHoVUs'
p5438
I2213
sS'1k2EnWl'
p5439
I2490
sS'1ldGfR3'
p5440
I6248
sS'1o83WNc'
p5441
I2629
sS'1kVGsnr'
p5442
I875
sS'1hAsEOz'
p5443
I4687
sS'1kV4yAp'
p5444
I321
sS'1qyH0aC'
p5445
I4617
sS'1kKOHaH'
p5446
I2208
sS'Tql0kd'
p5447
I3853
sS'1gsLRBx'
p5448
I6566
sS'1hXUzrN'
p5449
I357
sS'1o6dDIz'
p5450
I313
sS'RLPnk9'
p5451
I3278
sS'1otiFn0'
p5452
I6059
sS'1p2Vsnm'
p5453
I2469
sS'1hfc6Bj'
p5454
I2543
sS'1gPgi51'
p5455
I3365
sS'1h8VTYP'
p5456
I5531
sS'1mHkTJN'
p5457
I304
sS'TBxN3e'
p5458
I4336
sS'1rcpWES'
p5459
I3662
sS'1jNdG82'
p5460
I3292
sS'TJB2G9'
p5461
I2118
sS'1mJEaue'
p5462
I6084
sS'1l0dy5Y'
p5463
I4088
sS'1hGj9TT'
p5464
I6394
sS'VrsPHV'
p5465
I1847
sS'1kBrirE'
p5466
I2365
sS'1ou09uz'
p5467
I4015
sS'1qzfee7'
p5468
I5127
sS'1o0AJQI'
p5469
I2224
sS'1nOhhtm'
p5470
I2380
sS'1s6W2pR'
p5471
I2260
sS'UoDe6L'
p5472
I6430
sS'1pSnHEt'
p5473
I939
sS'TQPxbT'
p5474
I4145
sS'1jpQ0uY'
p5475
I314
sS'1gZyCsc'
p5476
I1264
sS'1qtiW9d'
p5477
I3987
sS'1nIX7kE'
p5478
I4394
sS'1sCoQBm'
p5479
I6225
sS'1iTontN'
p5480
I4296
sS'ROPN9X'
p5481
I6577
sS'SxAkLs'
p5482
I5079
sS'1oFqaVn'
p5483
I3844
sS'TflF7Z'
p5484
I920
sS'1oAdfoY'
p5485
I3023
sS'1jSENOX'
p5486
I6624
sS'1sNURZd'
p5487
I6328
sS'1jsZu4V'
p5488
I6576
sS'1kQeZXs'
p5489
I5673
sS'Tmb7Es'
p5490
I291
sS'1gsY0f3'
p5491
I2710
sS'1jql79G'
p5492
I2448
sS'1jgtTCr'
p5493
I4543
sS'1pct2uN'
p5494
I1133
sS'1jL9ntG'
p5495
I3682
sS'1nh4Tig'
p5496
I3626
sS'1gojvxL'
p5497
I1780
sS'1qCgmyL'
p5498
I1694
sS'1mXTZxK'
p5499
I5015
sS'1pNo7Ag'
p5500
I366
sS'1nsIpvK'
p5501
I4330
sS'UkXGEd'
p5502
I4178
sS'1iDQpHO'
p5503
I3803
sS'1lGpJq2'
p5504
I5275
sS'1kF8mIW'
p5505
I6524
sS'1oYvxgL'
p5506
I712
sS'1nrXPQ1'
p5507
I1971
sS'1kuImPX'
p5508
I5744
sS'1mDQH2T'
p5509
I5929
sS'1ggrwov'
p5510
I2338
sS'UUB52Z'
p5511
I4332
sS'1hZqgky'
p5512
I3139
sS'1uTgDvG'
p5513
I2394
sS'1i9te9J'
p5514
I1156
sS'1jUUdI1'
p5515
I2706
sS'1fTzHGS'
p5516
I2452
sS'1qFJUu9'
p5517
I5205
sS'1hl17Xg'
p5518
I5511
sS'1kQj9yn'
p5519
I125
sS'1pTEj08'
p5520
I2870
sS'1kFsB4R'
p5521
I2955
sS'U3wefn'
p5522
I546
sS'1o0C79n'
p5523
I6683
sS'1kpn469'
p5524
I3173
sS'1nwcZDF'
p5525
I3892
sS'1p0OlM9'
p5526
I4570
sS'1ogQy7f'
p5527
I5514
sS'1lIK96C'
p5528
I5988
sS'U0V2o7'
p5529
I5515
sS'1mwRC2s'
p5530
I6582
sS'1gwYwZz'
p5531
I6699
sS'TlF2fI'
p5532
I697
sS'1kNyhy1'
p5533
I6583
sS'1uejQXp'
p5534
I3205
sS'1poyes4'
p5535
I272
sS'1kYhA46'
p5536
I5465
sS'1lFcc59'
p5537
I6706
sS'1oAw48c'
p5538
I3496
sS'1hrfzHu'
p5539
I4754
sS'1mEFWio'
p5540
I215
sS'1kI8e6F'
p5541
I4372
sS'1v3AGaX'
p5542
I453
sS'1m7oFxg'
p5543
I6590
sS'1jrn2WM'
p5544
I4414
sS'1pXWRPU'
p5545
I5096
sS'1m89hCc'
p5546
I5419
sS'1iXTwNM'
p5547
I4817
sS'1pcqv0e'
p5548
I4877
sS'1mAehwE'
p5549
I1509
sS'1fefF7e'
p5550
I5966
sS'1pCd7mr'
p5551
I1790
sS'1qGaPHq'
p5552
I2300
sS'Q76USI'
p5553
I6398
sS'1o1VNpT'
p5554
I2375
sS'1mWtXiI'
p5555
I2434
sS'1g1xDan'
p5556
I4037
sS'1hNJnl0'
p5557
I5950
sS'1j16TLQ'
p5558
I6317
sS'1rqsAXP'
p5559
I3734
sS'1jZV9sq'
p5560
I5939
sS'1rzy06B'
p5561
I2342
sS'1pteLrc'
p5562
I6438
sS'1kDeKgB'
p5563
I6593
sS'1pfoXpc'
p5564
I564
sS'1hcqRiT'
p5565
I3362
sS'1lXhNDQ'
p5566
I4445
sS'1oqSFYr'
p5567
I2522
sS'1gwCZQs'
p5568
I6570
sS'1gvEY7T'
p5569
I5672
sS'1pB6Isk'
p5570
I5521
sS'1haHHyB'
p5571
I3042
sS'1ggsfpn'
p5572
I4363
sS'1lfoDkT'
p5573
I6051
sS'177GBNH'
p5574
I6483
sS'1kO1LJ1'
p5575
I2792
sS'1qKXhJR'
p5576
I4666
sS'1jaeAuG'
p5577
I711
sS'1q0YTPa'
p5578
I6596
sS'1qeOGPv'
p5579
I656
sS'1oRrLsG'
p5580
I6598
sS'1k6DTQ1'
p5581
I4155
sS'1lmEYYn'
p5582
I3595
sS'1tBbOon'
p5583
I3996
sS'UAHksE'
p5584
I5117
sS'1l7vnEC'
p5585
I3523
sS'1kqN95l'
p5586
I223
sS'1qwhUGI'
p5587
I6379
sS'1ktTUTY'
p5588
I3628
sS'1m7qOZQ'
p5589
I2002
sS'1jn6J1U'
p5590
I3910
sS'1vcF7Aa'
p5591
I1356
sS'1pg4td4'
p5592
I4272
sS'TDtEfY'
p5593
I1507
sS'1mjZjvR'
p5594
I2282
sS'1mjdQov'
p5595
I5441
sS'1qDS8jV'
p5596
I5524
sS'1jwwc4t'
p5597
I6600
sS'1kI367e'
p5598
I6601
sS'1hc9HBR'
p5599
I1073
sS'1gry0kd'
p5600
I6415
sS'1hwZDDb'
p5601
I4595
sS'1qwbMOA'
p5602
I3801
sS'1o5S2mZ'
p5603
I5692
sS'1mJeH40'
p5604
I2098
sS'QoJmZJ'
p5605
I596
sS'1m61zqK'
p5606
I6241
sS'SVTEmd'
p5607
I2226
sS'1odx6qH'
p5608
I2570
sS'1qlWrmO'
p5609
I3441
sS'1kmGslK'
p5610
I6473
sS'1jy4FVK'
p5611
I3135
sS'1kVANgY'
p5612
I4333
sS'1oruWEr'
p5613
I1921
sS'1ljYe8X'
p5614
I1660
sS'1ggI0Nw'
p5615
I5433
sS'1ljFBBK'
p5616
I2799
sS'Ungi84'
p5617
I6219
sS'1hCCvmN'
p5618
I6060
sS'1n6AWSW'
p5619
I225
sS'1g8Q42E'
p5620
I6587
sS'1ptniNi'
p5621
I3484
sS'1lqTKNg'
p5622
I3422
sS'TH9e5E'
p5623
I2447
sS'1nKhNaA'
p5624
I1582
sS'1pQ5kCn'
p5625
I5353
sS'1nYbL4r'
p5626
I300
sS'1pxYTD2'
p5627
I3808
sS'1msufuv'
p5628
I6464
sS'1ocqNaa'
p5629
I6605
sS'1t5TYMI'
p5630
I5996
sS'1sKiuSr'
p5631
I6606
sS'1da7GHU'
p5632
I6607
sS'TwbzQo'
p5633
I543
sS'1phIrXa'
p5634
I5954
sS'1klx3VJ'
p5635
I3713
sS'1m5qacE'
p5636
I4034
sS'1nYkt7f'
p5637
I4099
sS'1oKcCJA'
p5638
I2605
sS'1h014KG'
p5639
I5312
sS'1hzHlkZ'
p5640
I3765
sS'1nkKgT9'
p5641
I208
sS'1nVLrJ7'
p5642
I1421
sS'TlJwTG'
p5643
I4768
sS'1q5jOBD'
p5644
I2291
sS'1qYyDkw'
p5645
I5956
sS'1h5k2zy'
p5646
I2026
sS'1pGET4l'
p5647
I6613
sS'1hfZREF'
p5648
I5175
sS'1oTXmHn'
p5649
I5192
sS'TtT5jp'
p5650
I6277
sS'1kU8KDk'
p5651
I5400
sS'VgJ1fc'
p5652
I1960
sS'1kLByy2'
p5653
I4167
sS'Sa1OXE'
p5654
I4341
sS'TlBrOM'
p5655
I1673
sS'1k5Gt91'
p5656
I1511
sS'1v4H6HQ'
p5657
I382
sS'1g9WqP9'
p5658
I1026
sS'1jgWjll'
p5659
I4479
sS'1mk2pA9'
p5660
I5981
sS'1mFwqtd'
p5661
I6440
sS'1gC0Azk'
p5662
I1283
sS'1wCqFlS'
p5663
I568
sS'1iPVlqg'
p5664
I935
sS'1p6mPPt'
p5665
I5536
sS'1fCr4Ax'
p5666
I2726
sS'1tFZ8fR'
p5667
I3566
sS'1jeO9nP'
p5668
I3753
sS'1mIfvYx'
p5669
I1433
sS'1gBWEOZ'
p5670
I1293
sS'1mKtPmi'
p5671
I3739
sS'Vsp2dp'
p5672
I5825
sS'1psNCDS'
p5673
I2405
sS'1vkievJ'
p5674
I6616
sS'1gGZeUt'
p5675
I1802
sS'1m6qY3y'
p5676
I1292
sS'1gB72qs'
p5677
I6195
sS'1pJTA6u'
p5678
I6442
sS'TsLlOf'
p5679
I510
sS'1gCcnxL'
p5680
I5161
sS'1oki59I'
p5681
I6617
sS'1mDZ3tl'
p5682
I6105
sS'1hh5rqv'
p5683
I2517
sS'1iT8HXA'
p5684
I2122
sS'S8woAV'
p5685
I6618
sS'1pwGC8R'
p5686
I3021
sS'1gHrmo4'
p5687
I5969
sS'1l3e07N'
p5688
I536
sS'1niNFSu'
p5689
I6619
sS'1pBOKW4'
p5690
I5204
sS'TALTC0'
p5691
I4949
sS'1gt9qiI'
p5692
I6251
sS'1lFwTuL'
p5693
I5913
sS'1ti0a1s'
p5694
I3332
sS'1fTAVSm'
p5695
I1448
sS'1tHvHKD'
p5696
I184
sS'1h5kqhm'
p5697
I3522
sS'SpRLxy'
p5698
I5363
sS'1nNzvbl'
p5699
I3150
sS'1j0Ggb6'
p5700
I3081
sS'1oKwv31'
p5701
I5713
sS'1sWXdVS'
p5702
I1546
sS'1lL2Syg'
p5703
I6528
sS'1pC6uka'
p5704
I222
sS'1m44weE'
p5705
I2968
sS'1lRVRsA'
p5706
I2400
sS'UO5qzL'
p5707
I6717
sS'UuGu0k'
p5708
I1278
sS'1lIoDfa'
p5709
I4526
sS'1jXd1Ss'
p5710
I5158
sS'1hiuZxG'
p5711
I6628
sS'1ho2w9y'
p5712
I6367
sS'1qtNEz3'
p5713
I4016
sS'1g6us6B'
p5714
I793
sS'1jwdsC0'
p5715
I6629
sS'1sBm9TC'
p5716
I5975
sS'ThPLb9'
p5717
I4643
sS'1mdg0Gb'
p5718
I1207
sS'1p8hg10'
p5719
I4133
sS'1qndQbz'
p5720
I4340
sS'qbFATP'
p5721
I6630
sS'1oOrTWZ'
p5722
I3110
sS'TpvvVn'
p5723
I776
sS'1iJxRJ9'
p5724
I3188
sS'1nOy7bM'
p5725
I3520
sS'1h4dpNQ'
p5726
I6489
sS'1m4U5Va'
p5727
I2546
sS'1kjNq9S'
p5728
I6465
sS'1kUzKCL'
p5729
I6550
sS'ToBola'
p5730
I6507
sS'1nXxgXr'
p5731
I6
sS'pk8iCP'
p5732
I3918
sS'1x6mYVT'
p5733
I2218
sS'1jc2syn'
p5734
I4385
sS'1jBym8l'
p5735
I4281
sS'1n8Reuu'
p5736
I6637
sS'1wG4qw9'
p5737
I2362
sS'1kMRTOy'
p5738
I5000
sS'1jXVtdD'
p5739
I1232
sS'1pe4um5'
p5740
I533
sS'Tma7Qn'
p5741
I3883
sS'1hnBteM'
p5742
I3044
sS'SjsSDE'
p5743
I27
sS'Tx1x1b'
p5744
I5502
sS'1p3BiK1'
p5745
I1586
sS'1lSKksR'
p5746
I6061
sS'1pNqKB5'
p5747
I5982
sS'1jXp3KA'
p5748
I3741
sS'1nZV5JO'
p5749
I5388
sS'1qJgn0D'
p5750
I2515
sS'1ndrcDM'
p5751
I5071
sS'1jwLxaG'
p5752
I3315
sS'1nV4TGO'
p5753
I3891
sS'THEf9R'
p5754
I5348
sS'TkA6au'
p5755
I1811
sS'1qcPzb2'
p5756
I3649
sS'1inK6JO'
p5757
I6584
sS'1q7iSZI'
p5758
I6641
sS'1jxMOJ4'
p5759
I553
sS'1gCr0AW'
p5760
I101
sS'1pyug0n'
p5761
I2150
sS'1v79JkR'
p5762
I1623
sS'1hSCJGG'
p5763
I5563
sS'1hudc6K'
p5764
I6221
sS'1kx1jSE'
p5765
I1004
sS'1poknTv'
p5766
I5705
sS'1qpov8N'
p5767
I4359
sS'1lzENrS'
p5768
I1914
sS'1u911Sz'
p5769
I703
sS'1oRdGYX'
p5770
I4197
sS'1m2KeBf'
p5771
I5984
sS'1o7QQiL'
p5772
I2908
sS'1hal5yf'
p5773
I5652
sS'Tq1UdT'
p5774
I2188
sS'1lIn2WD'
p5775
I3820
sS'1gUWEdo'
p5776
I344
sS'1v5uJLs'
p5777
I6066
sS'1kChJ97'
p5778
I2779
sS'1hYXvV4'
p5779
I6644
sS'1kvTT1q'
p5780
I1274
sS'1gqhOA6'
p5781
I3052
sS'1iY5dCZ'
p5782
I2483
sS'1nS5wSS'
p5783
I6635
sS'1ny2FOJ'
p5784
I1775
sS'1nS5wSQ'
p5785
I5055
sS'1mxeLlj'
p5786
I5303
sS'1ogrLST'
p5787
I5700
sS'1wtkqSg'
p5788
I2083
sS'1jCLip2'
p5789
I5572
sS'RICuYd'
p5790
I5167
sS'1pzhsJY'
p5791
I2661
sS'1llhgLL'
p5792
I1270
sS'1li1ZH9'
p5793
I4449
sS'1pmNLIN'
p5794
I159
sS'OONQIZ'
p5795
I6167
sS'1gEK7KF'
p5796
I2824
sS'Spn3EH'
p5797
I5818
sS'1lU03rD'
p5798
I3136
sS'1onqY2x'
p5799
I4175
sS'1imDOds'
p5800
I6255
sS'1gnbM3d'
p5801
I5300
sS'R3N7ou'
p5802
I2
sS'1wQs8WK'
p5803
I290
sS'1lFN0uY'
p5804
I6563
sS'1psQ0gV'
p5805
I6648
sS'1lnx8NG'
p5806
I3685
sS'1gcQuVJ'
p5807
I2891
sS'1gsfGHA'
p5808
I942
sS'OyJ8OI'
p5809
I2479
sS'1jwOtEi'
p5810
I3077
sS'1bxMaXS'
p5811
I4924
sS'1ylHR0M'
p5812
I2458
sS'1gIult9'
p5813
I1453
sS'1uI2wt1'
p5814
I1287
sS'1oTSSQK'
p5815
I4374
sS'1jVA7rB'
p5816
I1113
sS'1guA62L'
p5817
I2024
sS'1dzyQcS'
p5818
I6521
sS'16WUGgT'
p5819
I2555
sS'1nWibTB'
p5820
I4499
sS'1sEIKh7'
p5821
I2407
sS'1jUtXMl'
p5822
I3251
sS'TmeZ8j'
p5823
I6121
sS'1oyFlSr'
p5824
I5998
sS'SEvnko'
p5825
I5239
sS'1kIc18W'
p5826
I4412
sS'1mnbJ4W'
p5827
I3088
sS'1jFEn2y'
p5828
I5289
sS'1sjt4xP'
p5829
I3116
sS'9DW8I2'
p5830
I3681
sS'1loAgrl'
p5831
I2846
sS'1kLDj9W'
p5832
I3127
sS'1leowEO'
p5833
I5426
sS'1kQDsbJ'
p5834
I393
sS'1oUGuCX'
p5835
I3131
sS'1isLg70'
p5836
I3132
sS'RFZ2c8'
p5837
I458
sS'RB1DE0'
p5838
I3559
sS'1qyrdpX'
p5839
I5987
sS'1p2wW6j'
p5840
I3148
sS'1nJseew'
p5841
I3060
sS'1gpqNBy'
p5842
I5406
sS'1lzF90x'
p5843
I6006
sS'1rQEue2'
p5844
I4914
sS'1pCnN4k'
p5845
I5890
sS'1o9OVc6'
p5846
I5352
sS'1gZWhZA'
p5847
I2690
sS'1sxe8S5'
p5848
I1002
sS'RJ5L5w'
p5849
I5745
sS'1jbO9uw'
p5850
I6609
sS'1lWgra5'
p5851
I6012
sS'1yTUNeo'
p5852
I5520
sS'1lpIIbu'
p5853
I4452
sS'1ip75S3'
p5854
I5943
sS'1gFrDd3'
p5855
I2776
sS'1tUrZ1X'
p5856
I332
sS'1nBpaPu'
p5857
I6014
sS'1h6chZY'
p5858
I4089
sS'1pNB9Op'
p5859
I4651
sS'1gxfRRV'
p5860
I4278
sS'1kOILgP'
p5861
I4364
sS'RjcmUd'
p5862
I6020
sS'1fGJXwK'
p5863
I6652
sS'1jDktpl'
p5864
I89
sS'1kDF8Jn'
p5865
I5217
sS'1pedeFd'
p5866
I4100
sS'1tDO3fg'
p5867
I4686
sS'TJnNFs'
p5868
I3817
sS'1kvsYCY'
p5869
I3565
sS'1kRNSwz'
p5870
I6349
sS'1oQ5bgW'
p5871
I6655
sS'1hoXbit'
p5872
I6531
sS'1meLm1x'
p5873
I4622
sS'1qmpJBC'
p5874
I3596
sS'1lwMdIT'
p5875
I6656
sS'1us8lKY'
p5876
I289
sS'1pzZMM5'
p5877
I6568
sS'1kEUZs7'
p5878
I480
sS'1hCzz9P'
p5879
I662
sS'1nRVaiB'
p5880
I1253
sS'1gC1Lie'
p5881
I4705
sS'1gidIcL'
p5882
I4279
sS'1j7IxR1'
p5883
I4703
sS'QNUFLm'
p5884
I224
sS'1uZUha1'
p5885
I3648
sS'1hK2eKx'
p5886
I1255
sS'1pD50qu'
p5887
I616
sS'1kL0FOj'
p5888
I6220
sS'UsuL2l'
p5889
I6070
sS'1lrsEpQ'
p5890
I4775
sS'1jWj21N'
p5891
I4164
sS'1onBB5F'
p5892
I5778
sS'1iWCEpE'
p5893
I6369
sS'1jMfXAc'
p5894
I3695
sS'1pdtZn6'
p5895
I3698
sS'1j3fSJn'
p5896
I247
sS'1dIgFlP'
p5897
I3716
sS'1jttEUw'
p5898
I781
sS'1hdjKGW'
p5899
I4942
sS'Lx1MFb'
p5900
I6485
sS'1pWFD5m'
p5901
I6657
sS'1nX8TG2'
p5902
I6614
sS'1qALvBr'
p5903
I3643
sS'1oDlVvc'
p5904
I389
sS'1s7IIML'
p5905
I14
sS'1m6M92L'
p5906
I3856
sS'1l7masI'
p5907
I4416
sS'1qjzFMk'
p5908
I5883
sS'1jz3GCn'
p5909
I6179
sS'1oVVe51'
p5910
I4219
sS'1o2XK5m'
p5911
I1102
sS'1lMMveb'
p5912
I397
sS'1oMvJPX'
p5913
I3039
sS'1yjhHvu'
p5914
I1423
sS'1gRscKS'
p5915
I6234
sS'1jYeMi7'
p5916
I6280
sS'1kDkrv7'
p5917
I2759
sS'1gAiQJq'
p5918
I3744
sS'1kHObtO'
p5919
I4845
sS'1pDueoM'
p5920
I6193
sS'1inHjxc'
p5921
I787
sS'1qqYUwZ'
p5922
I3878
sS'S9yekM'
p5923
I5119
sS'1iL7yAQ'
p5924
I5510
sS'1hgfTJ1'
p5925
I4153
sS'1kC9j4G'
p5926
I6186
sS'1pz0YhU'
p5927
I2038
sS'TtAggv'
p5928
I4844
sS'1kYdepx'
p5929
I6653
sS'1mBD8Sn'
p5930
I2621
sS'1inVzsM'
p5931
I3393
sS'Uo0EJa'
p5932
I333
sS'1hAksOq'
p5933
I3151
sS'1meMeqC'
p5934
I5512
sS'1tCuc07'
p5935
I4253
sS'1lkO8Qh'
p5936
I5725
sS'1jvVgx8'
p5937
I3542
sS'1kKtkFT'
p5938
I3984
sS'1gqF3tg'
p5939
I6149
sS'1piWbAV'
p5940
I1741
sS'1iMhd5H'
p5941
I3990
sS'1jbIgxs'
p5942
I5330
sS'1kLouHe'
p5943
I3846
sS'1nz7W9Z'
p5944
I3085
sS'1i2TaiE'
p5945
I5665
sS'1yU9e2g'
p5946
I318
sS'U0CKDs'
p5947
I5480
sS'1r0iMq7'
p5948
I5223
sS'UrONdb'
p5949
I6667
sS'1jvKcfy'
p5950
I679
sS'1pYNX1H'
p5951
I4191
sS'1iwOYfM'
p5952
I3743
sS'1huPiYI'
p5953
I2948
sS'1qtjpbh'
p5954
I1335
sS'QrtW7l'
p5955
I4094
sS'1qB3jdK'
p5956
I183
sS'fY6sp2'
p5957
I5797
sS'1gAgGts'
p5958
I3493
sS'1jsV1OD'
p5959
I3220
sS'1k28S2V'
p5960
I6569
sS'19F0voI'
p5961
I1049
sS'1nTjtQu'
p5962
I1698
sS'1peUd5N'
p5963
I6353
sS'1qEUeCQ'
p5964
I5359
sS'1k7e4SZ'
p5965
I3236
sS'1yVV3cV'
p5966
I5701
sS'1g8Meqe'
p5967
I2322
sS'1kU82FX'
p5968
I4187
sS'UnkNPP'
p5969
I1371
sS'1nX4TFm'
p5970
I3501
sS'1giP9MK'
p5971
I4224
sS'UXqZOG'
p5972
I515
sS'WXRZxx'
p5973
I5248
sS'1k6EPHg'
p5974
I6668
sS'1jWykTg'
p5975
I1513
sS'1jb7OoE'
p5976
I2582
sS'1nuMOSe'
p5977
I2019
sS'1pyZwfr'
p5978
I4256
sS'1nOVosH'
p5979
I6669
sS'1giRpDK'
p5980
I5733
sS'1lWG5z6'
p5981
I4810
sS'1oNw1Gh'
p5982
I1488
sS'1phiQhq'
p5983
I3857
sS'1golP8b'
p5984
I5247
sS'1jB0FhO'
p5985
I5626
sS'1kKppsZ'
p5986
I6525
sS'1hdJAQI'
p5987
I5316
sS'1l0Y4D2'
p5988
I5045
sS'1oCzMjH'
p5989
I5864
sS'TywS3B'
p5990
I3456
sS'1x9f5jf'
p5991
I1945
sS'1pQ3eSm'
p5992
I5839
sS'UbdQkM'
p5993
I5624
sS'Si5x5e'
p5994
I5063
sS'1jwvqcl'
p5995
I2674
sS'1gmQwtS'
p5996
I5893
sS'1jW6sEj'
p5997
I3324
sS'1kGj5zL'
p5998
I4232
sS'1p69WD0'
p5999
I4246
sS'1lzYX61'
p6000
I6673
sS'1h9uXrY'
p6001
I6375
sS'1oghZyt'
p6002
I820
sS'1ouNfZ6'
p6003
I6674
sS'1jIm6lG'
p6004
I6295
sS'1rCbWZ9'
p6005
I811
sS'1n3YE2Y'
p6006
I5461
sS'1lGd5v3'
p6007
I4455
sS'I1pEjd'
p6008
I4176
sS'1nILNBz'
p6009
I1715
sS'1gnsrTI'
p6010
I5607
sS'1hkFLmY'
p6011
I5364
sS'1nhY8MN'
p6012
I1314
sS'1gKqr2T'
p6013
I3485
sS'1iLuMr1'
p6014
I5912
sS'1kRuwHW'
p6015
I3925
sS'1iOlTz5'
p6016
I4211
sS'1xz5jHj'
p6017
I421
sS'1ptdy25'
p6018
I1498
sS'1qL5Ap1'
p6019
I6623
sS'1mdTSC7'
p6020
I2676
sS'1grXDBu'
p6021
I4554
sS'1g84EVx'
p6022
I5947
sS'1mzcoSy'
p6023
I1496
sS'1fNcKzR'
p6024
I5948
sS'1sEDxG4'
p6025
I6680
sS'1q0ntzG'
p6026
I6612
sS'1uvobVe'
p6027
I4490
sS'1oO3KE1'
p6028
I497
sS'1uto90Z'
p6029
I3174
sS'1jWOlyc'
p6030
I4688
sS'1jXMCIM'
p6031
I1467
sS'1nz8olq'
p6032
I3841
sS'1fOFQhM'
p6033
I4650
sS'1qqi59d'
p6034
I4652
sS'1fIOpkj'
p6035
I6640
sS'1mfDCPi'
p6036
I869
sS'1jhBma1'
p6037
I3030
sS'1tFqaEl'
p6038
I5424
sS'1jqEewp'
p6039
I172
sS'1hzVFdh'
p6040
I3200
sS'1qn2WDv'
p6041
I1362
sS'1mE38eh'
p6042
I5290
sS'1nSn69E'
p6043
I6176
sS'1iXH3JY'
p6044
I4733
sS'1jmX0Zm'
p6045
I6681
sS'1hIgRDp'
p6046
I250
sS'1qqZuak'
p6047
I4188
sS'1uSFu3L'
p6048
I6684
sS'1jx4SZh'
p6049
I3194
sS'1jizUDp'
p6050
I6216
sS'1heL5bd'
p6051
I4495
sS'1kUb25t'
p6052
I3014
sS'1mi71aQ'
p6053
I5041
sS'1gCprD2'
p6054
I2065
sS'1mTlJ6a'
p6055
I914
sS'1l0bN8K'
p6056
I1198
sS'1jbOCqV'
p6057
I6134
sS'1gcyULS'
p6058
I84
sS'SOBC4S'
p6059
I4983
sS'1nXggfC'
p6060
I4922
sS'1pUPsAV'
p6061
I1827
sS'1hCx5Z9'
p6062
I1818
sS'1k8udcr'
p6063
I5454
sS'1kY8umC'
p6064
I6686
sS'1jVCNFN'
p6065
I1118
sS'1gjCCJb'
p6066
I5830
sS'1mAwInR'
p6067
I1791
sS'1a4q2YZ'
p6068
I4911
sS'1ih9LGJ'
p6069
I1376
sS'1r1ZMmJ'
p6070
I5959
sS'1wd8C6l'
p6071
I3165
sS'1nXggfy'
p6072
I895
sS'1gPKsoD'
p6073
I5653
sS'TWJD99'
p6074
I4135
sS'1pMwFr7'
p6075
I3489
sS'1jaN8BO'
p6076
I2866
sS'1jClTLS'
p6077
I76
sS'1mXolQR'
p6078
I3746
sS'1p9wBhL'
p6079
I1485
sS'1lpu0RJ'
p6080
I1950
sS'1ghfW5D'
p6081
I5989
sS'1kHUZaW'
p6082
I6387
sS'TfQHwB'
p6083
I1587
sS'1hJu7rn'
p6084
I1079
sS'Rs2wyI'
p6085
I1127
sS'1jBK5y4'
p6086
I6722
sS'1mBSzda'
p6087
I2245
sS'1kTQzhh'
p6088
I6413
sS'18UuLv1'
p6089
I1920
sS'1jeh2WR'
p6090
I5435
sS'1joDS9O'
p6091
I6104
sS'1j0qRYk'
p6092
I3541
sS'UGMTWq'
p6093
I5302
sS'1hhAT82'
p6094
I4744
sS'1meW6R1'
p6095
I5540
sS'1yL1kIw'
p6096
I117
sS'1ku3812'
p6097
I2733
sS'RIAleO'
p6098
I1985
sS'1hbq5Iz'
p6099
I4987
sS'1q3eTk6'
p6100
I4208
sS'1gEJL7m'
p6101
I4327
sS'1pHx9M3'
p6102
I410
sS'1hauN3z'
p6103
I6687
sS'1oQ7Gjc'
p6104
I1085
sS'1kwWDdL'
p6105
I969
sS'1qkOdsK'
p6106
I5114
sS'1oOJz4j'
p6107
I1342
sS'TXeL8i'
p6108
I2616
sS'1mD3O2t'
p6109
I37
sS'1tGZzGK'
p6110
I6646
sS'1kP1gld'
p6111
I4170
sS'1iVJmJc'
p6112
I5726
sS'1mfTJfI'
p6113
I6691
sS'1kLhSKI'
p6114
I5717
sS'1gomsy6'
p6115
I6497
sS'1prci2D'
p6116
I1354
sS'1z0KhCk'
p6117
I5544
sS'1qeCR9k'
p6118
I5974
sS'1nzniZ2'
p6119
I1951
sS'1poz21V'
p6120
I1618
sS'1m3Gsph'
p6121
I3096
sS'1qL2bX0'
p6122
I5548
sS'15SlJA5'
p6123
I6330
sS'1nXvWmu'
p6124
I4597
sS'1kOQHi0'
p6125
I1425
sS'1lhq5RW'
p6126
I12
sS'1gHLQiF'
p6127
I4545
sS'1l7s4xf'
p6128
I5550
sS'1stdbFa'
p6129
I2419
sS'1ojLGAr'
p6130
I6695
sS'1lwR0dm'
p6131
I3477
sS'1oVWbHr'
p6132
I3146
sS'1dS9bwk'
p6133
I5152
sS'1hp0wOo'
p6134
I308
sS'1mHHndA'
p6135
I5552
sS'1oL2O2h'
p6136
I1651
sS'UUqNjq'
p6137
I5232
sS'HBVjEx'
p6138
I6030
sS'1if0xYW'
p6139
I1785
sS'1oSDiof'
p6140
I6244
sS'1oFYG1N'
p6141
I4027
sS'1hhLY96'
p6142
I5722
sS'1gw9kXS'
p6143
I5224
sS'1kK29da'
p6144
I210
sS'1kx1cBU'
p6145
I1969
sS'1kvE3DZ'
p6146
I431
sS'1iRxUBL'
p6147
I1074
sS'UIJuq8'
p6148
I517
sS'VqP94p'
p6149
I1180
sS'QBXK1k'
p6150
I3558
sS'1tJux15'
p6151
I6362
sS'1jgZNnY'
p6152
I2389
sS'1ftLJW8'
p6153
I6102
sS'1gDxVdf'
p6154
I3271
sS'1hrd0oM'
p6155
I2070
sS'1ip8ey9'
p6156
I55
sS'1jo9FGx'
p6157
I368
sS'1mvt51b'
p6158
I1282
sS'1sS71OX'
p6159
I3216
sS'1jBciLc'
p6160
I6301
sS'1mTSGzw'
p6161
I2374
sS'1hB86ZZ'
p6162
I5997
sS'1oNhcUz'
p6163
I834
sS'1l1BzOr'
p6164
I5884
sS'1gcnhua'
p6165
I5488
sS'1wnlpU6'
p6166
I6152
sS'StBtnm'
p6167
I2011
sS'rq5mxa'
p6168
I6050
sS'1gFeZez'
p6169
I3590
sS'1mHG7XR'
p6170
I6282
sS'1jeRJOQ'
p6171
I6052
sS'1oFRz8f'
p6172
I6180
sS'SrVwSX'
p6173
I6572
sS'SJ9PmK'
p6174
I3336
sS'1ryDz57'
p6175
I448
sS'1gpBKTe'
p6176
I5896
sS'1myIcWx'
p6177
I237
sS'1kwKcQW'
p6178
I4747
sS'1tzQRKk'
p6179
I6585
sS'1gHe4tQ'
p6180
I3299
sS'1pY0gyV'
p6181
I1898
sS'1pFAwTY'
p6182
I5501
sS'1ildtvZ'
p6183
I5499
sS'1hys7fU'
p6184
I3972
sS'TrTe6X'
p6185
I4361
sS'1hiz0BQ'
p6186
I3457
sS'NJqzHb'
p6187
I6142
sS'1gTeCHI'
p6188
I2941
sS'1oqU9CM'
p6189
I2139
sS'1iFtMa3'
p6190
I5838
sS'1gIeDDt'
p6191
I2271
sS'1nWrill'
p6192
I6694
sS'1jlcEmp'
p6193
I5993
sS'1lJoOrQ'
p6194
I359
sS'1g8ZEgf'
p6195
I663
sS'1gIyKzM'
p6196
I5995
sS'OrhF1r'
p6197
I5682
sS'1nVKBNB'
p6198
I6696
sS'1jAkSEl'
p6199
I4580
sS'1rYt8Vk'
p6200
I595
sS'1oKOnYG'
p6201
I3499
sS'1nO9MCX'
p6202
I5712
sS'HZtrxO'
p6203
I4183
sS'1gwaa6Y'
p6204
I6315
sS'1iul6R7'
p6205
I3742
sS'1qFUuCt'
p6206
I6545
sS'1hgufij'
p6207
I2266
sS'1kSPJj7'
p6208
I6101
sS'1fWVayZ'
p6209
I6604
sS'1gArXKb'
p6210
I6247
sS'1nrwE7M'
p6211
I822
sS'1iNdCVh'
p6212
I6026
sS'Ungwfr'
p6213
I6611
sS'1kSf75M'
p6214
I1094
sS'UuyMn0'
p6215
I6083
sS'1k2Bdqr'
p6216
I3873
sS'1heJUOV'
p6217
I2892
sS'1tKZPVe'
p6218
I5032
sS'1v1SfWT'
p6219
I4527
sS'1oyPVoS'
p6220
I6700
sS'1jK2L4s'
p6221
I3093
sS'1pSqYWI'
p6222
I2772
sS'UnmHjo'
p6223
I2508
sS'1jkmT7m'
p6224
I4578
sS'1qgzMFZ'
p6225
I6048
sS'1gXR0l4'
p6226
I5627
sS'1qq6chb'
p6227
I2893
sS'1o5bSx2'
p6228
I2851
sS'1xy6maE'
p6229
I207
sS'1poZ59p'
p6230
I6150
sS'1yXEHAE'
p6231
I1440
sS'1inxTBv'
p6232
I2267
sS'1icKnld'
p6233
I2142
sS'1ltVxx5'
p6234
I1549
sS'1hCxvi1'
p6235
I3802
sS'1o4Nbiv'
p6236
I4672
sS'1nCwIls'
p6237
I5663
sS'1pcPiC5'
p6238
I3055
sS'1pguUAa'
p6239
I3769
sS'1gwFPoI'
p6240
I6702
sS'1k16IPO'
p6241
I6002
sS'1j7VTMH'
p6242
I6182
sS'1ckytBP'
p6243
I4713
sS'1jwEVct'
p6244
I6643
sS'1k8ZQRL'
p6245
I3140
sS'1mfjQPc'
p6246
I911
sS'1mePfVc'
p6247
I4473
sS'1qF7FDB'
p6248
I6316
sS'OLS7MK'
p6249
I6015
sS'UZCFkf'
p6250
I3888
sS'1fstAJE'
p6251
I6005
sS'1gC4UP4'
p6252
I5159
sS'1fVqYDT'
p6253
I1522
sS'1kx5AW2'
p6254
I2558
sS'1hgTHOw'
p6255
I5600
sS'1kbQdBJ'
p6256
I3166
sS'1mEKhQm'
p6257
I6556
sS'1h9c5id'
p6258
I88
sS'RhTpRB'
p6259
I5633
sS'1o0Jdsf'
p6260
I6634
sS'1lGBEsN'
p6261
I5671
sS'1kMiWsU'
p6262
I6707
sS'YwTsaa'
p6263
I4189
sS'1l2D7Tf'
p6264
I6645
sS'1hrLFZ7'
p6265
I3421
sS'V6mGRr'
p6266
I6391
sS'T45gmX'
p6267
I3923
sS'1n3DWP1'
p6268
I3195
sS'1mWmSKe'
p6269
I6490
sS'1lNHbfi'
p6270
I5088
sS'1mJsHPK'
p6271
I4772
sS'1sYM1Gh'
p6272
I345
sS'1vSyh4j'
p6273
I3217
sS'1ibC2Mh'
p6274
I3218
sS'1grpFro'
p6275
I3737
sS'1hj8lLk'
p6276
I1940
sS'RYCSSS'
p6277
I852
sS'1kaq7iQ'
p6278
I5134
sS'RfA3fU'
p6279
I6660
sS'1kOsaGS'
p6280
I4936
sS'1qv87n2'
p6281
I4443
sS'1yT7Wo0'
p6282
I6591
sS'1kfoR9P'
p6283
I4025
sS'1mIEWJh'
p6284
I4277
sS'1jGSJew'
p6285
I3463
sS'1qpRFVn'
p6286
I3034
sS'1kOPfHH'
p6287
I6642
sS'1hzkC8r'
p6288
I6155
sS'1kYC4bt'
p6289
I45
sS'1mFPsEt'
p6290
I6711
sS'1jV0SNW'
p6291
I6217
sS'1jbklxb'
p6292
I4613
sS'1gtSF7h'
p6293
I5320
sS'UqXi8B'
p6294
I2890
sS'1pLzw2w'
p6295
I5014
sS'1oURuwZ'
p6296
I6385
sS'1modArV'
p6297
I1928
sS'Uj6g7W'
p6298
I5588
sS'1lczo6s'
p6299
I3320
sS'1fju0BY'
p6300
I6639
sS'1qpmbP7'
p6301
I4714
sS'1sIe13z'
p6302
I2885
sS'1ie5rC5'
p6303
I6602
sS'1lF35l7'
p6304
I2373
sS'Tvv3VS'
p6305
I4786
sS'1kY0opP'
p6306
I5349
sS'SX4tnB'
p6307
I6471
sS'1oGMrk0'
p6308
I6581
sS'1kSpWoH'
p6309
I3297
sS'1huFLBb'
p6310
I6224
sS'1hfq0h8'
p6311
I5214
sS'1pbVjPz'
p6312
I6712
sS'1kQLhzO'
p6313
I3823
sS'1pMPIz1'
p6314
I6713
sS'1jLjGy6'
p6315
I2357
sS'1mccI8m'
p6316
I2521
sS'1gDz9oM'
p6317
I6283
sS'1kjTydq'
p6318
I3276
sS'1huFLB5'
p6319
I6688
sS'1lQ4vIH'
p6320
I3992
sS'1tN7Toq'
p6321
I1510
sS'1r39abf'
p6322
I2387
sS'1jqJkg7'
p6323
I5732
sS'1pbA7sb'
p6324
I5880
sS'1jbcHhz'
p6325
I1491
sS'RStm3F'
p6326
I3080
sS'1pzUzGi'
p6327
I3248
sS'1rL18nC'
p6328
I3666
sS'1luAFbT'
p6329
I3481
sS'1jXlF2s'
p6330
I2972
sS'1ipKPdC'
p6331
I3872
sS'1geZSIu'
p6332
I1149
sS'1luNEtN'
p6333
I5932
sS'1k2nM9V'
p6334
I2488
sS'T8drhP'
p6335
I4012
sS'1lUwaZK'
p6336
I3359
sS'1kSACVr'
p6337
I6588
sS'1wmCDRg'
p6338
I226
sS'1qJS4z4'
p6339
I1080
sS'1nyRQx7'
p6340
I1005
sS'1hMI5J1'
p6341
I4825
sS'1qJSd8u'
p6342
I5455
sS'1lS3HCo'
p6343
I5779
sS'1pBrQRC'
p6344
I6709
sS'1k5Kj5u'
p6345
I1143
sS'1eEhEUO'
p6346
I1874
sS't8ygx2'
p6347
I3429
sS'V7mscG'
p6348
I5772
sS'1gP7bkX'
p6349
I5669
sS'1pJVOA0'
p6350
I3598
sS'1silNQC'
p6351
I4033
sS'1q0jJvo'
p6352
I5926
sS'1js5cmy'
p6353
I5877
sS'1tD0AzP'
p6354
I2287
sS'1uup7Yf'
p6355
I104
sS'1oJiJLm'
p6356
I6704
sS'1hmxXRN'
p6357
I1667
sS'1kHQiNC'
p6358
I3974
sS'1l2r7WW'
p6359
I6338
sS'1qr2iTf'
p6360
I1578
sS'1qjYmWu'
p6361
I836
sS'1mN6HSo'
p6362
I779
sS'1mQ3MFC'
p6363
I6087
sS'1pDEtvn'
p6364
I6130
sS'1kL5dY4'
p6365
I3371
sS'1hWjFaw'
p6366
I806
sS'1pot3f1'
p6367
I3178
sS'1wYrSF3'
p6368
I5479
sS'1pX2UEm'
p6369
I2423
sS'1hzqOxl'
p6370
I3047
sS'1kuDJG5'
p6371
I3054
sS'UFW9dx'
p6372
I6627
sS'1tVQ34P'
p6373
I4917
sS'1jttcKL'
p6374
I6719
sS'R1ggA4'
p6375
I6720
sS'1gjMdQ6'
p6376
I3356
sS'1tsnLNb'
p6377
I6721
sS'TYxqAL'
p6378
I5450
sS'1gZexYr'
p6379
I5516
sS'1qp92T3'
p6380
I4350
sS'1nSPTIQ'
p6381
I2801
sS'UO2MdF'
p6382
I6037
sS'1q7XE0B'
p6383
I4146
sS'1ppCt8G'
p6384
I5517
sS'1myTR7f'
p6385
I1160
sS'1qcOxcQ'
p6386
I1108
sS'1fRNqIO'
p6387
I5855
sS'1mHxX1G'
p6388
I1268
sS'1oOK4LN'
p6389
I4354
sS'TBTHUc'
p6390
I1505
sS'1ggzE8e'
p6391
I5519
sS'RLx6Do'
p6392
I3275
sS'1oolRw4'
p6393
I6031
sS'1gmevt8'
p6394
I5338
sS'1nYVLCL'
p6395
I6194
sS'V71f2I'
p6396
I6437
sS'1qxqdVB'
p6397
I3854
sS'1hsUpZp'
p6398
I4830
sS'1rsFYdO'
p6399
I2766
sS'1oZJMBW'
p6400
I6157
sS'Oz3ZBD'
p6401
I6482
sS'1gbycDT'
p6402
I3782
sS'1l3LuOK'
p6403
I4001
sS'1kXTkg6'
p6404
I1060
sS'1lhPzPS'
p6405
I699
sS'TmauKN'
p6406
I3659
sS'1mE6u5S'
p6407
I1595
sS'1q96ueu'
p6408
I3956
sS'1pKfhkJ'
p6409
I6249
sS'1lOyMEp'
p6410
I3300
sS'1mym4wA'
p6411
I4918
sS'1iikKx0'
p6412
I316
sS'1jeh4hp'
p6413
I2695
sS'1jPohpd'
p6414
I5999
sS'1lJKgf8'
p6415
I6199
sS'1qpcsFu'
p6416
I6670
sS'11TZLUf'
p6417
I2567
sS'1gB1aYK'
p6418
I2487
sS'1mfvbFu'
p6419
I4214
sS'1i6XcNW'
p6420
I726
sS'1iZcJxn'
p6421
I6094
sS'1jqf1WH'
p6422
I6498
sS'1kxhLgP'
p6423
I3703
sS'1lxOT8C'
p6424
I5202
sS'1kModlN'
p6425
I5031
sS'1pHCd3q'
p6426
I3611
sS'1oBXJtT'
p6427
I6631
sS'1q8OcuU'
p6428
I6716
sS'1lbFd8A'
p6429
I2993
sS'T84d5K'
p6430
I975
sS'T37NgM'
p6431
I1141
sS'UH58eq'
p6432
I4274
sS'1gkyPLE'
p6433
I5523
sS'1gCIOvX'
p6434
I807
sS'1jDnKQA'
p6435
I4165
sS'1fkvx8m'
p6436
I5946
sS'1g5YZlc'
p6437
I2090
sS'1pz7iZV'
p6438
I2678
sS'1rTgwyG'
p6439
I6589
sS'1kLddEb'
p6440
I212
sS'1pvMdMS'
p6441
I6526
sS'1nYG7DS'
p6442
I2618
sS'1nPDvdm'
p6443
I1593
sS'1opXYbx'
p6444
I692
sS'UTfI1Z'
p6445
I6454
sS'1jXI5C4'
p6446
I5878
sS'1nA4jRe'
p6447
I3143
sS'1kQepKU'
p6448
I6457
sS'1nZtaNE'
p6449
I2681
sS'1kWyagB'
p6450
I2965
sS'1kv9wXl'
p6451
I5792
sS'1l25fX8'
p6452
I6731
sS'1hwvC6H'
p6453
I3057
sS'1qbyWgE'
p6454
I1531
sS'SAuY2F'
p6455
I3240
sS'1gPJ5Xc'
p6456
I4767
sS'TvlOUQ'
p6457
I5215
sS'PJbI0r'
p6458
I4912
sS'1kTPNOd'
p6459
I2377
sS'TCHIFW'
p6460
I2326
sS'1ifIMZy'
p6461
I2497
sS'1qgZqN8'
p6462
I3347
sS'UDshOY'
p6463
I6342
sS'1qrXhy2'
p6464
I858
sS'1gwdPSb'
p6465
I4555
sS'1pt24vD'
p6466
I5250
sS'UZqrb1'
p6467
I6169
sS'Un38rr'
p6468
I1104
sS'1kZqRHq'
p6469
I6730
sS'1jbt4z1'
p6470
I6323
sS'1jV2KGk'
p6471
I1069
sS'1pwhUpb'
p6472
I2324
sS'1ld3drU'
p6473
I2136
sS'1gpEHDq'
p6474
I2873
sS'1ggunh0'
p6475
I3482
sS'1lCC291'
p6476
I1909
sS'1ijlcLo'
p6477
I947
sS'1kQaD0U'
p6478
I4329
sS'1myI4G8'
p6479
I3222
sS'1kFLZ1L'
p6480
I3213
sS'1isxXPx'
p6481
I30
sS'1jQGw7B'
p6482
I6622
sS'1l99aG4'
p6483
I839
sS'1uUhJZe'
p6484
I445
sS'1ofS22d'
p6485
I3908
sS'Tm4qSu'
p6486
I4196
sS'1qsyreG'
p6487
I6348
sS'1sqbrSc'
p6488
I29
sS'1fNZSic'
p6489
I3074
sS'1q25Bo5'
p6490
I6139
sS'1pWI08h'
p6491
I5495
sS'1iWFCpC'
p6492
I4418
sS'1gfddjz'
p6493
I2329
sS'1j3hTJ7'
p6494
I4086
sS'1nptZjp'
p6495
I3228
sS'1k6z8oq'
p6496
I1478
sS'1lQUpnz'
p6497
I1109
sS'Ul0AKG'
p6498
I2181
sS'1kJE0oz'
p6499
I6103
sS'1qjrL5I'
p6500
I5156
sS'1sIWw5Y'
p6501
I986
sS'1kF5U21'
p6502
I6540
sS'1goVMNP'
p6503
I6171
sS'1hsNcsr'
p6504
I804
sS'1qwvEEa'
p6505
I6621
sS'1m9JIPJ'
p6506
I3642
sS'TJoj6K'
p6507
I6231
sS'1mpP6P4'
p6508
I6693
sS'1jfu1rp'
p6509
I5889
sS'1g4lJCg'
p6510
I6339
sS'1pzuBiY'
p6511
I5703
sS'1gXszUU'
p6512
I278
sS'Q4D1Tl'
p6513
I4024
sS'1k7Fvrw'
p6514
I261
sS'1jEKIXD'
p6515
I5343
sS'1hFIJbs'
p6516
I493
sS'1prLtZ3'
p6517
I2932
sS'1qLME9n'
p6518
I5291
sS'1sGYHDt'
p6519
I6671
sS'1hAsFlP'
p6520
I4388
sS'1smUbNI'
p6521
I6729
sS'1mgppA8'
p6522
I2091
sS'1gyI0bk'
p6523
I1041
sS'YHcjNS'
p6524
I6735
sS'1gFDOkI'
p6525
I1864
sS'1hTF308'
p6526
I1968
sS'1mnwV8Y'
p6527
I5099
sS'1mtOVC4'
p6528
I2089
sS'1kEGJwp'
p6529
I6736
sS'1fNbVvZ'
p6530
I4856
sS'1maKJUQ'
p6531
I912
sS'1x8Vn7l'
p6532
I1625
sS'1kZh68s'
p6533
I5645
sS'1i5HSPl'
p6534
I6366
sS'1iTeEDQ'
p6535
I5365
sS'1oIUcGl'
p6536
I1826
sS'1jT16nz'
p6537
I3778
sS'1nxIgKO'
p6538
I2022
sS'1ktvbfN'
p6539
I5935
sS'1rbTDG2'
p6540
I974
sS'1k2nA5x'
p6541
I673
sS'SlweWY'
p6542
I5472
sS'1n4hCpw'
p6543
I1020
sS'R64Ziu'
p6544
I5473
sS'Tojz6w'
p6545
I5547
sS'1o9j8JO'
p6546
I6401
sS'1kqFPn4'
p6547
I5768
sS'1syB17O'
p6548
I2418
sS'1mMWG4G'
p6549
I6682
sS'1l53Fnk'
p6550
I4018
sS'1klRfr7'
p6551
I3255
sS'U6RWzk'
p6552
I150
sS'1phlyUH'
p6553
I6346
sS'1mvEzhP'
p6554
I3027
sS'1hgh3UU'
p6555
I3013
sS'1lchmTm'
p6556
I5976
sS'1k5vkba'
p6557
I6164
sS'1it8FqY'
p6558
I4769
sS'1kwqsZ0'
p6559
I728
sS'1nubNRK'
p6560
I6112
sS'1pCEmxQ'
p6561
I1286
sS'1rc0mA3'
p6562
I4381
sS'1gcojX8'
p6563
I6734
sS'1ji4Q63'
p6564
I3144
sS'1jsUj8q'
p6565
I6472
sS'1obZ3kq'
p6566
I5436
sS'1iwCxNw'
p6567
I1058
sS'1gCCtR0'
p6568
I6287
sS'1gCeykK'
p6569
I6332
sS'UhEEzQ'
p6570
I4679
sS'1mgGrLJ'
p6571
I4771
sS'1sIIXQn'
p6572
I5556
sS'1jIaACa'
p6573
I6638
sS'1pGNEJi'
p6574
I6732
sS'1kWSvCB'
p6575
I1082
sS'1qfyRbr'
p6576
I6168
sS'1kNl4Cn'
p6577
I3468
sS'1jXtd6e'
p6578
I6636
sS'1h7U9iA'
p6579
I4746
sS'1gwXSeC'
p6580
I6738
sS'1oJOfsI'
p6581
I827
sS'1pipNhY'
p6582
I3029
sS'1oEuMuU'
p6583
I6534
sS'1i4UYsH'
p6584
I90
sS'1oMSGXh'
p6585
I5985
sS'1pBiVPX'
p6586
I3203
sS'1iHoeFc'
p6587
I5315
sS'1hj9fBK'
p6588
I5296
sS'1pDumUu'
p6589
I2551
sS'1mgwaz6'
p6590
I4761
sS'1qlQLZD'
p6591
I6564
sS'1lXWhgX'
p6592
I3221
sS'1kUT2Ib'
p6593
I4301
sS'1qfC8XI'
p6594
I1064
sS'1m3O2ju'
p6595
I6374
sS'1qlZeKa'
p6596
I5886
sS'URyarV'
p6597
I1442
sS'1htkzem'
p6598
I5638
sS'1sS5DxQ'
p6599
I1685
sS'TEcrTx'
p6600
I6443
sS'1qu92lj'
p6601
I178
sS'UApnue'
p6602
I1365
sS'SpphEn'
p6603
I6363
sS'1feHUVM'
p6604
I5986
sS'1r924BX'
p6605
I4951
sS'1sRXlUN'
p6606
I6727
sS'V3UYEK'
p6607
I6343
sS'1mkHJYY'
p6608
I4401
sS'1pg2E0p'
p6609
I3498
sS'1jhfGLd'
p6610
I5292
sS'1uVFAHX'
p6611
I5460
sS'SZJbG3'
p6612
I5570
sS'1jsqG2I'
p6613
I1047
sS'1gPJVTL'
p6614
I2545
sS'1kPhNAU'
p6615
I4624
sS'1miUDtL'
p6616
I3684
sS'1iQTmGR'
p6617
I4514
sS'1jxVj6U'
p6618
I706
sS'1maLvEk'
p6619
I6663
sS'1iN11IH'
p6620
I466
sS'1nT7Qtc'
p6621
I1172
sS'SAnkol'
p6622
I4551
sS'VnlyJl'
p6623
I341
sS'1maUEww'
p6624
I6675
sS'QIAFHt'
p6625
I2818
sS'1mvPutP'
p6626
I119
sS'1gmWf2X'
p6627
I2161
sS'1keVR6e'
p6628
I2007
sS'1jhw6gK'
p6629
I3747
sS'1jeDM3s'
p6630
I5351
sS'1jOrKOt'
p6631
I2010
sS'1gjSPOM'
p6632
I3532
sS'1pO1gF9'
p6633
I5751
sS'1kqAhfk'
p6634
I2111
sS'1gvS8Sn'
p6635
I4171
sS'1m1a32k'
p6636
I2432
sS'1pGEfnj'
p6637
I3432
sS'1eqpj8A'
p6638
I2064
sS'1vk8n6j'
p6639
I339
sS'1nMbqne'
p6640
I972
sS'1sDn7Ba'
p6641
I527
sS'1tsf5WU'
p6642
I5750
sS'1h9KJTx'
p6643
I6725
sS'1tzPQC1'
p6644
I5892
sS'1nf6a98'
p6645
I5469
sS'1kSgLUT'
p6646
I1680
sS'1oD0Eyj'
p6647
I4678
sS'1k3fM7X'
p6648
I4873
sS'1nYMqut'
p6649
I5740
sS'1li8u1p'
p6650
I1504
sS'1jPOhut'
p6651
I1606
sS'1jB1uId'
p6652
I778
sS'1rIXwDb'
p6653
I3977
sS'1pIpa4W'
p6654
I1499
sS'OdmlYF'
p6655
I6000
sS'Vkpj2e'
p6656
I1081
sS'1kVIC88'
p6657
I5908
sS'1rCwIb1'
p6658
I94
sS'1fSGujZ'
p6659
I1941
sS'1psKqeq'
p6660
I965
sS'TGhaDz'
p6661
I1965
sS'1k0KgnY'
p6662
I4838
sS'1r2Kfr9'
p6663
I732
sS'1pgdeEG'
p6664
I1514
sS'1jldGR4'
p6665
I6063
sS'1kJoo4A'
p6666
I3061
sS'1j0ZeKm'
p6667
I5184
sS'1qaQQPR'
p6668
I2361
sS'1jrYQ6M'
p6669
I5832
sS'1o7Bl7c'
p6670
I6273
sS'1kV86FZ'
p6671
I1185
sS'1pt4tpZ'
p6672
I457
sS'SjRwDX'
p6673
I1809
sS'1klvl8L'
p6674
I1304
sS'1iit4bF'
p6675
I6147
sS'182Xkbt'
p6676
I3618
sS'UZOdUr'
p6677
I6678
sS'1q2dhXn'
p6678
I3944
sS'1paSwtb'
p6679
I4636
sS'1soZXuK'
p6680
I87
sS'1yX57m6'
p6681
I4979
sS'1plhghN'
p6682
I4298
sS'1kD7cL8'
p6683
I5766
sS'1kQrsLw'
p6684
I2562
sS'1jl0Vpu'
p6685
I6466
sS'1o9BhXV'
p6686
I978
sS'1jozAOM'
p6687
I5341
sS'1oADWtN'
p6688
I5335
sS'1gweNhn'
p6689
I943
sS'1nJfqav'
p6690
I2370
sS'1gPm46y'
p6691
I6324
sS'1vNKN4U'
p6692
I4193
sS'1kUvy1B'
p6693
I5211
sS'1kMxtJS'
p6694
I6245
sS'1lBdPzf'
p6695
I6207
sS'1kDkRl0'
p6696
I5651
sS'1holZvu'
p6697
I6017
sS'UEzoqr'
p6698
I3451
sS'1gs9qQ0'
p6699
I6276
sS'1pUfC4q'
p6700
I6452
sS'1iUNLiQ'
p6701
I3576
sS'1krmCVF'
p6702
I2730
sS'1etQ2fn'
p6703
I6018
sS'1q1UZ8W'
p6704
I4921
sS'1q21Y1j'
p6705
I2794
sS'c8DV1F'
p6706
I176
sS'1hf7g7e'
p6707
I6351
sS'1kxHSsN'
p6708
I3568
sS'1gbDQq6'
p6709
I3461
sS'1nEGkjM'
p6710
I3260
sS'1jVop63'
p6711
I574
sS'1l4g7Iz'
p6712
I3897
sS'1jdLRFI'
p6713
I5749
sS'1mhde9t'
p6714
I3264
sS'1nU4T8h'
p6715
I5728
sS'1kPQ5Z0'
p6716
I3267
sS'1tjV1YB'
p6717
I136
sS'1gcg90G'
p6718
I6091
sS'1jfDC1k'
p6719
I5396
sS'1lkTBva'
p6720
I2311
sS'1kBnkj0'
p6721
I6520
sS'1kNEs5l'
p6722
I6728
sS'1hKAk3T'
p6723
I6023
sS'1pGENJO'
p6724
I1349
sS'UUnEjt'
p6725
I4213
sS'1gZyVn1'
p6726
I5033
sS'1kPQ6N4'
p6727
I2781
sS'TnL0NE'
p6728
I4202
sS'1gEbeFV'
p6729
I2905
sS'1hp2azE'
p6730
I317
sS'1mK5mc4'
p6731
I6692
sS'1jj8NJl'
p6732
I645
sS'1kQqVIP'
p6733
I2229
sS'1iKig6k'
p6734
I3579
sS'1kuLrQu'
p6735
I3317
sS'1iaLteO'
p6736
I2306
sS'1gPp5Jy'
p6737
I3103
sS'1gppWk4'
p6738
I6703
sS'1sNPJV8'
p6739
I3561
sS'1oO8LrQ'
p6740
I4172
sS'1nZe0El'
p6741
I5593
s.